LX51 LINKER/LOCATER V4.66.93.0                                                          05/06/2020  16:02:27  PAGE 1


LX51 LINKER/LOCATER V4.66.93.0, INVOKED BY:
C:\KEIL_V5\C51\BIN\LX51.EXE .\Objects\main.obj, .\Objects\ISR.obj, .\Objects\uart.obj, .\Objects\Init.obj, .\Objects\del
>> ay.obj, .\Objects\DS18B20.obj, .\Objects\LCD1602.obj, .\Objects\GY_25.obj, .\Objects\CloudHandle.obj, .\Objects\Cloud
>> CodeArray.obj TO .\Objects\STC8_AlibabaCloud PRINT (.\Listings\STC8_AlibabaCloud.map) REMOVEUNUSED


CPU MODE:     8051 MODE
MEMORY MODEL: SMALL WITH FLOATING POINT ARITHMETIC


INPUT MODULES INCLUDED:
  .\Objects\main.obj (MAIN)
         COMMENT TYPE 0: C51 V9.59.0.0
  .\Objects\ISR.obj (ISR)
         COMMENT TYPE 0: C51 V9.59.0.0
  .\Objects\uart.obj (UART)
         COMMENT TYPE 0: C51 V9.59.0.0
  .\Objects\Init.obj (INIT)
         COMMENT TYPE 0: C51 V9.59.0.0
  .\Objects\delay.obj (DELAY)
         COMMENT TYPE 0: C51 V9.59.0.0
  .\Objects\DS18B20.obj (DS18B20)
         COMMENT TYPE 0: C51 V9.59.0.0
  .\Objects\LCD1602.obj (LCD1602)
         COMMENT TYPE 0: C51 V9.59.0.0
  .\Objects\GY_25.obj (GY_25)
         COMMENT TYPE 0: C51 V9.59.0.0
  .\Objects\CloudHandle.obj (CLOUDHANDLE)
         COMMENT TYPE 0: C51 V9.59.0.0
  .\Objects\CloudCodeArray.obj (CLOUDCODEARRAY)
         COMMENT TYPE 0: C51 V9.59.0.0
  C:\KEIL_V5\C51\LIB\C51FPS.LIB (?C?FPADD)
         COMMENT TYPE 1: A51 / ASM51 Assembler
  C:\KEIL_V5\C51\LIB\C51FPS.LIB (?C?FPMUL)
         COMMENT TYPE 1: A51 / ASM51 Assembler
  C:\KEIL_V5\C51\LIB\C51FPS.LIB (?C?FPDIV)
         COMMENT TYPE 1: A51 / ASM51 Assembler
  C:\KEIL_V5\C51\LIB\C51FPS.LIB (?C?FCAST)
         COMMENT TYPE 1: A51 / ASM51 Assembler
  C:\KEIL_V5\C51\LIB\C51FPS.LIB (?C?CASTF)
         COMMENT TYPE 1: A51 / ASM51 Assembler
  C:\KEIL_V5\C51\LIB\C51FPS.LIB (PRINTF)
         COMMENT TYPE 1: A51 / ASM51 Assembler
  C:\KEIL_V5\C51\LIB\C51FPS.LIB (?C?FPGETOPN)
         COMMENT TYPE 1: A51 / ASM51 Assembler
  C:\KEIL_V5\C51\LIB\C51FPS.LIB (?C?FPROUND)
         COMMENT TYPE 1: A51 / ASM51 Assembler
  C:\KEIL_V5\C51\LIB\C51FPS.LIB (?C?FPCONVERT)
         COMMENT TYPE 1: A51 / ASM51 Assembler
  C:\KEIL_V5\C51\LIB\C51FPS.LIB (?C?FTNPWR)
         COMMENT TYPE 1: A51 / ASM51 Assembler
  C:\KEIL_V5\C51\LIB\C51S.LIB (?C_STARTUP)
         COMMENT TYPE 1: A51 / ASM51 Assembler
  C:\KEIL_V5\C51\LIB\C51S.LIB (?C?CLDPTR)
         COMMENT TYPE 1: A51 / ASM51 Assembler
  C:\KEIL_V5\C51\LIB\C51S.LIB (?C?CLDOPTR)
         COMMENT TYPE 1: A51 / ASM51 Assembler
  C:\KEIL_V5\C51\LIB\C51S.LIB (?C?CSTPTR)
         COMMENT TYPE 1: A51 / ASM51 Assembler
  C:\KEIL_V5\C51\LIB\C51S.LIB (?C?ILDIX)
         COMMENT TYPE 1: A51 / ASM51 Assembler
  C:\KEIL_V5\C51\LIB\C51S.LIB (?C?LMUL)
         COMMENT TYPE 1: A51 / ASM51 Assembler
  C:\KEIL_V5\C51\LIB\C51S.LIB (?C?LNEG)
         COMMENT TYPE 1: A51 / ASM51 Assembler
  C:\KEIL_V5\C51\LIB\C51S.LIB (?C?ULCMP)
LX51 LINKER/LOCATER V4.66.93.0                                                        05/06/2020  16:02:27  PAGE 2


         COMMENT TYPE 1: A51 / ASM51 Assembler
  C:\KEIL_V5\C51\LIB\C51S.LIB (?C?ULSHR)
         COMMENT TYPE 1: A51 / ASM51 Assembler
  C:\KEIL_V5\C51\LIB\C51S.LIB (?C?LLDCODE0)
         COMMENT TYPE 1: A51 / ASM51 Assembler
  C:\KEIL_V5\C51\LIB\C51S.LIB (?C?LSTXDATA)
         COMMENT TYPE 1: A51 / ASM51 Assembler
  C:\KEIL_V5\C51\LIB\C51S.LIB (?C?LSTKXDATA)
         COMMENT TYPE 1: A51 / ASM51 Assembler
  C:\KEIL_V5\C51\LIB\C51S.LIB (?C?PLDIIDATA)
         COMMENT TYPE 1: A51 / ASM51 Assembler
  C:\KEIL_V5\C51\LIB\C51S.LIB (?C?CCASE)
         COMMENT TYPE 1: A51 / ASM51 Assembler
  C:\KEIL_V5\C51\LIB\C51S.LIB (PUTCHAR)
         COMMENT TYPE 1: A51 / ASM51 Assembler
  C:\KEIL_V5\C51\LIB\C51S.LIB (STRNCMP)
         COMMENT TYPE 1: C51 Compiler
  C:\KEIL_V5\C51\LIB\C51S.LIB (STRSTR)
         COMMENT TYPE 1: C51 Compiler
  C:\KEIL_V5\C51\LIB\C51S.LIB (?C?MEMSET)
         COMMENT TYPE 1: A51 / ASM51 Assembler
  C:\KEIL_V5\C51\LIB\C51S.LIB (?C?COPYP2)
         COMMENT TYPE 1: A51 / ASM51 Assembler
  C:\KEIL_V5\C51\LIB\C51S.LIB (?C_INIT)
         COMMENT TYPE 1: A51 / ASM51 Assembler


ACTIVE MEMORY CLASSES OF MODULE:  .\Objects\STC8_AlibabaCloud (MAIN)

BASE        START       END         USED      MEMORY CLASS
==========================================================
C:000000H   C:000000H   C:00FFFFH   00264BH   CODE
I:000020H.0 I:000020H.0 I:00002FH.7 000001H.7 BIT
I:000000H   I:000000H   I:00007FH   00002DH   DATA
X:000000H   X:000000H   X:00FFFFH   000713H   XDATA
X:000000H   X:000000H   X:0000FFH   00001CH   PDATA
C:000000H   C:000000H   C:00FFFFH   0004A2H   CONST
I:000000H   I:000000H   I:0000FFH   000001H   IDATA


MEMORY MAP OF MODULE:  .\Objects\STC8_AlibabaCloud (MAIN)


START     STOP      LENGTH    ALIGN  RELOC    MEMORY CLASS   SEGMENT NAME
=========================================================================

* * * * * * * * * * *   D A T A   M E M O R Y   * * * * * * * * * * * * *
000000H   000007H   000008H   ---    AT..     DATA           "REG BANK 0"
000008H   00000DH   000006H   BYTE   UNIT     DATA           ?DT?UART
00000EH   00000EH   000001H   BYTE   UNIT     DATA           ?DT?CLOUDHANDLE
00000FH.0 00001FH.7 000011H.0 ---    ---      **GAP**
000020H.0 000021H.2 000001H.3 BIT    UNIT     BIT            _BIT_GROUP_
000021H.3 000021H.5 000000H.3 BIT    UNIT     BIT            ?BI?UART
000021H.6 000021H.6 000000H.1 BIT    UNIT     BIT            ?BI?CLOUDHANDLE
000021H.7 000021H   000000H.1 ---    ---      **GAP**
000022H   00003FH   00001EH   BYTE   UNIT     DATA           _DATA_GROUP_
000040H   000040H   000001H   BYTE   UNIT     IDATA          ?STACK

* * * * * * * * * * *   C O D E   M E M O R Y   * * * * * * * * * * * * *
000000H   000002H   000003H   ---    OFFS..   CODE           ?CO??C_STARTUP?0
000003H   00000AH   000008H   BYTE   UNIT     CODE           ?PR?MAIN?MAIN
00000BH   00000DH   000003H   BYTE   OFFS..   CODE           ?ISR?0000B
00000EH   000022H   000015H   BYTE   UNIT     CODE           ?PR?LCD1602WAIT?LCD1602
000023H   000025H   000003H   BYTE   OFFS..   CODE           ?ISR?00023
000026H   00003CH   000017H   BYTE   UNIT     CODE           ?PR?ISR
LX51 LINKER/LOCATER V4.66.93.0                                                        05/06/2020  16:02:27  PAGE 3


00003DH   000042H   000006H   BYTE   UNIT     CODE           ?PR?DELAY1US?DELAY
000043H   000045H   000003H   BYTE   OFFS..   CODE           ?ISR?00043
000046H   000089H   000044H   BYTE   UNIT     CODE           ?PR?_INIT_WKT?INIT
00008AH   000092H   000009H   BYTE   UNIT     CODE           ?PR?DELAY485US?DELAY
000093H   000095H   000003H   BYTE   OFFS..   CODE           ?ISR?00093
000096H   000824H   00078FH   BYTE   UNIT     CODE           ?C?LIB_CODE
000825H   000C93H   00046FH   BYTE   UNIT     CODE           ?PR?PRINTF?PRINTF
000C94H   0010B7H   000424H   BYTE   UNIT     CODE           ?PR?CLOUDHANDLERECEIVE?CLOUDHANDLE
0010B8H   0013B7H   000300H   BYTE   UNIT     CODE           ?PR?_CLOUDSEND?CLOUDHANDLE
0013B8H   0015B0H   0001F9H   BYTE   UNIT     CODE           ?PR?CLOUDINIT?CLOUDHANDLE
0015B1H   00177EH   0001CEH   BYTE   UNIT     CODE           ?PR?CLOUDHANDLE
00177FH   00192BH   0001ADH   BYTE   UNIT     CODE           ?PR?CLOUDLOOP?CLOUDHANDLE
00192CH   001AAAH   00017FH   BYTE   UNIT     CODE           ?PR?_CLOUDREPORT?CLOUDHANDLE
001AABH   001C1DH   000173H   BYTE   UNIT     CODE           ?PR?DS18B20GETTEMPERATURE?DS18B20
001C1EH   001D25H   000108H   BYTE   UNIT     CODE           ?PR?GY_25GETAZIMUTH?GY_25
001D26H   001E24H   0000FFH   BYTE   UNIT     CODE           ?PR?_CLOUDRESEND?CLOUDHANDLE
001E25H   001F00H   0000DCH   BYTE   UNIT     CODE           ?PR?DS18B20STINIT?DS18B20
001F01H   001FA8H   0000A8H   BYTE   UNIT     CODE           ?PR?CLOUDRECEIVE?CLOUDHANDLE
001FA9H   002034H   00008CH   BYTE   UNIT     CODE           ?C_C51STARTUP
002035H   0020BFH   00008BH   BYTE   UNIT     CODE           ?PR?UART2_ISR?ISR
0020C0H   002141H   000082H   BYTE   UNIT     CODE           ?PR?_STRSTR?STRSTR
002142H   0021BDH   00007CH   BYTE   UNIT     CODE           ?PR?UART4_ISR?ISR
0021BEH   00222CH   00006FH   BYTE   UNIT     CODE           ?PR?_STRNCMP?STRNCMP
00222DH   002285H   000059H   BYTE   UNIT     CODE           ?PR?TM0_ISR?ISR
002286H   0022BFH   00003AH   BYTE   UNIT     CODE           ?PR?DS18B20READBYTE?DS18B20
0022C0H   0022F7H   000038H   BYTE   UNIT     CODE           ?PR?DS18B20
0022F8H   00232EH   000037H   BYTE   UNIT     CODE           ?PR?_LCD1602WRITELINE?LCD1602
00232FH   002364H   000036H   BYTE   UNIT     CODE           ?PR?_LCD1602LOADWORD?LCD1602
002365H   002399H   000035H   BYTE   UNIT     CODE           ?PR?INIT_UART2?INIT
00239AH   0023CDH   000034H   BYTE   UNIT     CODE           ?PR?LCD1602INIT?LCD1602
0023CEH   0023FEH   000031H   BYTE   UNIT     CODE           ?PR?INIT_UART4?INIT
0023FFH   00242BH   00002DH   BYTE   UNIT     CODE           ?PR?_DS18B20WRITEBYTE?DS18B20
00242CH   002458H   00002DH   BYTE   UNIT     CODE           ?PR?GY_25INIT?GY_25
002459H   002484H   00002CH   BYTE   UNIT     CODE           ?PR?DS18B20INIT?DS18B20
002485H   0024AFH   00002BH   BYTE   UNIT     CODE           ?PR?INIT?INIT
0024B0H   0024D6H   000027H   BYTE   UNIT     CODE           ?PR?PUTCHAR?PUTCHAR
0024D7H   0024FBH   000025H   BYTE   UNIT     CODE           ?PR?_UART2_SENDSTR8?UART
0024FCH   002520H   000025H   BYTE   UNIT     CODE           ?PR?INIT_IO?INIT
002521H   002540H   000020H   BYTE   UNIT     CODE           ?PR?INIT_INTERRUPT?INIT
002541H   002556H   000016H   BYTE   UNIT     CODE           ?PR?GY_25
002557H   002569H   000013H   BYTE   UNIT     CODE           ?PR?_LCD1602WRITECMDORDATA?LCD1602
00256AH   00257BH   000012H   BYTE   UNIT     CODE           ?PR?DS18B20CONVERTTEMPERATURE?DS18B20
00257CH   00258DH   000012H   BYTE   UNIT     CODE           ?PR?_LCD1602SETCGRAM?LCD1602
00258EH   00259EH   000011H   BYTE   UNIT     CODE           ?PR?INIT_TIMER0?INIT
00259FH   0025ADH   00000FH   BYTE   UNIT     CODE           ?PR?DELAY385MS?DELAY
0025AEH   0025BBH   00000EH   BYTE   UNIT     CODE           ?PR?_GY_25SETCMD?GY_25
0025BCH   0025C8H   00000DH   BYTE   UNIT     CODE           ?PR?DELAY100MS?DELAY
0025C9H   0025D5H   00000DH   BYTE   UNIT     CODE           ?PR?DELAY200MS?DELAY
0025D6H   0025E2H   00000DH   BYTE   UNIT     CODE           ?PR?DELAY765MS?DELAY
0025E3H   0025EDH   00000BH   BYTE   UNIT     CODE           ?PR?_UART2_SEND8?UART
0025EEH   0025F8H   00000BH   BYTE   UNIT     CODE           ?PR?_UART4_SEND8?UART
0025F9H   002603H   00000BH   BYTE   UNIT     CODE           ?PR?DELAY60US?DELAY
002604H   00260DH   00000AH   BYTE   UNIT     CODE           ?PR?INIT_RST?INIT
00260EH   002617H   00000AH   BYTE   UNIT     CODE           ?PR?DELAY40US?DELAY
002618H   002621H   00000AH   BYTE   UNIT     CODE           ?PR?DELAY130US?DELAY
002622H   00262AH   000009H   BYTE   UNIT     CODE           ?PR?DELAY1MS?DELAY
00262BH   002633H   000009H   BYTE   UNIT     CODE           ?C_INITSEG
002634H   00263BH   000008H   BYTE   UNIT     CODE           ?PR?UART1_ISR?ISR
00263CH   002643H   000008H   BYTE   UNIT     CODE           ?PR?_LCD1602SETDDRAM?LCD1602
002644H   00264AH   000007H   BYTE   UNIT     CODE           ?PR?DELAY10US?DELAY
00264BH   0028C8H   00027EH   BYTE   UNIT     CONST          ?CO?CLOUDHANDLE
0028C9H   002AC4H   0001FCH   BYTE   UNIT     CONST          ?CO?CLOUDCODEARRAY
002AC5H   002ADCH   000018H   BYTE   UNIT     CONST          ?CO?DS18B20
002ADDH   002AECH   000010H   BYTE   UNIT     CONST          ?CO?LCD1602

LX51 LINKER/LOCATER V4.66.93.0                                                        05/06/2020  16:02:27  PAGE 4


* * * * * * * * * * *  X D A T A   M E M O R Y  * * * * * * * * * * * * *
000000H   00001AH   00001BH   BYTE   INPAGE   PDATA          _PDATA_GROUP_
00001BH   00001BH   000001H   BYTE   INPAGE   PDATA          ?PD?GY_25
00001CH   00049BH   000480H   BYTE   UNIT     XDATA          ?XD?CLOUDHANDLE
00049CH   000713H   000278H   BYTE   UNIT     XDATA          ?XD?UART
000714H   00071FH   00000CH   BYTE   UNIT     XDATA          ?XD?GY_25
000720H   00072AH   00000BH   BYTE   UNIT     XDATA          ?XD?DS18B20
00072BH   00072EH   000004H   BYTE   UNIT     XDATA          _XDATA_GROUP_

* * * * * * * * *   R E M O V E D     S E G M E N T S   * * * * * * * *
   *DEL*:           000009H   BYTE   UNIT     CODE           ?PR?DELAY45US?DELAY
   *DEL*:           00003CH   BYTE   UNIT     CODE           ?PR?_DS18B20SET?DS18B20
   *DEL*:           000003H   BYTE   UNIT     DATA           ?DT?_DS18B20SET?DS18B20
   *DEL*:           000014H   BYTE   UNIT     CODE           ?PR?LCD1602READIDX?LCD1602
   *DEL*:           000014H   BYTE   UNIT     CODE           ?PR?LCD1602READDATA?LCD1602



OVERLAY MAP OF MODULE:   .\Objects\STC8_AlibabaCloud (MAIN)


FUNCTION/MODULE                         BIT_GROUP   DATA_GROUP   PDATA_GROUP  XDATA_GROUP
--> CALLED FUNCTION/MODULE             START  STOP  START  STOP  START  STOP  START  STOP
=========================================================================================
TM0_ISR/ISR                            ----- -----  ----- -----  ----- -----  ----- -----

*** NEW ROOT *************************

UART1_ISR/ISR                          ----- -----  ----- -----  ----- -----  ----- -----

*** NEW ROOT *************************

UART2_ISR/ISR                          20H.0 20H.0  ----- -----  ----- -----  ----- -----
  +--> ISR

ISR                                    ----- -----  ----- -----  ----- -----  ----- -----

*** NEW ROOT *************************

UART4_ISR/ISR                          20H.1 20H.1  ----- -----  ----- -----  ----- -----
  +--> ISR

*** NEW ROOT *************************

?C_C51STARTUP                          ----- -----  ----- -----  ----- -----  ----- -----
  +--> MAIN/MAIN
  +--> ?C_INITSEG

MAIN/MAIN                              ----- -----  ----- -----  ----- -----  ----- -----
  +--> INIT/INIT
  +--> CLOUDLOOP/CLOUDHANDLE

INIT/INIT                              ----- -----  ----- -----  ----- -----  ----- -----
  +--> INIT_RST/INIT
  +--> INIT_IO/INIT
  +--> INIT_TIMER0/INIT
  +--> INIT_UART2/INIT
  +--> INIT_UART4/INIT
  +--> _INIT_WKT/INIT
  +--> INIT_INTERRUPT/INIT
  +--> CLOUDINIT/CLOUDHANDLE
  +--> DS18B20STINIT/DS18B20
  +--> GY_25INIT/GY_25
  +--> LCD1602INIT/LCD1602

LX51 LINKER/LOCATER V4.66.93.0                                                        05/06/2020  16:02:27  PAGE 5


INIT_RST/INIT                          ----- -----  ----- -----  ----- -----  ----- -----

INIT_IO/INIT                           ----- -----  ----- -----  ----- -----  ----- -----

INIT_TIMER0/INIT                       ----- -----  ----- -----  ----- -----  ----- -----

INIT_UART2/INIT                        ----- -----  0022H 0025H  ----- -----  ----- -----

INIT_UART4/INIT                        ----- -----  0022H 0025H  ----- -----  ----- -----

_INIT_WKT/INIT                         20H.2 20H.2  0022H 0025H  0000H 0001H  ----- -----

INIT_INTERRUPT/INIT                    ----- -----  ----- -----  ----- -----  ----- -----

CLOUDINIT/CLOUDHANDLE                  ----- -----  ----- -----  ----- -----  ----- -----
  +--> CLOUDHANDLE
  +--> CLOUDRECEIVE/CLOUDHANDLE
  +--> _CLOUDRESEND/CLOUDHANDLE
  +--> _CLOUDSEND/CLOUDHANDLE

CLOUDHANDLE                            ----- -----  ----- -----  ----- -----  ----- -----

CLOUDRECEIVE/CLOUDHANDLE               ----- -----  0025H 0028H  ----- -----  ----- -----
  +--> CLOUDHANDLE
  +--> CLOUDHANDLERECEIVE/CLOUDHANDLE

CLOUDHANDLERECEIVE/CLOUDHANDLE         20H.2 20H.2  ----- -----  0001H 001AH  ----- -----
  +--> CLOUDHANDLE
  +--> _STRSTR/STRSTR
  +--> _STRNCMP/STRNCMP
  +--> _LCD1602WRITELINE/LCD1602
  +--> _GY_25SETCMD/GY_25

_STRSTR/STRSTR                         ----- -----  0029H 0034H  ----- -----  ----- -----

_STRNCMP/STRNCMP                       ----- -----  0029H 0030H  ----- -----  ----- -----

_LCD1602WRITELINE/LCD1602              20H.3 20H.3  0029H 002CH  ----- -----  ----- -----
  +--> _LCD1602SETDDRAM/LCD1602
  +--> _LCD1602WRITECMDORDATA/LCD1602

_LCD1602SETDDRAM/LCD1602               ----- -----  ----- -----  ----- -----  ----- -----
  +--> _LCD1602WRITECMDORDATA/LCD1602

_LCD1602WRITECMDORDATA/LCD1602         20H.4 20H.4  002DH 002DH  ----- -----  ----- -----
  +--> LCD1602WAIT/LCD1602

LCD1602WAIT/LCD1602                    20H.5 20H.5  ----- -----  ----- -----  ----- -----
  +--> DELAY40US/DELAY

DELAY40US/DELAY                        ----- -----  ----- -----  ----- -----  ----- -----

_GY_25SETCMD/GY_25                     ----- -----  0029H 0029H  ----- -----  ----- -----
  +--> _UART4_SEND8/UART

_UART4_SEND8/UART                      ----- -----  ----- -----  ----- -----  ----- -----

_CLOUDRESEND/CLOUDHANDLE               ----- -----  0023H 0024H  ----- -----  072BH 072EH
  +--> CLOUDHANDLE
  +--> _UART2_SENDSTR8/UART
  +--> CLOUDRECEIVE/CLOUDHANDLE

_UART2_SENDSTR8/UART                   ----- -----  0025H 0027H  ----- -----  ----- -----
  +--> _UART2_SEND8/UART

LX51 LINKER/LOCATER V4.66.93.0                                                        05/06/2020  16:02:27  PAGE 6


_UART2_SEND8/UART                      ----- -----  ----- -----  ----- -----  ----- -----

_CLOUDSEND/CLOUDHANDLE                 ----- -----  0023H 0023H  0001H 0004H  ----- -----
  +--> CLOUDHANDLE
  +--> PRINTF/PRINTF
  +--> _UART2_SENDSTR8/UART

PRINTF/PRINTF                          20H.2 21H.2  0024H 003FH  ----- -----  ----- -----
  +--> PUTCHAR/PUTCHAR

PUTCHAR/PUTCHAR                        ----- -----  ----- -----  ----- -----  ----- -----

DS18B20STINIT/DS18B20                  ----- -----  0022H 0023H  ----- -----  ----- -----
  +--> DS18B20INIT/DS18B20
  +--> _DS18B20WRITEBYTE/DS18B20
  +--> DS18B20READBYTE/DS18B20
  +--> DS18B20
  +--> DS18B20CONVERTTEMPERATURE/DS18B20
  +--> DELAY100MS/DELAY
  +--> DELAY200MS/DELAY
  +--> DELAY385MS/DELAY
  +--> DELAY765MS/DELAY
  +--> DS18B20GETTEMPERATURE/DS18B20

DS18B20INIT/DS18B20                    ----- -----  ----- -----  0006H 0006H  ----- -----
  +--> DELAY60US/DELAY
  +--> DELAY485US/DELAY
  +--> DELAY10US/DELAY
  +--> DELAY130US/DELAY

DELAY60US/DELAY                        ----- -----  ----- -----  ----- -----  ----- -----

DELAY485US/DELAY                       ----- -----  ----- -----  ----- -----  ----- -----

DELAY10US/DELAY                        ----- -----  ----- -----  ----- -----  ----- -----

DELAY130US/DELAY                       ----- -----  ----- -----  ----- -----  ----- -----

_DS18B20WRITEBYTE/DS18B20              ----- -----  0024H 0024H  0006H 0006H  ----- -----
  +--> DELAY1US/DELAY
  +--> DELAY60US/DELAY

DELAY1US/DELAY                         ----- -----  ----- -----  ----- -----  ----- -----

DS18B20READBYTE/DS18B20                ----- -----  ----- -----  0006H 0007H  ----- -----
  +--> DELAY10US/DELAY
  +--> DELAY1US/DELAY
  +--> DELAY60US/DELAY

DS18B20                                ----- -----  ----- -----  ----- -----  ----- -----

DS18B20CONVERTTEMPERATURE/DS18B20      ----- -----  ----- -----  ----- -----  ----- -----
  +--> DS18B20INIT/DS18B20
  +--> _DS18B20WRITEBYTE/DS18B20

DELAY100MS/DELAY                       ----- -----  ----- -----  ----- -----  ----- -----

DELAY200MS/DELAY                       ----- -----  ----- -----  ----- -----  ----- -----

DELAY385MS/DELAY                       ----- -----  ----- -----  ----- -----  ----- -----

DELAY765MS/DELAY                       ----- -----  ----- -----  ----- -----  ----- -----

DS18B20GETTEMPERATURE/DS18B20          ----- -----  ----- -----  0000H 0005H  ----- -----
  +--> DS18B20
LX51 LINKER/LOCATER V4.66.93.0                                                        05/06/2020  16:02:27  PAGE 7


  +--> DS18B20INIT/DS18B20
  +--> _DS18B20WRITEBYTE/DS18B20
  +--> DS18B20READBYTE/DS18B20

GY_25INIT/GY_25                        ----- -----  ----- -----  ----- -----  ----- -----
  +--> _GY_25SETCMD/GY_25
  +--> GY_25GETAZIMUTH/GY_25

GY_25GETAZIMUTH/GY_25                  20H.2 20H.2  ----- -----  ----- -----  ----- -----
  +--> GY_25

GY_25                                  ----- -----  ----- -----  ----- -----  ----- -----

LCD1602INIT/LCD1602                    ----- -----  ----- -----  ----- -----  ----- -----
  +--> _LCD1602WRITECMDORDATA/LCD1602
  +--> _LCD1602LOADWORD/LCD1602

_LCD1602LOADWORD/LCD1602               ----- -----  0022H 0026H  ----- -----  ----- -----
  +--> DELAY1MS/DELAY
  +--> _LCD1602SETCGRAM/LCD1602
  +--> _LCD1602WRITECMDORDATA/LCD1602

DELAY1MS/DELAY                         ----- -----  ----- -----  ----- -----  ----- -----

_LCD1602SETCGRAM/LCD1602               ----- -----  ----- -----  ----- -----  ----- -----
  +--> _LCD1602WRITECMDORDATA/LCD1602

CLOUDLOOP/CLOUDHANDLE                  ----- -----  ----- -----  ----- -----  ----- -----
  +--> CLOUDRECEIVE/CLOUDHANDLE
  +--> _CLOUDRESEND/CLOUDHANDLE
  +--> _CLOUDREPORT/CLOUDHANDLE
  +--> CLOUDHANDLE
  +--> _CLOUDSEND/CLOUDHANDLE
  +--> DS18B20GETTEMPERATURE/DS18B20
  +--> GY_25GETAZIMUTH/GY_25
  +--> DS18B20CONVERTTEMPERATURE/DS18B20
  +--> _GY_25SETCMD/GY_25

_CLOUDREPORT/CLOUDHANDLE               ----- -----  0022H 0022H  0000H 0000H  ----- -----
  +--> CLOUDHANDLE
  +--> _CLOUDSEND/CLOUDHANDLE
  +--> CLOUDRECEIVE/CLOUDHANDLE
  +--> _CLOUDRESEND/CLOUDHANDLE
  +--> PRINTF/PRINTF

?C_INITSEG                             ----- -----  ----- -----  ----- -----  ----- -----



PUBLIC SYMBOLS OF MODULE:  .\Objects\STC8_AlibabaCloud (MAIN)


      VALUE       CLASS    TYPE      PUBLIC SYMBOL NAME
      =================================================
      00000020H.4 BIT      BIT       ?_LCD1602WriteCmdOrData?BIT
      00000020H.3 BIT      BIT       ?_LCD1602WriteLine?BIT
      00000024H   DATA     ---       ?_PRINTF?BYTE
      00000024H   DATA     ---       ?_SPRINTF?BYTE
      00000029H   DATA     ---       ?_strncmp?BYTE
      00000029H   DATA     ---       ?_strstr?BYTE
      01000372H   CODE     ---       ?C?CASTF
      010006E1H   CODE     ---       ?C?CCASE
      010005AEH   CODE     ---       ?C?CLDOPTR
      01000595H   CODE     ---       ?C?CLDPTR
      00000000H   NUMBER   ---       ?C?CODESEG
LX51 LINKER/LOCATER V4.66.93.0                                                        05/06/2020  16:02:27  PAGE 8


      010007FFH   CODE     ---       ?C?COPYP2
      010005DBH   CODE     ---       ?C?CSTPTR
      0100033EH   CODE     ---       ?C?FCASTC
      01000339H   CODE     ---       ?C?FCASTI
      01000334H   CODE     ---       ?C?FCASTL
      0100009DH   CODE     ---       ?C?FPADD
      01000422H   CODE     ---       ?C?FPCONVERT
      01000297H   CODE     ---       ?C?FPDIV
      010003A9H   CODE     ---       ?C?FPGETOPN2
      0100018EH   CODE     ---       ?C?FPMUL
      010003DEH   CODE     ---       ?C?FPNANRESULT
      010003E8H   CODE     ---       ?C?FPOVERFLOW
      010003C0H   CODE     ---       ?C?FPRESULT
      010003D4H   CODE     ---       ?C?FPRESULT2
      010003F3H   CODE     ---       ?C?FPROUND
      01000099H   CODE     ---       ?C?FPSUB
      010003E5H   CODE     ---       ?C?FPUNDERFLOW
      01000555H   CODE     ---       ?C?FTNPWR
      010005EDH   CODE     ---       ?C?ILDIX
      01000684H   CODE     ---       ?C?LLDCODE0
      01000603H   CODE     ---       ?C?LMUL
      01000652H   CODE     ---       ?C?LNEG
      010006A0H   CODE     ---       ?C?LSTKXDATA
      01000694H   CODE     ---       ?C?LSTXDATA
      01000707H   CODE     ---       ?C?MEMSET
      010006D1H   CODE     ---       ?C?PLDIIDATA
      01000660H   CODE     ---       ?C?ULCMP
      01000671H   CODE     ---       ?C?ULSHR
      00000000H   NUMBER   ---       ?C?XDATASEG
      01001FF0H   CODE     ---       ?C_START
      01000000H   CODE     ---       ?C_STARTUP
*DEL*:00000000H   CODE     ---       _DS18B20Set
      010025AEH   CODE     ---       _GY_25SetCmd
      01000046H   CODE     ---       _Init_wkt
      0100263CH   CODE     ---       _LCD1602SetDDRAM
      01002557H   CODE     ---       _LCD1602WriteCmdOrData
      010022F8H   CODE     ---       _LCD1602WriteLine
      01000887H   CODE     ---       _PRINTF
      010024B0H   CODE     ---       _PUTCHAR
      01000881H   CODE     ---       _SPRINTF
      010021BEH   CODE     ---       _strncmp
      010020C0H   CODE     ---       _strstr
      010025E3H   CODE     ---       _uart2_send8
      010024D7H   CODE     ---       _uart2_sendstr8
      010025EEH   CODE     ---       _uart4_send8
*SFR* 000000D0H.6 DATA     BIT       AC
*SFR* 000000E0H   DATA     BYTE      ACC
*SFR* 000000BCH   DATA     BYTE      ADC_CONTR
*SFR* 000000BDH   DATA     BYTE      ADC_RES
*SFR* 000000BEH   DATA     BYTE      ADC_RESL
*SFR* 000000DEH   DATA     BYTE      ADCCFG
      01002A95H   CONST    ---       ATCmd
      01002A00H   CONST    ---       ATCmd0
      01002A09H   CONST    ---       ATCmd1
      01002A64H   CONST    ---       ATCmd10
      01002A6EH   CONST    ---       ATCmd11
      01002A79H   CONST    ---       ATCmd12
      01002A83H   CONST    ---       ATCmd13
      01002A88H   CONST    ---       ATCmd14
      01002A8FH   CONST    ---       ATCmd15
      01002A12H   CONST    ---       ATCmd2
      01002A1AH   CONST    ---       ATCmd3
      01002A28H   CONST    ---       ATCmd4
      01002A33H   CONST    ---       ATCmd5
      01002A41H   CONST    ---       ATCmd6
LX51 LINKER/LOCATER V4.66.93.0                                                        05/06/2020  16:02:27  PAGE 9


      01002A4BH   CONST    ---       ATCmd7
      01002A53H   CONST    ---       ATCmd8
      01002A5BH   CONST    ---       ATCmd9
*SFR* 000000EFH   DATA     BYTE      AUXINTIF
*SFR* 0000008EH   DATA     BYTE      AUXR
*SFR* 00000097H   DATA     BYTE      AUXR2
*SFR* 000000F0H   DATA     BYTE      B
*SFR* 000000A1H   DATA     BYTE      BUS_SPEED
*SFR* 000000FAH   DATA     BYTE      CCAP0H
*SFR* 000000EAH   DATA     BYTE      CCAP0L
*SFR* 000000FBH   DATA     BYTE      CCAP1H
*SFR* 000000EBH   DATA     BYTE      CCAP1L
*SFR* 000000FCH   DATA     BYTE      CCAP2H
*SFR* 000000ECH   DATA     BYTE      CCAP2L
*SFR* 000000FDH   DATA     BYTE      CCAP3H
*SFR* 000000EDH   DATA     BYTE      CCAP3L
*SFR* 000000DAH   DATA     BYTE      CCAPM0
*SFR* 000000DBH   DATA     BYTE      CCAPM1
*SFR* 000000DCH   DATA     BYTE      CCAPM2
*SFR* 000000DDH   DATA     BYTE      CCAPM3
*SFR* 000000D8H.0 DATA     BIT       CCF0
*SFR* 000000D8H.1 DATA     BIT       CCF1
*SFR* 000000D8H.2 DATA     BIT       CCF2
*SFR* 000000D8H.3 DATA     BIT       CCF3
*SFR* 000000D8H   DATA     BYTE      CCON
*SFR* 000000D8H.7 DATA     BIT       CF
*SFR* 000000F9H   DATA     BYTE      CH
*SFR* 000000E9H   DATA     BYTE      CL
      02000080H   XDATA    ---       CloudAct
      010013B8H   CODE     ---       CloudInit
      0100177FH   CODE     ---       CloudLoop
*SFR* 000000D9H   DATA     BYTE      CMOD
*SFR* 000000E6H   DATA     BYTE      CMPCR1
*SFR* 000000E7H   DATA     BYTE      CMPCR2
*SFR* 000000D8H.6 DATA     BIT       CR
*SFR* 000000D0H.7 DATA     BIT       CY
      010025BCH   CODE     ---       Delay100ms
      01002644H   CODE     ---       Delay10us
      01002618H   CODE     ---       Delay130us
      01002622H   CODE     ---       Delay1ms
      0100003DH   CODE     ---       Delay1us
      010025C9H   CODE     ---       Delay200ms
      0100259FH   CODE     ---       Delay385ms
      0100260EH   CODE     ---       Delay40us
*DEL*:00000000H   CODE     ---       Delay45us
      0100008AH   CODE     ---       Delay485us
      010025F9H   CODE     ---       Delay60us
      010025D6H   CODE     ---       Delay765ms
      010028C9H   CONST    ---       DeviceName
*SFR* 00000083H   DATA     BYTE      DPH
*SFR* 000000E5H   DATA     BYTE      DPH1
*SFR* 00000082H   DATA     BYTE      DPL
*SFR* 000000E4H   DATA     BYTE      DPL1
*SFR* 000000E3H   DATA     BYTE      DPS
*SFR* 000000C0H.1 DATA     BIT       DS18B20_DATA
      0100256AH   CODE     ---       DS18B20ConvertTemperature
      01002AC5H   CONST    ---       DS18B20ConvertTMaxTime
      01001AABH   CODE     ---       DS18B20GetTemperature
      01002ACDH   CONST    ---       DS18B20ReTransfrom
      02000720H   XDATA    ---       DS18B20ST
      01001E25H   CODE     ---       DS18B20STInit
*SFR* 000000A8H.7 DATA     BIT       EA
*SFR* 000000A8H.5 DATA     BIT       EADC
*SFR* 000000A8H.6 DATA     BIT       ELVD
*SFR* 000000A8H.4 DATA     BIT       ES
LX51 LINKER/LOCATER V4.66.93.0                                                        05/06/2020  16:02:27  PAGE 10


*SFR* 000000A8H.1 DATA     BIT       ET0
*SFR* 000000A8H.3 DATA     BIT       ET1
      010029A9H   CONST    ---       Event_1
      010029D2H   CONST    BYTE      Event_1_Len
      010029BDH   CONST    ---       Event_2
      010029D3H   CONST    BYTE      Event_2_Len
*SFR* 000000A8H.0 DATA     BIT       EX0
*SFR* 000000A8H.2 DATA     BIT       EX1
*SFR* 000000D0H.5 DATA     BIT       F0
      01001C1EH   CODE     ---       GY_25GetAzimuth
      0100242CH   CODE     ---       GY_25Init
      0200071AH   XDATA    ---       GY_25ST
*SFR* 000000C3H   DATA     BYTE      IAP_ADDRH
*SFR* 000000C4H   DATA     BYTE      IAP_ADDRL
*SFR* 000000C5H   DATA     BYTE      IAP_CMD
*SFR* 000000C7H   DATA     BYTE      IAP_CONTR
*SFR* 000000C2H   DATA     BYTE      IAP_DATA
*SFR* 000000C6H   DATA     BYTE      IAP_TRIG
*SFR* 000000A8H   DATA     BYTE      IE
*SFR* 00000088H.1 DATA     BIT       IE0
*SFR* 00000088H.3 DATA     BIT       IE1
*SFR* 000000AFH   DATA     BYTE      IE2
      01002485H   CODE     ---       Init
      01002521H   CODE     ---       Init_interrupt
      010024FCH   CODE     ---       Init_io
      01002604H   CODE     ---       Init_rst
      0100258EH   CODE     ---       Init_timer0
      01002365H   CODE     ---       Init_uart2
      010023CEH   CODE     ---       Init_uart4
*SFR* 0000008FH   DATA     BYTE      INTCLKO
*SFR* 000000B8H   DATA     BYTE      IP
*SFR* 000000B5H   DATA     BYTE      IP2
*SFR* 000000B6H   DATA     BYTE      IP2H
*SFR* 000000B7H   DATA     BYTE      IPH
*SFR* 000000C3H   DATA     BYTE      ISP_ADDRH
*SFR* 000000C4H   DATA     BYTE      ISP_ADDRL
*SFR* 000000C5H   DATA     BYTE      ISP_CMD
*SFR* 000000C7H   DATA     BYTE      ISP_CONTR
*SFR* 000000C2H   DATA     BYTE      ISP_DATA
*SFR* 000000C6H   DATA     BYTE      ISP_TRIG
*SFR* 00000088H.0 DATA     BIT       IT0
*SFR* 00000088H.2 DATA     BIT       IT1
*SFR* 000000A0H.7 DATA     BIT       LCD1602_Busy
*SFR* 000000B0H.2 DATA     BIT       LCD1602_EN
*SFR* 000000B0H.5 DATA     BIT       LCD1602_RS
*SFR* 000000B0H.4 DATA     BIT       LCD1602_RW
      0100239AH   CODE     ---       LCD1602Init
*DEL*:00000000H   CODE     ---       LCD1602ReadData
*DEL*:00000000H   CODE     ---       LCD1602ReadIdx
      01002AE5H   CONST    ---       LCD1602Word_Heart
      01002ADDH   CONST    ---       LCD1602Word_Temperature
*SFR* 00000080H.7 DATA     BIT       LED_BLUE
*SFR* 00000090H.1 DATA     BIT       LED_GREEN
*SFR* 00000090H.0 DATA     BIT       LED_RED
      01000003H   CODE     ---       main
      010029A2H   CONST    ---       MQTTAutoReConect
      010029A5H   CONST    ---       MQTTAutoStart
      01002966H   CONST    ---       MQTTClientID
      0100299FH   CONST    ---       MQTTHeartBeat
      01002930H   CONST    ---       MQTTHost
      01002907H   CONST    ---       MQTTPassword
      01002961H   CONST    ---       MQTTPort
      010028F3H   CONST    ---       MQTTUser
*SFR* 000000D0H.2 DATA     BIT       OV
*SFR* 000000D0H.0 DATA     BIT       P
LX51 LINKER/LOCATER V4.66.93.0                                                        05/06/2020  16:02:27  PAGE 11


*SFR* 00000080H   DATA     BYTE      P0
*SFR* 00000080H.0 DATA     BIT       P00
*SFR* 00000080H.1 DATA     BIT       P01
*SFR* 00000080H.2 DATA     BIT       P02
*SFR* 00000080H.3 DATA     BIT       P03
*SFR* 00000080H.4 DATA     BIT       P04
*SFR* 00000080H.5 DATA     BIT       P05
*SFR* 00000080H.6 DATA     BIT       P06
*SFR* 00000080H.7 DATA     BIT       P07
*SFR* 00000094H   DATA     BYTE      P0M0
*SFR* 00000093H   DATA     BYTE      P0M1
*SFR* 00000090H   DATA     BYTE      P1
*SFR* 00000090H.0 DATA     BIT       P10
*SFR* 00000090H.1 DATA     BIT       P11
*SFR* 00000090H.2 DATA     BIT       P12
*SFR* 00000090H.3 DATA     BIT       P13
*SFR* 00000090H.4 DATA     BIT       P14
*SFR* 00000090H.5 DATA     BIT       P15
*SFR* 00000090H.6 DATA     BIT       P16
*SFR* 00000090H.7 DATA     BIT       P17
*SFR* 00000092H   DATA     BYTE      P1M0
*SFR* 00000091H   DATA     BYTE      P1M1
*SFR* 000000A0H   DATA     BYTE      P2
*SFR* 000000A0H.0 DATA     BIT       P20
*SFR* 000000A0H.1 DATA     BIT       P21
*SFR* 000000A0H.2 DATA     BIT       P22
*SFR* 000000A0H.3 DATA     BIT       P23
*SFR* 000000A0H.4 DATA     BIT       P24
*SFR* 000000A0H.5 DATA     BIT       P25
*SFR* 000000A0H.6 DATA     BIT       P26
*SFR* 000000A0H.7 DATA     BIT       P27
*SFR* 00000096H   DATA     BYTE      P2M0
*SFR* 00000095H   DATA     BYTE      P2M1
*SFR* 000000B0H   DATA     BYTE      P3
*SFR* 000000B0H.0 DATA     BIT       P30
*SFR* 000000B0H.1 DATA     BIT       P31
*SFR* 000000B0H.2 DATA     BIT       P32
*SFR* 000000B0H.3 DATA     BIT       P33
*SFR* 000000B0H.4 DATA     BIT       P34
*SFR* 000000B0H.5 DATA     BIT       P35
*SFR* 000000B0H.6 DATA     BIT       P36
*SFR* 000000B0H.7 DATA     BIT       P37
*SFR* 000000B2H   DATA     BYTE      P3M0
*SFR* 000000B1H   DATA     BYTE      P3M1
*SFR* 000000C0H   DATA     BYTE      P4
*SFR* 000000C0H.0 DATA     BIT       P40
*SFR* 000000C0H.1 DATA     BIT       P41
*SFR* 000000C0H.2 DATA     BIT       P42
*SFR* 000000C0H.3 DATA     BIT       P43
*SFR* 000000C0H.4 DATA     BIT       P44
*SFR* 000000C0H.5 DATA     BIT       P45
*SFR* 000000C0H.6 DATA     BIT       P46
*SFR* 000000C0H.7 DATA     BIT       P47
*SFR* 000000B4H   DATA     BYTE      P4M0
*SFR* 000000B3H   DATA     BYTE      P4M1
*SFR* 000000C8H   DATA     BYTE      P5
*SFR* 000000C8H.0 DATA     BIT       P50
*SFR* 000000C8H.1 DATA     BIT       P51
*SFR* 000000C8H.2 DATA     BIT       P52
*SFR* 000000C8H.3 DATA     BIT       P53
*SFR* 000000C8H.4 DATA     BIT       P54
*SFR* 000000C8H.5 DATA     BIT       P55
*SFR* 000000C8H.6 DATA     BIT       P56
*SFR* 000000C8H.7 DATA     BIT       P57
*SFR* 000000CAH   DATA     BYTE      P5M0
LX51 LINKER/LOCATER V4.66.93.0                                                        05/06/2020  16:02:27  PAGE 12


*SFR* 000000C9H   DATA     BYTE      P5M1
*SFR* 000000E8H   DATA     BYTE      P6
*SFR* 000000E8H.0 DATA     BIT       P60
*SFR* 000000E8H.1 DATA     BIT       P61
*SFR* 000000E8H.2 DATA     BIT       P62
*SFR* 000000E8H.3 DATA     BIT       P63
*SFR* 000000E8H.4 DATA     BIT       P64
*SFR* 000000E8H.5 DATA     BIT       P65
*SFR* 000000E8H.6 DATA     BIT       P66
*SFR* 000000E8H.7 DATA     BIT       P67
*SFR* 000000CCH   DATA     BYTE      P6M0
*SFR* 000000CBH   DATA     BYTE      P6M1
*SFR* 000000F8H   DATA     BYTE      P7
*SFR* 000000F8H.0 DATA     BIT       P70
*SFR* 000000F8H.1 DATA     BIT       P71
*SFR* 000000F8H.2 DATA     BIT       P72
*SFR* 000000F8H.3 DATA     BIT       P73
*SFR* 000000F8H.4 DATA     BIT       P74
*SFR* 000000F8H.5 DATA     BIT       P75
*SFR* 000000F8H.6 DATA     BIT       P76
*SFR* 000000F8H.7 DATA     BIT       P77
*SFR* 000000E2H   DATA     BYTE      P7M0
*SFR* 000000E1H   DATA     BYTE      P7M1
*SFR* 000000A2H   DATA     BYTE      P_SW1
*SFR* 000000BAH   DATA     BYTE      P_SW2
*SFR* 000000B8H.5 DATA     BIT       PADC
*SFR* 000000F2H   DATA     BYTE      PCA_PWM0
*SFR* 000000F3H   DATA     BYTE      PCA_PWM1
*SFR* 000000F4H   DATA     BYTE      PCA_PWM2
*SFR* 000000F5H   DATA     BYTE      PCA_PWM3
*SFR* 00000087H   DATA     BYTE      PCON
*SFR* 000000B8H.6 DATA     BIT       PLVD
*SFR* 000000B8H.7 DATA     BIT       PPCA
      010028D1H   CONST    ---       ProductKey
*SFR* 000000B8H.4 DATA     BIT       PS
*SFR* 000000D0H   DATA     BYTE      PSW
*SFR* 000000B8H.1 DATA     BIT       PT0
*SFR* 000000B8H.3 DATA     BIT       PT1
*SFR* 000000F1H   DATA     BYTE      PWMCFG
*SFR* 000000FEH   DATA     BYTE      PWMCR
*SFR* 000000F7H   DATA     BYTE      PWMFDCR
*SFR* 000000F6H   DATA     BYTE      PWMIF
*SFR* 000000B8H.0 DATA     BIT       PX0
*SFR* 000000B8H.2 DATA     BIT       PX1
*SFR* 00000098H.2 DATA     BIT       RB8
*SFR* 00000098H.4 DATA     BIT       REN
*SFR* 00000098H.0 DATA     BIT       RI
*SFR* 000000D0H.3 DATA     BIT       RS0
*SFR* 000000D0H.4 DATA     BIT       RS1
*SFR* 000000FFH   DATA     BYTE      RSTCFG
*SFR* 0000009BH   DATA     BYTE      S2BUF
*SFR* 0000009AH   DATA     BYTE      S2CON
*SFR* 000000ADH   DATA     BYTE      S3BUF
*SFR* 000000ACH   DATA     BYTE      S3CON
*SFR* 00000085H   DATA     BYTE      S4BUF
*SFR* 00000084H   DATA     BYTE      S4CON
*SFR* 000000A9H   DATA     BYTE      SADDR
*SFR* 000000B9H   DATA     BYTE      SADEN
*SFR* 00000099H   DATA     BYTE      SBUF
*SFR* 00000098H   DATA     BYTE      SCON
      010029D4H   CONST    ---       Service_1
      010029E3H   CONST    BYTE      Service_1_Len
      010029E4H   CONST    ---       Service_2
      010029F3H   CONST    BYTE      Service_2_Len
      010029F4H   CONST    ---       Service_3
LX51 LINKER/LOCATER V4.66.93.0                                                        05/06/2020  16:02:27  PAGE 13


      010029FFH   CONST    BYTE      Service_3_Len
*SFR* 00000098H.7 DATA     BIT       SM0
*SFR* 00000098H.6 DATA     BIT       SM1
*SFR* 00000098H.5 DATA     BIT       SM2
*SFR* 00000081H   DATA     BYTE      SP
*SFR* 000000CEH   DATA     BYTE      SPCTL
*SFR* 000000CFH   DATA     BYTE      SPDAT
*SFR* 000000CDH   DATA     BYTE      SPSTAT
*SFR* 000000D6H   DATA     BYTE      T2H
*SFR* 000000D7H   DATA     BYTE      T2L
*SFR* 000000D4H   DATA     BYTE      T3H
*SFR* 000000D5H   DATA     BYTE      T3L
*SFR* 000000D2H   DATA     BYTE      T4H
*SFR* 000000D3H   DATA     BYTE      T4L
*SFR* 000000D1H   DATA     BYTE      T4T3M
*SFR* 000000AEH   DATA     BYTE      TA
*SFR* 00000098H.3 DATA     BIT       TB8
*SFR* 00000088H   DATA     BYTE      TCON
*SFR* 00000088H.5 DATA     BIT       TF0
*SFR* 00000088H.7 DATA     BIT       TF1
*SFR* 0000008CH   DATA     BYTE      TH0
*SFR* 0000008DH   DATA     BYTE      TH1
*SFR* 000000D6H   DATA     BYTE      TH2
*SFR* 000000D4H   DATA     BYTE      TH3
*SFR* 000000D2H   DATA     BYTE      TH4
*SFR* 00000098H.1 DATA     BIT       TI
*SFR* 0000008AH   DATA     BYTE      TL0
*SFR* 0000008BH   DATA     BYTE      TL1
*SFR* 000000D7H   DATA     BYTE      TL2
*SFR* 000000D5H   DATA     BYTE      TL3
*SFR* 000000D3H   DATA     BYTE      TL4
      0100222DH   CODE     ---       TM0_ISR
*SFR* 00000089H   DATA     BYTE      TMOD
*SFR* 00000088H.4 DATA     BIT       TR0
*SFR* 00000088H.6 DATA     BIT       TR1
      01002634H   CODE     ---       UART1_ISR
      00000021H.3 BIT      BIT       uart1Busy
      01002035H   CODE     ---       UART2_ISR
      0200049CH   XDATA    ---       uart2Buffer
      00000021H.4 BIT      BIT       uart2Busy
      00000008H   DATA     WORD      uart2Idx1
      0000000AH   DATA     WORD      uart2Idx2
      01002142H   CODE     ---       UART4_ISR
      020006F4H   XDATA    ---       uart4Buffer
      00000021H.5 BIT      BIT       uart4Busy
      0000000CH   DATA     BYTE      uart4Idx1
      0000000DH   DATA     BYTE      uart4Idx2
*SFR* 000000BBH   DATA     BYTE      VOCTRL
*SFR* 000000C1H   DATA     BYTE      WDT_CONTR
      010028EAH   CONST    ---       WiFiPassword
      010028DDH   CONST    ---       WiFiSSID
*SFR* 000000ABH   DATA     BYTE      WKTCH
*SFR* 000000AAH   DATA     BYTE      WKTCL



SYMBOL TABLE OF MODULE:  .\Objects\STC8_AlibabaCloud (MAIN)

      VALUE       REP       CLASS    TYPE      SYMBOL NAME
      ====================================================
      ---         MODULE    ---      ---       MAIN
      01000003H   PUBLIC    CODE     ---       main
      000000D8H.2 SFRSYM    DATA     BIT       CCF2
      00000092H   SFRSYM    DATA     BYTE      P1M0
      00000093H   SFRSYM    DATA     BYTE      P0M1
LX51 LINKER/LOCATER V4.66.93.0                                                        05/06/2020  16:02:27  PAGE 14


      000000D8H.3 SFRSYM    DATA     BIT       CCF3
      00000096H   SFRSYM    DATA     BYTE      P2M0
      00000091H   SFRSYM    DATA     BYTE      P1M1
      00000080H   SFRSYM    DATA     BYTE      P0
      000000B2H   SFRSYM    DATA     BYTE      P3M0
      00000095H   SFRSYM    DATA     BYTE      P2M1
      00000090H   SFRSYM    DATA     BYTE      P1
      000000B4H   SFRSYM    DATA     BYTE      P4M0
      000000B1H   SFRSYM    DATA     BYTE      P3M1
      000000A0H   SFRSYM    DATA     BYTE      P2
      000000ABH   SFRSYM    DATA     BYTE      WKTCH
      000000CAH   SFRSYM    DATA     BYTE      P5M0
      000000B3H   SFRSYM    DATA     BYTE      P4M1
      000000B0H   SFRSYM    DATA     BYTE      P3
      000000CCH   SFRSYM    DATA     BYTE      P6M0
      000000C9H   SFRSYM    DATA     BYTE      P5M1
      000000C0H   SFRSYM    DATA     BYTE      P4
      000000D0H.6 SFRSYM    DATA     BIT       AC
      000000F6H   SFRSYM    DATA     BYTE      PWMIF
      000000C6H   SFRSYM    DATA     BYTE      ISP_TRIG
      000000E2H   SFRSYM    DATA     BYTE      P7M0
      000000CBH   SFRSYM    DATA     BYTE      P6M1
      000000C8H   SFRSYM    DATA     BYTE      P5
      000000A8H.7 SFRSYM    DATA     BIT       EA
      000000E1H   SFRSYM    DATA     BYTE      P7M1
      000000E8H   SFRSYM    DATA     BYTE      P6
      000000AAH   SFRSYM    DATA     BYTE      WKTCL
      000000F8H   SFRSYM    DATA     BYTE      P7
      000000CEH   SFRSYM    DATA     BYTE      SPCTL
      000000D8H.7 SFRSYM    DATA     BIT       CF
      000000FEH   SFRSYM    DATA     BYTE      PWMCR
      000000F9H   SFRSYM    DATA     BYTE      CH
      000000A2H   SFRSYM    DATA     BYTE      P_SW1
      000000BAH   SFRSYM    DATA     BYTE      P_SW2
      000000A8H.5 SFRSYM    DATA     BIT       EADC
      000000A8H   SFRSYM    DATA     BYTE      IE
      000000E5H   SFRSYM    DATA     BYTE      DPH1
      000000E9H   SFRSYM    DATA     BYTE      CL
      000000C5H   SFRSYM    DATA     BYTE      IAP_CMD
      000000FAH   SFRSYM    DATA     BYTE      CCAP0H
      000000B0H.2 SFRSYM    DATA     BIT       LCD1602_EN
      00000090H.0 SFRSYM    DATA     BIT       LED_RED
      000000FBH   SFRSYM    DATA     BYTE      CCAP1H
      000000E4H   SFRSYM    DATA     BYTE      DPL1
      000000FCH   SFRSYM    DATA     BYTE      CCAP2H
      000000FDH   SFRSYM    DATA     BYTE      CCAP3H
      000000BDH   SFRSYM    DATA     BYTE      ADC_RES
      000000B6H   SFRSYM    DATA     BYTE      IP2H
      000000EAH   SFRSYM    DATA     BYTE      CCAP0L
      000000D8H.6 SFRSYM    DATA     BIT       CR
      000000AEH   SFRSYM    DATA     BYTE      TA
      000000F7H   SFRSYM    DATA     BYTE      PWMFDCR
      000000EBH   SFRSYM    DATA     BYTE      CCAP1L
      000000DAH   SFRSYM    DATA     BYTE      CCAPM0
      000000ECH   SFRSYM    DATA     BYTE      CCAP2L
      000000DBH   SFRSYM    DATA     BYTE      CCAPM1
      0000008FH   SFRSYM    DATA     BYTE      INTCLKO
      000000EDH   SFRSYM    DATA     BYTE      CCAP3L
      000000DCH   SFRSYM    DATA     BYTE      CCAPM2
      000000A8H.4 SFRSYM    DATA     BIT       ES
      000000DDH   SFRSYM    DATA     BYTE      CCAPM3
      000000B8H.5 SFRSYM    DATA     BIT       PADC
      000000B8H   SFRSYM    DATA     BYTE      IP
      000000DEH   SFRSYM    DATA     BYTE      ADCCFG
      00000098H.0 SFRSYM    DATA     BIT       RI
LX51 LINKER/LOCATER V4.66.93.0                                                        05/06/2020  16:02:27  PAGE 15


      000000D0H.7 SFRSYM    DATA     BIT       CY
      00000098H.1 SFRSYM    DATA     BIT       TI
      000000C3H   SFRSYM    DATA     BYTE      IAP_ADDRH
      000000C0H.1 SFRSYM    DATA     BIT       DS18B20_DATA
      000000C5H   SFRSYM    DATA     BYTE      ISP_CMD
      000000B8H.4 SFRSYM    DATA     BIT       PS
      00000081H   SFRSYM    DATA     BYTE      SP
      000000A0H.7 SFRSYM    DATA     BIT       LCD1602_Busy
      000000B0H.5 SFRSYM    DATA     BIT       LCD1602_RS
      000000D9H   SFRSYM    DATA     BYTE      CMOD
      000000D8H   SFRSYM    DATA     BYTE      CCON
      000000C4H   SFRSYM    DATA     BYTE      IAP_ADDRL
      000000B8H.7 SFRSYM    DATA     BIT       PPCA
      000000D0H.2 SFRSYM    DATA     BIT       OV
      000000B0H.4 SFRSYM    DATA     BIT       LCD1602_RW
      000000E6H   SFRSYM    DATA     BYTE      CMPCR1
      00000090H.1 SFRSYM    DATA     BIT       LED_GREEN
      000000E7H   SFRSYM    DATA     BYTE      CMPCR2
      000000A8H.6 SFRSYM    DATA     BIT       ELVD
      00000080H.0 SFRSYM    DATA     BIT       P00
      000000BCH   SFRSYM    DATA     BYTE      ADC_CONTR
      00000099H   SFRSYM    DATA     BYTE      SBUF
      00000087H   SFRSYM    DATA     BYTE      PCON
      00000090H.0 SFRSYM    DATA     BIT       P10
      00000080H.1 SFRSYM    DATA     BIT       P01
      000000C3H   SFRSYM    DATA     BYTE      ISP_ADDRH
      000000A0H.0 SFRSYM    DATA     BIT       P20
      00000090H.1 SFRSYM    DATA     BIT       P11
      00000080H.2 SFRSYM    DATA     BIT       P02
      000000B0H.0 SFRSYM    DATA     BIT       P30
      000000A0H.1 SFRSYM    DATA     BIT       P21
      00000090H.2 SFRSYM    DATA     BIT       P12
      00000080H.3 SFRSYM    DATA     BIT       P03
      00000098H   SFRSYM    DATA     BYTE      SCON
      000000C0H.0 SFRSYM    DATA     BIT       P40
      000000B0H.1 SFRSYM    DATA     BIT       P31
      000000A0H.2 SFRSYM    DATA     BIT       P22
      00000090H.3 SFRSYM    DATA     BIT       P13
      00000080H.4 SFRSYM    DATA     BIT       P04
      00000089H   SFRSYM    DATA     BYTE      TMOD
      00000088H   SFRSYM    DATA     BYTE      TCON
      000000C8H.0 SFRSYM    DATA     BIT       P50
      000000C0H.1 SFRSYM    DATA     BIT       P41
      000000B0H.2 SFRSYM    DATA     BIT       P32
      000000A0H.3 SFRSYM    DATA     BIT       P23
      00000090H.4 SFRSYM    DATA     BIT       P14
      00000080H.5 SFRSYM    DATA     BIT       P05
      000000C4H   SFRSYM    DATA     BYTE      ISP_ADDRL
      000000E8H.0 SFRSYM    DATA     BIT       P60
      000000C8H.1 SFRSYM    DATA     BIT       P51
      000000C0H.2 SFRSYM    DATA     BIT       P42
      000000B0H.3 SFRSYM    DATA     BIT       P33
      000000A0H.4 SFRSYM    DATA     BIT       P24
      00000090H.5 SFRSYM    DATA     BIT       P15
      00000080H.6 SFRSYM    DATA     BIT       P06
      000000B8H.6 SFRSYM    DATA     BIT       PLVD
      000000F8H.0 SFRSYM    DATA     BIT       P70
      000000E8H.1 SFRSYM    DATA     BIT       P61
      000000C8H.2 SFRSYM    DATA     BIT       P52
      000000C0H.3 SFRSYM    DATA     BIT       P43
      000000B0H.4 SFRSYM    DATA     BIT       P34
      000000A0H.5 SFRSYM    DATA     BIT       P25
      00000090H.6 SFRSYM    DATA     BIT       P16
      00000080H.7 SFRSYM    DATA     BIT       P07
      000000F8H.1 SFRSYM    DATA     BIT       P71
LX51 LINKER/LOCATER V4.66.93.0                                                        05/06/2020  16:02:27  PAGE 16


      000000E8H.2 SFRSYM    DATA     BIT       P62
      000000C8H.3 SFRSYM    DATA     BIT       P53
      000000C0H.4 SFRSYM    DATA     BIT       P44
      000000B0H.5 SFRSYM    DATA     BIT       P35
      000000A0H.6 SFRSYM    DATA     BIT       P26
      00000090H.7 SFRSYM    DATA     BIT       P17
      000000F8H.2 SFRSYM    DATA     BIT       P72
      000000E8H.3 SFRSYM    DATA     BIT       P63
      000000C8H.4 SFRSYM    DATA     BIT       P54
      000000C0H.5 SFRSYM    DATA     BIT       P45
      000000B0H.6 SFRSYM    DATA     BIT       P36
      000000A0H.7 SFRSYM    DATA     BIT       P27
      000000F8H.3 SFRSYM    DATA     BIT       P73
      000000E8H.4 SFRSYM    DATA     BIT       P64
      000000C8H.5 SFRSYM    DATA     BIT       P55
      000000C0H.6 SFRSYM    DATA     BIT       P46
      000000B0H.7 SFRSYM    DATA     BIT       P37
      000000F8H.4 SFRSYM    DATA     BIT       P74
      000000E8H.5 SFRSYM    DATA     BIT       P65
      000000C8H.6 SFRSYM    DATA     BIT       P56
      000000C0H.7 SFRSYM    DATA     BIT       P47
      000000F8H.5 SFRSYM    DATA     BIT       P75
      000000E8H.6 SFRSYM    DATA     BIT       P66
      000000C8H.7 SFRSYM    DATA     BIT       P57
      000000F8H.6 SFRSYM    DATA     BIT       P76
      000000E8H.7 SFRSYM    DATA     BIT       P67
      00000088H.1 SFRSYM    DATA     BIT       IE0
      000000A1H   SFRSYM    DATA     BYTE      BUS_SPEED
      000000F8H.7 SFRSYM    DATA     BIT       P77
      00000088H.3 SFRSYM    DATA     BIT       IE1
      000000AFH   SFRSYM    DATA     BYTE      IE2
      0000008EH   SFRSYM    DATA     BYTE      AUXR
      000000F0H   SFRSYM    DATA     BYTE      B
      000000C7H   SFRSYM    DATA     BYTE      IAP_CONTR
      000000F1H   SFRSYM    DATA     BYTE      PWMCFG
      000000E0H   SFRSYM    DATA     BYTE      ACC
      000000A8H.1 SFRSYM    DATA     BIT       ET0
      00000088H.5 SFRSYM    DATA     BIT       TF0
      000000A8H.3 SFRSYM    DATA     BIT       ET1
      00000088H.7 SFRSYM    DATA     BIT       TF1
      000000B5H   SFRSYM    DATA     BYTE      IP2
      000000FFH   SFRSYM    DATA     BYTE      RSTCFG
      00000098H.2 SFRSYM    DATA     BIT       RB8
      0000008CH   SFRSYM    DATA     BYTE      TH0
      0000008DH   SFRSYM    DATA     BYTE      TH1
      00000088H.0 SFRSYM    DATA     BIT       IT0
      000000A8H.0 SFRSYM    DATA     BIT       EX0
      00000098H.3 SFRSYM    DATA     BIT       TB8
      000000D6H   SFRSYM    DATA     BYTE      TH2
      000000D6H   SFRSYM    DATA     BYTE      T2H
      00000088H.2 SFRSYM    DATA     BIT       IT1
      000000A8H.2 SFRSYM    DATA     BIT       EX1
      000000D4H   SFRSYM    DATA     BYTE      TH3
      000000D4H   SFRSYM    DATA     BYTE      T3H
      000000D0H.0 SFRSYM    DATA     BIT       P
      00000098H.7 SFRSYM    DATA     BIT       SM0
      000000D2H   SFRSYM    DATA     BYTE      TH4
      000000D2H   SFRSYM    DATA     BYTE      T4H
      0000008AH   SFRSYM    DATA     BYTE      TL0
      00000098H.6 SFRSYM    DATA     BIT       SM1
      0000008BH   SFRSYM    DATA     BYTE      TL1
      00000098H.5 SFRSYM    DATA     BIT       SM2
      000000D7H   SFRSYM    DATA     BYTE      TL2
      000000D7H   SFRSYM    DATA     BYTE      T2L
      000000D5H   SFRSYM    DATA     BYTE      TL3
LX51 LINKER/LOCATER V4.66.93.0                                                        05/06/2020  16:02:27  PAGE 17


      000000D5H   SFRSYM    DATA     BYTE      T3L
      000000D3H   SFRSYM    DATA     BYTE      TL4
      000000D3H   SFRSYM    DATA     BYTE      T4L
      000000B8H.1 SFRSYM    DATA     BIT       PT0
      000000C7H   SFRSYM    DATA     BYTE      ISP_CONTR
      000000B8H.3 SFRSYM    DATA     BIT       PT1
      000000D0H.3 SFRSYM    DATA     BIT       RS0
      000000C2H   SFRSYM    DATA     BYTE      IAP_DATA
      00000088H.4 SFRSYM    DATA     BIT       TR0
      000000D0H.4 SFRSYM    DATA     BIT       RS1
      00000088H.6 SFRSYM    DATA     BIT       TR1
      000000C1H   SFRSYM    DATA     BYTE      WDT_CONTR
      000000B8H.0 SFRSYM    DATA     BIT       PX0
      000000B8H.2 SFRSYM    DATA     BIT       PX1
      000000F2H   SFRSYM    DATA     BYTE      PCA_PWM0
      000000F3H   SFRSYM    DATA     BYTE      PCA_PWM1
      000000F4H   SFRSYM    DATA     BYTE      PCA_PWM2
      000000BBH   SFRSYM    DATA     BYTE      VOCTRL
      00000083H   SFRSYM    DATA     BYTE      DPH
      000000F5H   SFRSYM    DATA     BYTE      PCA_PWM3
      000000D1H   SFRSYM    DATA     BYTE      T4T3M
      00000080H.7 SFRSYM    DATA     BIT       LED_BLUE
      000000BEH   SFRSYM    DATA     BYTE      ADC_RESL
      00000082H   SFRSYM    DATA     BYTE      DPL
      000000CDH   SFRSYM    DATA     BYTE      SPSTAT
      000000B7H   SFRSYM    DATA     BYTE      IPH
      0000009BH   SFRSYM    DATA     BYTE      S2BUF
      000000ADH   SFRSYM    DATA     BYTE      S3BUF
      00000085H   SFRSYM    DATA     BYTE      S4BUF
      00000098H.4 SFRSYM    DATA     BIT       REN
      0000009AH   SFRSYM    DATA     BYTE      S2CON
      000000ACH   SFRSYM    DATA     BYTE      S3CON
      000000E3H   SFRSYM    DATA     BYTE      DPS
      000000C2H   SFRSYM    DATA     BYTE      ISP_DATA
      00000084H   SFRSYM    DATA     BYTE      S4CON
      000000EFH   SFRSYM    DATA     BYTE      AUXINTIF
      000000B9H   SFRSYM    DATA     BYTE      SADEN
      000000A9H   SFRSYM    DATA     BYTE      SADDR
      000000C6H   SFRSYM    DATA     BYTE      IAP_TRIG
      00000097H   SFRSYM    DATA     BYTE      AUXR2
      000000D0H.5 SFRSYM    DATA     BIT       F0
      000000D0H   SFRSYM    DATA     BYTE      PSW
      000000D8H.0 SFRSYM    DATA     BIT       CCF0
      000000D8H.1 SFRSYM    DATA     BIT       CCF1
      000000CFH   SFRSYM    DATA     BYTE      SPDAT
      00000094H   SFRSYM    DATA     BYTE      P0M0

      01000003H   BLOCK     CODE     ---       LVL=0
      01000003H   LINE      CODE     ---       #3
      01000003H   LINE      CODE     ---       #4
      01000003H   LINE      CODE     ---       #5
      01000006H   LINE      CODE     ---       #6
      01000006H   LINE      CODE     ---       #7
      01000006H   LINE      CODE     ---       #8
      01000009H   LINE      CODE     ---       #9
      ---         BLOCKEND  ---      ---       LVL=0

      ---         MODULE    ---      ---       ISR
      01002142H   PUBLIC    CODE     ---       UART4_ISR
      01002035H   PUBLIC    CODE     ---       UART2_ISR
      01002634H   PUBLIC    CODE     ---       UART1_ISR
      0100222DH   PUBLIC    CODE     ---       TM0_ISR
      000000D8H.2 SFRSYM    DATA     BIT       CCF2
      00000092H   SFRSYM    DATA     BYTE      P1M0
      00000093H   SFRSYM    DATA     BYTE      P0M1
LX51 LINKER/LOCATER V4.66.93.0                                                        05/06/2020  16:02:27  PAGE 18


      000000D8H.3 SFRSYM    DATA     BIT       CCF3
      00000096H   SFRSYM    DATA     BYTE      P2M0
      00000091H   SFRSYM    DATA     BYTE      P1M1
      00000080H   SFRSYM    DATA     BYTE      P0
      000000B2H   SFRSYM    DATA     BYTE      P3M0
      00000095H   SFRSYM    DATA     BYTE      P2M1
      00000090H   SFRSYM    DATA     BYTE      P1
      000000B4H   SFRSYM    DATA     BYTE      P4M0
      000000B1H   SFRSYM    DATA     BYTE      P3M1
      000000A0H   SFRSYM    DATA     BYTE      P2
      000000ABH   SFRSYM    DATA     BYTE      WKTCH
      000000CAH   SFRSYM    DATA     BYTE      P5M0
      000000B3H   SFRSYM    DATA     BYTE      P4M1
      000000B0H   SFRSYM    DATA     BYTE      P3
      000000CCH   SFRSYM    DATA     BYTE      P6M0
      000000C9H   SFRSYM    DATA     BYTE      P5M1
      000000C0H   SFRSYM    DATA     BYTE      P4
      000000D0H.6 SFRSYM    DATA     BIT       AC
      000000F6H   SFRSYM    DATA     BYTE      PWMIF
      000000C6H   SFRSYM    DATA     BYTE      ISP_TRIG
      000000E2H   SFRSYM    DATA     BYTE      P7M0
      000000CBH   SFRSYM    DATA     BYTE      P6M1
      000000C8H   SFRSYM    DATA     BYTE      P5
      000000A8H.7 SFRSYM    DATA     BIT       EA
      000000E1H   SFRSYM    DATA     BYTE      P7M1
      000000E8H   SFRSYM    DATA     BYTE      P6
      000000AAH   SFRSYM    DATA     BYTE      WKTCL
      000000F8H   SFRSYM    DATA     BYTE      P7
      000000CEH   SFRSYM    DATA     BYTE      SPCTL
      000000D8H.7 SFRSYM    DATA     BIT       CF
      000000FEH   SFRSYM    DATA     BYTE      PWMCR
      000000F9H   SFRSYM    DATA     BYTE      CH
      000000A2H   SFRSYM    DATA     BYTE      P_SW1
      000000BAH   SFRSYM    DATA     BYTE      P_SW2
      000000A8H.5 SFRSYM    DATA     BIT       EADC
      000000A8H   SFRSYM    DATA     BYTE      IE
      000000E5H   SFRSYM    DATA     BYTE      DPH1
      000000E9H   SFRSYM    DATA     BYTE      CL
      000000C5H   SFRSYM    DATA     BYTE      IAP_CMD
      000000FAH   SFRSYM    DATA     BYTE      CCAP0H
      000000B0H.2 SFRSYM    DATA     BIT       LCD1602_EN
      00000090H.0 SFRSYM    DATA     BIT       LED_RED
      000000FBH   SFRSYM    DATA     BYTE      CCAP1H
      000000E4H   SFRSYM    DATA     BYTE      DPL1
      000000FCH   SFRSYM    DATA     BYTE      CCAP2H
      000000FDH   SFRSYM    DATA     BYTE      CCAP3H
      000000BDH   SFRSYM    DATA     BYTE      ADC_RES
      000000B6H   SFRSYM    DATA     BYTE      IP2H
      000000EAH   SFRSYM    DATA     BYTE      CCAP0L
      000000D8H.6 SFRSYM    DATA     BIT       CR
      000000AEH   SFRSYM    DATA     BYTE      TA
      000000F7H   SFRSYM    DATA     BYTE      PWMFDCR
      000000EBH   SFRSYM    DATA     BYTE      CCAP1L
      000000DAH   SFRSYM    DATA     BYTE      CCAPM0
      000000ECH   SFRSYM    DATA     BYTE      CCAP2L
      000000DBH   SFRSYM    DATA     BYTE      CCAPM1
      0000008FH   SFRSYM    DATA     BYTE      INTCLKO
      000000EDH   SFRSYM    DATA     BYTE      CCAP3L
      000000DCH   SFRSYM    DATA     BYTE      CCAPM2
      000000A8H.4 SFRSYM    DATA     BIT       ES
      000000DDH   SFRSYM    DATA     BYTE      CCAPM3
      000000B8H.5 SFRSYM    DATA     BIT       PADC
      000000B8H   SFRSYM    DATA     BYTE      IP
      000000DEH   SFRSYM    DATA     BYTE      ADCCFG
      00000098H.0 SFRSYM    DATA     BIT       RI
LX51 LINKER/LOCATER V4.66.93.0                                                        05/06/2020  16:02:27  PAGE 19


      000000D0H.7 SFRSYM    DATA     BIT       CY
      00000098H.1 SFRSYM    DATA     BIT       TI
      000000C3H   SFRSYM    DATA     BYTE      IAP_ADDRH
      000000C0H.1 SFRSYM    DATA     BIT       DS18B20_DATA
      000000C5H   SFRSYM    DATA     BYTE      ISP_CMD
      000000B8H.4 SFRSYM    DATA     BIT       PS
      00000081H   SFRSYM    DATA     BYTE      SP
      000000A0H.7 SFRSYM    DATA     BIT       LCD1602_Busy
      000000B0H.5 SFRSYM    DATA     BIT       LCD1602_RS
      000000D9H   SFRSYM    DATA     BYTE      CMOD
      000000D8H   SFRSYM    DATA     BYTE      CCON
      000000C4H   SFRSYM    DATA     BYTE      IAP_ADDRL
      000000B8H.7 SFRSYM    DATA     BIT       PPCA
      000000D0H.2 SFRSYM    DATA     BIT       OV
      000000B0H.4 SFRSYM    DATA     BIT       LCD1602_RW
      000000E6H   SFRSYM    DATA     BYTE      CMPCR1
      00000090H.1 SFRSYM    DATA     BIT       LED_GREEN
      000000E7H   SFRSYM    DATA     BYTE      CMPCR2
      000000A8H.6 SFRSYM    DATA     BIT       ELVD
      00000080H.0 SFRSYM    DATA     BIT       P00
      000000BCH   SFRSYM    DATA     BYTE      ADC_CONTR
      00000099H   SFRSYM    DATA     BYTE      SBUF
      00000087H   SFRSYM    DATA     BYTE      PCON
      00000090H.0 SFRSYM    DATA     BIT       P10
      00000080H.1 SFRSYM    DATA     BIT       P01
      000000C3H   SFRSYM    DATA     BYTE      ISP_ADDRH
      000000A0H.0 SFRSYM    DATA     BIT       P20
      00000090H.1 SFRSYM    DATA     BIT       P11
      00000080H.2 SFRSYM    DATA     BIT       P02
      000000B0H.0 SFRSYM    DATA     BIT       P30
      000000A0H.1 SFRSYM    DATA     BIT       P21
      00000090H.2 SFRSYM    DATA     BIT       P12
      00000080H.3 SFRSYM    DATA     BIT       P03
      00000098H   SFRSYM    DATA     BYTE      SCON
      000000C0H.0 SFRSYM    DATA     BIT       P40
      000000B0H.1 SFRSYM    DATA     BIT       P31
      000000A0H.2 SFRSYM    DATA     BIT       P22
      00000090H.3 SFRSYM    DATA     BIT       P13
      00000080H.4 SFRSYM    DATA     BIT       P04
      00000089H   SFRSYM    DATA     BYTE      TMOD
      00000088H   SFRSYM    DATA     BYTE      TCON
      000000C8H.0 SFRSYM    DATA     BIT       P50
      000000C0H.1 SFRSYM    DATA     BIT       P41
      000000B0H.2 SFRSYM    DATA     BIT       P32
      000000A0H.3 SFRSYM    DATA     BIT       P23
      00000090H.4 SFRSYM    DATA     BIT       P14
      00000080H.5 SFRSYM    DATA     BIT       P05
      000000C4H   SFRSYM    DATA     BYTE      ISP_ADDRL
      000000E8H.0 SFRSYM    DATA     BIT       P60
      000000C8H.1 SFRSYM    DATA     BIT       P51
      000000C0H.2 SFRSYM    DATA     BIT       P42
      000000B0H.3 SFRSYM    DATA     BIT       P33
      000000A0H.4 SFRSYM    DATA     BIT       P24
      00000090H.5 SFRSYM    DATA     BIT       P15
      00000080H.6 SFRSYM    DATA     BIT       P06
      000000B8H.6 SFRSYM    DATA     BIT       PLVD
      000000F8H.0 SFRSYM    DATA     BIT       P70
      000000E8H.1 SFRSYM    DATA     BIT       P61
      000000C8H.2 SFRSYM    DATA     BIT       P52
      000000C0H.3 SFRSYM    DATA     BIT       P43
      000000B0H.4 SFRSYM    DATA     BIT       P34
      000000A0H.5 SFRSYM    DATA     BIT       P25
      00000090H.6 SFRSYM    DATA     BIT       P16
      00000080H.7 SFRSYM    DATA     BIT       P07
      000000F8H.1 SFRSYM    DATA     BIT       P71
LX51 LINKER/LOCATER V4.66.93.0                                                        05/06/2020  16:02:27  PAGE 20


      000000E8H.2 SFRSYM    DATA     BIT       P62
      000000C8H.3 SFRSYM    DATA     BIT       P53
      000000C0H.4 SFRSYM    DATA     BIT       P44
      000000B0H.5 SFRSYM    DATA     BIT       P35
      000000A0H.6 SFRSYM    DATA     BIT       P26
      00000090H.7 SFRSYM    DATA     BIT       P17
      000000F8H.2 SFRSYM    DATA     BIT       P72
      000000E8H.3 SFRSYM    DATA     BIT       P63
      000000C8H.4 SFRSYM    DATA     BIT       P54
      000000C0H.5 SFRSYM    DATA     BIT       P45
      000000B0H.6 SFRSYM    DATA     BIT       P36
      000000A0H.7 SFRSYM    DATA     BIT       P27
      000000F8H.3 SFRSYM    DATA     BIT       P73
      000000E8H.4 SFRSYM    DATA     BIT       P64
      000000C8H.5 SFRSYM    DATA     BIT       P55
      000000C0H.6 SFRSYM    DATA     BIT       P46
      000000B0H.7 SFRSYM    DATA     BIT       P37
      000000F8H.4 SFRSYM    DATA     BIT       P74
      000000E8H.5 SFRSYM    DATA     BIT       P65
      000000C8H.6 SFRSYM    DATA     BIT       P56
      000000C0H.7 SFRSYM    DATA     BIT       P47
      000000F8H.5 SFRSYM    DATA     BIT       P75
      000000E8H.6 SFRSYM    DATA     BIT       P66
      000000C8H.7 SFRSYM    DATA     BIT       P57
      000000F8H.6 SFRSYM    DATA     BIT       P76
      000000E8H.7 SFRSYM    DATA     BIT       P67
      00000088H.1 SFRSYM    DATA     BIT       IE0
      000000A1H   SFRSYM    DATA     BYTE      BUS_SPEED
      000000F8H.7 SFRSYM    DATA     BIT       P77
      00000088H.3 SFRSYM    DATA     BIT       IE1
      000000AFH   SFRSYM    DATA     BYTE      IE2
      0000008EH   SFRSYM    DATA     BYTE      AUXR
      000000F0H   SFRSYM    DATA     BYTE      B
      000000C7H   SFRSYM    DATA     BYTE      IAP_CONTR
      000000F1H   SFRSYM    DATA     BYTE      PWMCFG
      000000E0H   SFRSYM    DATA     BYTE      ACC
      000000A8H.1 SFRSYM    DATA     BIT       ET0
      00000088H.5 SFRSYM    DATA     BIT       TF0
      000000A8H.3 SFRSYM    DATA     BIT       ET1
      00000088H.7 SFRSYM    DATA     BIT       TF1
      000000B5H   SFRSYM    DATA     BYTE      IP2
      000000FFH   SFRSYM    DATA     BYTE      RSTCFG
      00000098H.2 SFRSYM    DATA     BIT       RB8
      0000008CH   SFRSYM    DATA     BYTE      TH0
      0000008DH   SFRSYM    DATA     BYTE      TH1
      00000088H.0 SFRSYM    DATA     BIT       IT0
      000000A8H.0 SFRSYM    DATA     BIT       EX0
      00000098H.3 SFRSYM    DATA     BIT       TB8
      000000D6H   SFRSYM    DATA     BYTE      TH2
      000000D6H   SFRSYM    DATA     BYTE      T2H
      00000088H.2 SFRSYM    DATA     BIT       IT1
      000000A8H.2 SFRSYM    DATA     BIT       EX1
      000000D4H   SFRSYM    DATA     BYTE      TH3
      000000D4H   SFRSYM    DATA     BYTE      T3H
      000000D0H.0 SFRSYM    DATA     BIT       P
      00000098H.7 SFRSYM    DATA     BIT       SM0
      000000D2H   SFRSYM    DATA     BYTE      TH4
      000000D2H   SFRSYM    DATA     BYTE      T4H
      0000008AH   SFRSYM    DATA     BYTE      TL0
      00000098H.6 SFRSYM    DATA     BIT       SM1
      0000008BH   SFRSYM    DATA     BYTE      TL1
      00000098H.5 SFRSYM    DATA     BIT       SM2
      000000D7H   SFRSYM    DATA     BYTE      TL2
      000000D7H   SFRSYM    DATA     BYTE      T2L
      000000D5H   SFRSYM    DATA     BYTE      TL3
LX51 LINKER/LOCATER V4.66.93.0                                                        05/06/2020  16:02:27  PAGE 21


      000000D5H   SFRSYM    DATA     BYTE      T3L
      000000D3H   SFRSYM    DATA     BYTE      TL4
      000000D3H   SFRSYM    DATA     BYTE      T4L
      000000B8H.1 SFRSYM    DATA     BIT       PT0
      000000C7H   SFRSYM    DATA     BYTE      ISP_CONTR
      000000B8H.3 SFRSYM    DATA     BIT       PT1
      000000D0H.3 SFRSYM    DATA     BIT       RS0
      000000C2H   SFRSYM    DATA     BYTE      IAP_DATA
      00000088H.4 SFRSYM    DATA     BIT       TR0
      000000D0H.4 SFRSYM    DATA     BIT       RS1
      00000088H.6 SFRSYM    DATA     BIT       TR1
      000000C1H   SFRSYM    DATA     BYTE      WDT_CONTR
      000000B8H.0 SFRSYM    DATA     BIT       PX0
      000000B8H.2 SFRSYM    DATA     BIT       PX1
      000000F2H   SFRSYM    DATA     BYTE      PCA_PWM0
      000000F3H   SFRSYM    DATA     BYTE      PCA_PWM1
      000000F4H   SFRSYM    DATA     BYTE      PCA_PWM2
      000000BBH   SFRSYM    DATA     BYTE      VOCTRL
      00000083H   SFRSYM    DATA     BYTE      DPH
      000000F5H   SFRSYM    DATA     BYTE      PCA_PWM3
      000000D1H   SFRSYM    DATA     BYTE      T4T3M
      00000080H.7 SFRSYM    DATA     BIT       LED_BLUE
      000000BEH   SFRSYM    DATA     BYTE      ADC_RESL
      00000082H   SFRSYM    DATA     BYTE      DPL
      000000CDH   SFRSYM    DATA     BYTE      SPSTAT
      000000B7H   SFRSYM    DATA     BYTE      IPH
      0000009BH   SFRSYM    DATA     BYTE      S2BUF
      000000ADH   SFRSYM    DATA     BYTE      S3BUF
      00000085H   SFRSYM    DATA     BYTE      S4BUF
      00000098H.4 SFRSYM    DATA     BIT       REN
      0000009AH   SFRSYM    DATA     BYTE      S2CON
      000000ACH   SFRSYM    DATA     BYTE      S3CON
      000000E3H   SFRSYM    DATA     BYTE      DPS
      000000C2H   SFRSYM    DATA     BYTE      ISP_DATA
      00000084H   SFRSYM    DATA     BYTE      S4CON
      000000EFH   SFRSYM    DATA     BYTE      AUXINTIF
      000000B9H   SFRSYM    DATA     BYTE      SADEN
      000000A9H   SFRSYM    DATA     BYTE      SADDR
      000000C6H   SFRSYM    DATA     BYTE      IAP_TRIG
      00000097H   SFRSYM    DATA     BYTE      AUXR2
      000000D0H.5 SFRSYM    DATA     BIT       F0
      000000D0H   SFRSYM    DATA     BYTE      PSW
      000000D8H.0 SFRSYM    DATA     BIT       CCF0
      000000D8H.1 SFRSYM    DATA     BIT       CCF1
      000000CFH   SFRSYM    DATA     BYTE      SPDAT
      00000094H   SFRSYM    DATA     BYTE      P0M0

      01000026H   BLOCK     CODE     ---       LVL=0
      ---         BLOCKEND  ---      ---       LVL=0

      0100222DH   BLOCK     CODE     ---       LVL=0
      0100222DH   LINE      CODE     ---       #12
      0100224BH   LINE      CODE     ---       #14
      0100226AH   LINE      CODE     ---       #15
      ---         BLOCKEND  ---      ---       LVL=0

      01002634H   BLOCK     CODE     ---       LVL=0
      01002634H   LINE      CODE     ---       #28
      01002634H   LINE      CODE     ---       #30
      01002637H   LINE      CODE     ---       #31
      0100263BH   LINE      CODE     ---       #32
      ---         BLOCKEND  ---      ---       LVL=0

      01002035H   BLOCK     CODE     ---       LVL=0
      01002050H   BLOCK     CODE     NEAR LAB  LVL=1
LX51 LINKER/LOCATER V4.66.93.0                                                        05/06/2020  16:02:27  PAGE 22


      00000020H.0 SYMBOL    BIT      BIT       isFull
      ---         BLOCKEND  ---      ---       LVL=1
      01002035H   LINE      CODE     ---       #50
      0100204BH   LINE      CODE     ---       #52
      01002050H   LINE      CODE     ---       #53
      01002050H   LINE      CODE     ---       #54
      01002052H   LINE      CODE     ---       #55
      01002055H   LINE      CODE     ---       #56
      0100205EH   LINE      CODE     ---       #57
      0100205EH   LINE      CODE     ---       #58
      01002064H   LINE      CODE     ---       #59
      01002066H   LINE      CODE     ---       #60
      01002068H   LINE      CODE     ---       #61
      01002070H   LINE      CODE     ---       #62
      01002074H   LINE      CODE     ---       #64
      01002076H   LINE      CODE     ---       #65
      01002079H   LINE      CODE     ---       #66
      01002079H   LINE      CODE     ---       #67
      0100207DH   LINE      CODE     ---       #69
      0100207DH   LINE      CODE     ---       #70
      0100208CH   LINE      CODE     ---       #71
      01002095H   LINE      CODE     ---       #72
      0100209DH   LINE      CODE     ---       #74
      010020A5H   LINE      CODE     ---       #75
      010020A7H   LINE      CODE     ---       #77
      010020ACH   LINE      CODE     ---       #78
      ---         BLOCKEND  ---      ---       LVL=0

      01002142H   BLOCK     CODE     ---       LVL=0
      0100215FH   BLOCK     CODE     NEAR LAB  LVL=1
      00000020H.1 SYMBOL    BIT      BIT       isFull
      ---         BLOCKEND  ---      ---       LVL=1
      01002142H   LINE      CODE     ---       #111
      0100215AH   LINE      CODE     ---       #113
      0100215FH   LINE      CODE     ---       #114
      0100215FH   LINE      CODE     ---       #115
      01002161H   LINE      CODE     ---       #116
      01002164H   LINE      CODE     ---       #117
      01002169H   LINE      CODE     ---       #118
      01002169H   LINE      CODE     ---       #119
      0100216DH   LINE      CODE     ---       #120
      0100216FH   LINE      CODE     ---       #121
      01002171H   LINE      CODE     ---       #122
      0100217BH   LINE      CODE     ---       #123
      0100217FH   LINE      CODE     ---       #125
      01002181H   LINE      CODE     ---       #126
      01002184H   LINE      CODE     ---       #127
      01002184H   LINE      CODE     ---       #128
      01002188H   LINE      CODE     ---       #130
      01002188H   LINE      CODE     ---       #131
      01002196H   LINE      CODE     ---       #132
      0100219BH   LINE      CODE     ---       #133
      0100219FH   LINE      CODE     ---       #135
      010021A1H   LINE      CODE     ---       #136
      010021A3H   LINE      CODE     ---       #138
      010021A8H   LINE      CODE     ---       #139
      ---         BLOCKEND  ---      ---       LVL=0

      ---         MODULE    ---      ---       UART
      020006F4H   PUBLIC    XDATA    ---       uart4Buffer
      0200049CH   PUBLIC    XDATA    ---       uart2Buffer
      0000000DH   PUBLIC    DATA     BYTE      uart4Idx2
      0000000CH   PUBLIC    DATA     BYTE      uart4Idx1
      0000000AH   PUBLIC    DATA     WORD      uart2Idx2
      00000008H   PUBLIC    DATA     WORD      uart2Idx1
LX51 LINKER/LOCATER V4.66.93.0                                                        05/06/2020  16:02:27  PAGE 23


      00000021H.5 PUBLIC    BIT      BIT       uart4Busy
      00000021H.4 PUBLIC    BIT      BIT       uart2Busy
      00000021H.3 PUBLIC    BIT      BIT       uart1Busy
      010025EEH   PUBLIC    CODE     ---       _uart4_send8
      010024D7H   PUBLIC    CODE     ---       _uart2_sendstr8
      010025E3H   PUBLIC    CODE     ---       _uart2_send8
      000000D8H.2 SFRSYM    DATA     BIT       CCF2
      00000092H   SFRSYM    DATA     BYTE      P1M0
      00000093H   SFRSYM    DATA     BYTE      P0M1
      000000D8H.3 SFRSYM    DATA     BIT       CCF3
      00000096H   SFRSYM    DATA     BYTE      P2M0
      00000091H   SFRSYM    DATA     BYTE      P1M1
      00000080H   SFRSYM    DATA     BYTE      P0
      000000B2H   SFRSYM    DATA     BYTE      P3M0
      00000095H   SFRSYM    DATA     BYTE      P2M1
      00000090H   SFRSYM    DATA     BYTE      P1
      000000B4H   SFRSYM    DATA     BYTE      P4M0
      000000B1H   SFRSYM    DATA     BYTE      P3M1
      000000A0H   SFRSYM    DATA     BYTE      P2
      000000ABH   SFRSYM    DATA     BYTE      WKTCH
      000000CAH   SFRSYM    DATA     BYTE      P5M0
      000000B3H   SFRSYM    DATA     BYTE      P4M1
      000000B0H   SFRSYM    DATA     BYTE      P3
      000000CCH   SFRSYM    DATA     BYTE      P6M0
      000000C9H   SFRSYM    DATA     BYTE      P5M1
      000000C0H   SFRSYM    DATA     BYTE      P4
      000000D0H.6 SFRSYM    DATA     BIT       AC
      000000F6H   SFRSYM    DATA     BYTE      PWMIF
      000000C6H   SFRSYM    DATA     BYTE      ISP_TRIG
      000000E2H   SFRSYM    DATA     BYTE      P7M0
      000000CBH   SFRSYM    DATA     BYTE      P6M1
      000000C8H   SFRSYM    DATA     BYTE      P5
      000000A8H.7 SFRSYM    DATA     BIT       EA
      000000E1H   SFRSYM    DATA     BYTE      P7M1
      000000E8H   SFRSYM    DATA     BYTE      P6
      000000AAH   SFRSYM    DATA     BYTE      WKTCL
      000000F8H   SFRSYM    DATA     BYTE      P7
      000000CEH   SFRSYM    DATA     BYTE      SPCTL
      000000D8H.7 SFRSYM    DATA     BIT       CF
      000000FEH   SFRSYM    DATA     BYTE      PWMCR
      000000F9H   SFRSYM    DATA     BYTE      CH
      000000A2H   SFRSYM    DATA     BYTE      P_SW1
      000000BAH   SFRSYM    DATA     BYTE      P_SW2
      000000A8H.5 SFRSYM    DATA     BIT       EADC
      000000A8H   SFRSYM    DATA     BYTE      IE
      000000E5H   SFRSYM    DATA     BYTE      DPH1
      000000E9H   SFRSYM    DATA     BYTE      CL
      000000C5H   SFRSYM    DATA     BYTE      IAP_CMD
      000000FAH   SFRSYM    DATA     BYTE      CCAP0H
      000000B0H.2 SFRSYM    DATA     BIT       LCD1602_EN
      00000090H.0 SFRSYM    DATA     BIT       LED_RED
      000000FBH   SFRSYM    DATA     BYTE      CCAP1H
      000000E4H   SFRSYM    DATA     BYTE      DPL1
      000000FCH   SFRSYM    DATA     BYTE      CCAP2H
      000000FDH   SFRSYM    DATA     BYTE      CCAP3H
      000000BDH   SFRSYM    DATA     BYTE      ADC_RES
      000000B6H   SFRSYM    DATA     BYTE      IP2H
      000000EAH   SFRSYM    DATA     BYTE      CCAP0L
      000000D8H.6 SFRSYM    DATA     BIT       CR
      000000AEH   SFRSYM    DATA     BYTE      TA
      000000F7H   SFRSYM    DATA     BYTE      PWMFDCR
      000000EBH   SFRSYM    DATA     BYTE      CCAP1L
      000000DAH   SFRSYM    DATA     BYTE      CCAPM0
      000000ECH   SFRSYM    DATA     BYTE      CCAP2L
      000000DBH   SFRSYM    DATA     BYTE      CCAPM1
LX51 LINKER/LOCATER V4.66.93.0                                                        05/06/2020  16:02:27  PAGE 24


      0000008FH   SFRSYM    DATA     BYTE      INTCLKO
      000000EDH   SFRSYM    DATA     BYTE      CCAP3L
      000000DCH   SFRSYM    DATA     BYTE      CCAPM2
      000000A8H.4 SFRSYM    DATA     BIT       ES
      000000DDH   SFRSYM    DATA     BYTE      CCAPM3
      000000B8H.5 SFRSYM    DATA     BIT       PADC
      000000B8H   SFRSYM    DATA     BYTE      IP
      000000DEH   SFRSYM    DATA     BYTE      ADCCFG
      00000098H.0 SFRSYM    DATA     BIT       RI
      000000D0H.7 SFRSYM    DATA     BIT       CY
      00000098H.1 SFRSYM    DATA     BIT       TI
      000000C3H   SFRSYM    DATA     BYTE      IAP_ADDRH
      000000C0H.1 SFRSYM    DATA     BIT       DS18B20_DATA
      000000C5H   SFRSYM    DATA     BYTE      ISP_CMD
      000000B8H.4 SFRSYM    DATA     BIT       PS
      00000081H   SFRSYM    DATA     BYTE      SP
      000000A0H.7 SFRSYM    DATA     BIT       LCD1602_Busy
      000000B0H.5 SFRSYM    DATA     BIT       LCD1602_RS
      000000D9H   SFRSYM    DATA     BYTE      CMOD
      000000D8H   SFRSYM    DATA     BYTE      CCON
      000000C4H   SFRSYM    DATA     BYTE      IAP_ADDRL
      000000B8H.7 SFRSYM    DATA     BIT       PPCA
      000000D0H.2 SFRSYM    DATA     BIT       OV
      000000B0H.4 SFRSYM    DATA     BIT       LCD1602_RW
      000000E6H   SFRSYM    DATA     BYTE      CMPCR1
      00000090H.1 SFRSYM    DATA     BIT       LED_GREEN
      000000E7H   SFRSYM    DATA     BYTE      CMPCR2
      000000A8H.6 SFRSYM    DATA     BIT       ELVD
      00000080H.0 SFRSYM    DATA     BIT       P00
      000000BCH   SFRSYM    DATA     BYTE      ADC_CONTR
      00000099H   SFRSYM    DATA     BYTE      SBUF
      00000087H   SFRSYM    DATA     BYTE      PCON
      00000090H.0 SFRSYM    DATA     BIT       P10
      00000080H.1 SFRSYM    DATA     BIT       P01
      000000C3H   SFRSYM    DATA     BYTE      ISP_ADDRH
      000000A0H.0 SFRSYM    DATA     BIT       P20
      00000090H.1 SFRSYM    DATA     BIT       P11
      00000080H.2 SFRSYM    DATA     BIT       P02
      000000B0H.0 SFRSYM    DATA     BIT       P30
      000000A0H.1 SFRSYM    DATA     BIT       P21
      00000090H.2 SFRSYM    DATA     BIT       P12
      00000080H.3 SFRSYM    DATA     BIT       P03
      00000098H   SFRSYM    DATA     BYTE      SCON
      000000C0H.0 SFRSYM    DATA     BIT       P40
      000000B0H.1 SFRSYM    DATA     BIT       P31
      000000A0H.2 SFRSYM    DATA     BIT       P22
      00000090H.3 SFRSYM    DATA     BIT       P13
      00000080H.4 SFRSYM    DATA     BIT       P04
      00000089H   SFRSYM    DATA     BYTE      TMOD
      00000088H   SFRSYM    DATA     BYTE      TCON
      000000C8H.0 SFRSYM    DATA     BIT       P50
      000000C0H.1 SFRSYM    DATA     BIT       P41
      000000B0H.2 SFRSYM    DATA     BIT       P32
      000000A0H.3 SFRSYM    DATA     BIT       P23
      00000090H.4 SFRSYM    DATA     BIT       P14
      00000080H.5 SFRSYM    DATA     BIT       P05
      000000C4H   SFRSYM    DATA     BYTE      ISP_ADDRL
      000000E8H.0 SFRSYM    DATA     BIT       P60
      000000C8H.1 SFRSYM    DATA     BIT       P51
      000000C0H.2 SFRSYM    DATA     BIT       P42
      000000B0H.3 SFRSYM    DATA     BIT       P33
      000000A0H.4 SFRSYM    DATA     BIT       P24
      00000090H.5 SFRSYM    DATA     BIT       P15
      00000080H.6 SFRSYM    DATA     BIT       P06
      000000B8H.6 SFRSYM    DATA     BIT       PLVD
LX51 LINKER/LOCATER V4.66.93.0                                                        05/06/2020  16:02:27  PAGE 25


      000000F8H.0 SFRSYM    DATA     BIT       P70
      000000E8H.1 SFRSYM    DATA     BIT       P61
      000000C8H.2 SFRSYM    DATA     BIT       P52
      000000C0H.3 SFRSYM    DATA     BIT       P43
      000000B0H.4 SFRSYM    DATA     BIT       P34
      000000A0H.5 SFRSYM    DATA     BIT       P25
      00000090H.6 SFRSYM    DATA     BIT       P16
      00000080H.7 SFRSYM    DATA     BIT       P07
      000000F8H.1 SFRSYM    DATA     BIT       P71
      000000E8H.2 SFRSYM    DATA     BIT       P62
      000000C8H.3 SFRSYM    DATA     BIT       P53
      000000C0H.4 SFRSYM    DATA     BIT       P44
      000000B0H.5 SFRSYM    DATA     BIT       P35
      000000A0H.6 SFRSYM    DATA     BIT       P26
      00000090H.7 SFRSYM    DATA     BIT       P17
      000000F8H.2 SFRSYM    DATA     BIT       P72
      000000E8H.3 SFRSYM    DATA     BIT       P63
      000000C8H.4 SFRSYM    DATA     BIT       P54
      000000C0H.5 SFRSYM    DATA     BIT       P45
      000000B0H.6 SFRSYM    DATA     BIT       P36
      000000A0H.7 SFRSYM    DATA     BIT       P27
      000000F8H.3 SFRSYM    DATA     BIT       P73
      000000E8H.4 SFRSYM    DATA     BIT       P64
      000000C8H.5 SFRSYM    DATA     BIT       P55
      000000C0H.6 SFRSYM    DATA     BIT       P46
      000000B0H.7 SFRSYM    DATA     BIT       P37
      000000F8H.4 SFRSYM    DATA     BIT       P74
      000000E8H.5 SFRSYM    DATA     BIT       P65
      000000C8H.6 SFRSYM    DATA     BIT       P56
      000000C0H.7 SFRSYM    DATA     BIT       P47
      000000F8H.5 SFRSYM    DATA     BIT       P75
      000000E8H.6 SFRSYM    DATA     BIT       P66
      000000C8H.7 SFRSYM    DATA     BIT       P57
      000000F8H.6 SFRSYM    DATA     BIT       P76
      000000E8H.7 SFRSYM    DATA     BIT       P67
      00000088H.1 SFRSYM    DATA     BIT       IE0
      000000A1H   SFRSYM    DATA     BYTE      BUS_SPEED
      000000F8H.7 SFRSYM    DATA     BIT       P77
      00000088H.3 SFRSYM    DATA     BIT       IE1
      000000AFH   SFRSYM    DATA     BYTE      IE2
      0000008EH   SFRSYM    DATA     BYTE      AUXR
      000000F0H   SFRSYM    DATA     BYTE      B
      000000C7H   SFRSYM    DATA     BYTE      IAP_CONTR
      000000F1H   SFRSYM    DATA     BYTE      PWMCFG
      000000E0H   SFRSYM    DATA     BYTE      ACC
      000000A8H.1 SFRSYM    DATA     BIT       ET0
      00000088H.5 SFRSYM    DATA     BIT       TF0
      000000A8H.3 SFRSYM    DATA     BIT       ET1
      00000088H.7 SFRSYM    DATA     BIT       TF1
      000000B5H   SFRSYM    DATA     BYTE      IP2
      000000FFH   SFRSYM    DATA     BYTE      RSTCFG
      00000098H.2 SFRSYM    DATA     BIT       RB8
      0000008CH   SFRSYM    DATA     BYTE      TH0
      0000008DH   SFRSYM    DATA     BYTE      TH1
      00000088H.0 SFRSYM    DATA     BIT       IT0
      000000A8H.0 SFRSYM    DATA     BIT       EX0
      00000098H.3 SFRSYM    DATA     BIT       TB8
      000000D6H   SFRSYM    DATA     BYTE      TH2
      000000D6H   SFRSYM    DATA     BYTE      T2H
      00000088H.2 SFRSYM    DATA     BIT       IT1
      000000A8H.2 SFRSYM    DATA     BIT       EX1
      000000D4H   SFRSYM    DATA     BYTE      TH3
      000000D4H   SFRSYM    DATA     BYTE      T3H
      000000D0H.0 SFRSYM    DATA     BIT       P
      00000098H.7 SFRSYM    DATA     BIT       SM0
LX51 LINKER/LOCATER V4.66.93.0                                                        05/06/2020  16:02:27  PAGE 26


      000000D2H   SFRSYM    DATA     BYTE      TH4
      000000D2H   SFRSYM    DATA     BYTE      T4H
      0000008AH   SFRSYM    DATA     BYTE      TL0
      00000098H.6 SFRSYM    DATA     BIT       SM1
      0000008BH   SFRSYM    DATA     BYTE      TL1
      00000098H.5 SFRSYM    DATA     BIT       SM2
      000000D7H   SFRSYM    DATA     BYTE      TL2
      000000D7H   SFRSYM    DATA     BYTE      T2L
      000000D5H   SFRSYM    DATA     BYTE      TL3
      000000D5H   SFRSYM    DATA     BYTE      T3L
      000000D3H   SFRSYM    DATA     BYTE      TL4
      000000D3H   SFRSYM    DATA     BYTE      T4L
      000000B8H.1 SFRSYM    DATA     BIT       PT0
      000000C7H   SFRSYM    DATA     BYTE      ISP_CONTR
      000000B8H.3 SFRSYM    DATA     BIT       PT1
      000000D0H.3 SFRSYM    DATA     BIT       RS0
      000000C2H   SFRSYM    DATA     BYTE      IAP_DATA
      00000088H.4 SFRSYM    DATA     BIT       TR0
      000000D0H.4 SFRSYM    DATA     BIT       RS1
      00000088H.6 SFRSYM    DATA     BIT       TR1
      000000C1H   SFRSYM    DATA     BYTE      WDT_CONTR
      000000B8H.0 SFRSYM    DATA     BIT       PX0
      000000B8H.2 SFRSYM    DATA     BIT       PX1
      000000F2H   SFRSYM    DATA     BYTE      PCA_PWM0
      000000F3H   SFRSYM    DATA     BYTE      PCA_PWM1
      000000F4H   SFRSYM    DATA     BYTE      PCA_PWM2
      000000BBH   SFRSYM    DATA     BYTE      VOCTRL
      00000083H   SFRSYM    DATA     BYTE      DPH
      000000F5H   SFRSYM    DATA     BYTE      PCA_PWM3
      000000D1H   SFRSYM    DATA     BYTE      T4T3M
      00000080H.7 SFRSYM    DATA     BIT       LED_BLUE
      000000BEH   SFRSYM    DATA     BYTE      ADC_RESL
      00000082H   SFRSYM    DATA     BYTE      DPL
      000000CDH   SFRSYM    DATA     BYTE      SPSTAT
      000000B7H   SFRSYM    DATA     BYTE      IPH
      0000009BH   SFRSYM    DATA     BYTE      S2BUF
      000000ADH   SFRSYM    DATA     BYTE      S3BUF
      00000085H   SFRSYM    DATA     BYTE      S4BUF
      00000098H.4 SFRSYM    DATA     BIT       REN
      0000009AH   SFRSYM    DATA     BYTE      S2CON
      000000ACH   SFRSYM    DATA     BYTE      S3CON
      000000E3H   SFRSYM    DATA     BYTE      DPS
      000000C2H   SFRSYM    DATA     BYTE      ISP_DATA
      00000084H   SFRSYM    DATA     BYTE      S4CON
      000000EFH   SFRSYM    DATA     BYTE      AUXINTIF
      000000B9H   SFRSYM    DATA     BYTE      SADEN
      000000A9H   SFRSYM    DATA     BYTE      SADDR
      000000C6H   SFRSYM    DATA     BYTE      IAP_TRIG
      00000097H   SFRSYM    DATA     BYTE      AUXR2
      000000D0H.5 SFRSYM    DATA     BIT       F0
      000000D0H   SFRSYM    DATA     BYTE      PSW
      000000D8H.0 SFRSYM    DATA     BIT       CCF0
      000000D8H.1 SFRSYM    DATA     BIT       CCF1
      000000CFH   SFRSYM    DATA     BYTE      SPDAT
      00000094H   SFRSYM    DATA     BYTE      P0M0

      010025E3H   BLOCK     CODE     ---       LVL=0
      00000007H   SYMBOL    DATA     BYTE      dat
      010025E3H   LINE      CODE     ---       #29
      010025E3H   LINE      CODE     ---       #30
      010025E3H   LINE      CODE     ---       #31
      010025E6H   LINE      CODE     ---       #32
      010025E6H   LINE      CODE     ---       #33
      010025E8H   LINE      CODE     ---       #34
      010025EAH   LINE      CODE     ---       #35
LX51 LINKER/LOCATER V4.66.93.0                                                        05/06/2020  16:02:27  PAGE 27


      010025EDH   LINE      CODE     ---       #36
      010025EDH   LINE      CODE     ---       #37
      ---         BLOCKEND  ---      ---       LVL=0

      010024D7H   BLOCK     CODE     ---       LVL=0
      00000025H   SYMBOL    DATA     ---       p
      010024D7H   LINE      CODE     ---       #38
      010024DDH   LINE      CODE     ---       #39
      010024DDH   LINE      CODE     ---       #40
      010024E8H   LINE      CODE     ---       #41
      010024FBH   LINE      CODE     ---       #42
      ---         BLOCKEND  ---      ---       LVL=0

      010025EEH   BLOCK     CODE     ---       LVL=0
      00000007H   SYMBOL    DATA     BYTE      dat
      010025EEH   LINE      CODE     ---       #44
      010025EEH   LINE      CODE     ---       #45
      010025EEH   LINE      CODE     ---       #46
      010025F1H   LINE      CODE     ---       #47
      010025F1H   LINE      CODE     ---       #48
      010025F3H   LINE      CODE     ---       #49
      010025F5H   LINE      CODE     ---       #50
      010025F8H   LINE      CODE     ---       #51
      010025F8H   LINE      CODE     ---       #52
      ---         BLOCKEND  ---      ---       LVL=0

      ---         MODULE    ---      ---       INIT
      01002521H   PUBLIC    CODE     ---       Init_interrupt
      01000046H   PUBLIC    CODE     ---       _Init_wkt
      010023CEH   PUBLIC    CODE     ---       Init_uart4
      01002365H   PUBLIC    CODE     ---       Init_uart2
      0100258EH   PUBLIC    CODE     ---       Init_timer0
      010024FCH   PUBLIC    CODE     ---       Init_io
      01002604H   PUBLIC    CODE     ---       Init_rst
      01002485H   PUBLIC    CODE     ---       Init
      000000D8H.2 SFRSYM    DATA     BIT       CCF2
      00000092H   SFRSYM    DATA     BYTE      P1M0
      00000093H   SFRSYM    DATA     BYTE      P0M1
      000000D8H.3 SFRSYM    DATA     BIT       CCF3
      00000096H   SFRSYM    DATA     BYTE      P2M0
      00000091H   SFRSYM    DATA     BYTE      P1M1
      00000080H   SFRSYM    DATA     BYTE      P0
      000000B2H   SFRSYM    DATA     BYTE      P3M0
      00000095H   SFRSYM    DATA     BYTE      P2M1
      00000090H   SFRSYM    DATA     BYTE      P1
      000000B4H   SFRSYM    DATA     BYTE      P4M0
      000000B1H   SFRSYM    DATA     BYTE      P3M1
      000000A0H   SFRSYM    DATA     BYTE      P2
      000000ABH   SFRSYM    DATA     BYTE      WKTCH
      000000CAH   SFRSYM    DATA     BYTE      P5M0
      000000B3H   SFRSYM    DATA     BYTE      P4M1
      000000B0H   SFRSYM    DATA     BYTE      P3
      000000CCH   SFRSYM    DATA     BYTE      P6M0
      000000C9H   SFRSYM    DATA     BYTE      P5M1
      000000C0H   SFRSYM    DATA     BYTE      P4
      000000D0H.6 SFRSYM    DATA     BIT       AC
      000000F6H   SFRSYM    DATA     BYTE      PWMIF
      000000C6H   SFRSYM    DATA     BYTE      ISP_TRIG
      000000E2H   SFRSYM    DATA     BYTE      P7M0
      000000CBH   SFRSYM    DATA     BYTE      P6M1
      000000C8H   SFRSYM    DATA     BYTE      P5
      000000A8H.7 SFRSYM    DATA     BIT       EA
      000000E1H   SFRSYM    DATA     BYTE      P7M1
      000000E8H   SFRSYM    DATA     BYTE      P6
      000000AAH   SFRSYM    DATA     BYTE      WKTCL
LX51 LINKER/LOCATER V4.66.93.0                                                        05/06/2020  16:02:27  PAGE 28


      000000F8H   SFRSYM    DATA     BYTE      P7
      000000CEH   SFRSYM    DATA     BYTE      SPCTL
      000000D8H.7 SFRSYM    DATA     BIT       CF
      000000FEH   SFRSYM    DATA     BYTE      PWMCR
      000000F9H   SFRSYM    DATA     BYTE      CH
      000000A2H   SFRSYM    DATA     BYTE      P_SW1
      000000BAH   SFRSYM    DATA     BYTE      P_SW2
      000000A8H.5 SFRSYM    DATA     BIT       EADC
      000000A8H   SFRSYM    DATA     BYTE      IE
      000000E5H   SFRSYM    DATA     BYTE      DPH1
      000000E9H   SFRSYM    DATA     BYTE      CL
      000000C5H   SFRSYM    DATA     BYTE      IAP_CMD
      000000FAH   SFRSYM    DATA     BYTE      CCAP0H
      000000B0H.2 SFRSYM    DATA     BIT       LCD1602_EN
      00000090H.0 SFRSYM    DATA     BIT       LED_RED
      000000FBH   SFRSYM    DATA     BYTE      CCAP1H
      000000E4H   SFRSYM    DATA     BYTE      DPL1
      000000FCH   SFRSYM    DATA     BYTE      CCAP2H
      000000FDH   SFRSYM    DATA     BYTE      CCAP3H
      000000BDH   SFRSYM    DATA     BYTE      ADC_RES
      000000B6H   SFRSYM    DATA     BYTE      IP2H
      000000EAH   SFRSYM    DATA     BYTE      CCAP0L
      000000D8H.6 SFRSYM    DATA     BIT       CR
      000000AEH   SFRSYM    DATA     BYTE      TA
      000000F7H   SFRSYM    DATA     BYTE      PWMFDCR
      000000EBH   SFRSYM    DATA     BYTE      CCAP1L
      000000DAH   SFRSYM    DATA     BYTE      CCAPM0
      000000ECH   SFRSYM    DATA     BYTE      CCAP2L
      000000DBH   SFRSYM    DATA     BYTE      CCAPM1
      0000008FH   SFRSYM    DATA     BYTE      INTCLKO
      000000EDH   SFRSYM    DATA     BYTE      CCAP3L
      000000DCH   SFRSYM    DATA     BYTE      CCAPM2
      000000A8H.4 SFRSYM    DATA     BIT       ES
      000000DDH   SFRSYM    DATA     BYTE      CCAPM3
      000000B8H.5 SFRSYM    DATA     BIT       PADC
      000000B8H   SFRSYM    DATA     BYTE      IP
      000000DEH   SFRSYM    DATA     BYTE      ADCCFG
      00000098H.0 SFRSYM    DATA     BIT       RI
      000000D0H.7 SFRSYM    DATA     BIT       CY
      00000098H.1 SFRSYM    DATA     BIT       TI
      000000C3H   SFRSYM    DATA     BYTE      IAP_ADDRH
      000000C0H.1 SFRSYM    DATA     BIT       DS18B20_DATA
      000000C5H   SFRSYM    DATA     BYTE      ISP_CMD
      000000B8H.4 SFRSYM    DATA     BIT       PS
      00000081H   SFRSYM    DATA     BYTE      SP
      000000A0H.7 SFRSYM    DATA     BIT       LCD1602_Busy
      000000B0H.5 SFRSYM    DATA     BIT       LCD1602_RS
      000000D9H   SFRSYM    DATA     BYTE      CMOD
      000000D8H   SFRSYM    DATA     BYTE      CCON
      000000C4H   SFRSYM    DATA     BYTE      IAP_ADDRL
      000000B8H.7 SFRSYM    DATA     BIT       PPCA
      000000D0H.2 SFRSYM    DATA     BIT       OV
      000000B0H.4 SFRSYM    DATA     BIT       LCD1602_RW
      000000E6H   SFRSYM    DATA     BYTE      CMPCR1
      00000090H.1 SFRSYM    DATA     BIT       LED_GREEN
      000000E7H   SFRSYM    DATA     BYTE      CMPCR2
      000000A8H.6 SFRSYM    DATA     BIT       ELVD
      00000080H.0 SFRSYM    DATA     BIT       P00
      000000BCH   SFRSYM    DATA     BYTE      ADC_CONTR
      00000099H   SFRSYM    DATA     BYTE      SBUF
      00000087H   SFRSYM    DATA     BYTE      PCON
      00000090H.0 SFRSYM    DATA     BIT       P10
      00000080H.1 SFRSYM    DATA     BIT       P01
      000000C3H   SFRSYM    DATA     BYTE      ISP_ADDRH
      000000A0H.0 SFRSYM    DATA     BIT       P20
LX51 LINKER/LOCATER V4.66.93.0                                                        05/06/2020  16:02:27  PAGE 29


      00000090H.1 SFRSYM    DATA     BIT       P11
      00000080H.2 SFRSYM    DATA     BIT       P02
      000000B0H.0 SFRSYM    DATA     BIT       P30
      000000A0H.1 SFRSYM    DATA     BIT       P21
      00000090H.2 SFRSYM    DATA     BIT       P12
      00000080H.3 SFRSYM    DATA     BIT       P03
      00000098H   SFRSYM    DATA     BYTE      SCON
      000000C0H.0 SFRSYM    DATA     BIT       P40
      000000B0H.1 SFRSYM    DATA     BIT       P31
      000000A0H.2 SFRSYM    DATA     BIT       P22
      00000090H.3 SFRSYM    DATA     BIT       P13
      00000080H.4 SFRSYM    DATA     BIT       P04
      00000089H   SFRSYM    DATA     BYTE      TMOD
      00000088H   SFRSYM    DATA     BYTE      TCON
      000000C8H.0 SFRSYM    DATA     BIT       P50
      000000C0H.1 SFRSYM    DATA     BIT       P41
      000000B0H.2 SFRSYM    DATA     BIT       P32
      000000A0H.3 SFRSYM    DATA     BIT       P23
      00000090H.4 SFRSYM    DATA     BIT       P14
      00000080H.5 SFRSYM    DATA     BIT       P05
      000000C4H   SFRSYM    DATA     BYTE      ISP_ADDRL
      000000E8H.0 SFRSYM    DATA     BIT       P60
      000000C8H.1 SFRSYM    DATA     BIT       P51
      000000C0H.2 SFRSYM    DATA     BIT       P42
      000000B0H.3 SFRSYM    DATA     BIT       P33
      000000A0H.4 SFRSYM    DATA     BIT       P24
      00000090H.5 SFRSYM    DATA     BIT       P15
      00000080H.6 SFRSYM    DATA     BIT       P06
      000000B8H.6 SFRSYM    DATA     BIT       PLVD
      000000F8H.0 SFRSYM    DATA     BIT       P70
      000000E8H.1 SFRSYM    DATA     BIT       P61
      000000C8H.2 SFRSYM    DATA     BIT       P52
      000000C0H.3 SFRSYM    DATA     BIT       P43
      000000B0H.4 SFRSYM    DATA     BIT       P34
      000000A0H.5 SFRSYM    DATA     BIT       P25
      00000090H.6 SFRSYM    DATA     BIT       P16
      00000080H.7 SFRSYM    DATA     BIT       P07
      000000F8H.1 SFRSYM    DATA     BIT       P71
      000000E8H.2 SFRSYM    DATA     BIT       P62
      000000C8H.3 SFRSYM    DATA     BIT       P53
      000000C0H.4 SFRSYM    DATA     BIT       P44
      000000B0H.5 SFRSYM    DATA     BIT       P35
      000000A0H.6 SFRSYM    DATA     BIT       P26
      00000090H.7 SFRSYM    DATA     BIT       P17
      000000F8H.2 SFRSYM    DATA     BIT       P72
      000000E8H.3 SFRSYM    DATA     BIT       P63
      000000C8H.4 SFRSYM    DATA     BIT       P54
      000000C0H.5 SFRSYM    DATA     BIT       P45
      000000B0H.6 SFRSYM    DATA     BIT       P36
      000000A0H.7 SFRSYM    DATA     BIT       P27
      000000F8H.3 SFRSYM    DATA     BIT       P73
      000000E8H.4 SFRSYM    DATA     BIT       P64
      000000C8H.5 SFRSYM    DATA     BIT       P55
      000000C0H.6 SFRSYM    DATA     BIT       P46
      000000B0H.7 SFRSYM    DATA     BIT       P37
      000000F8H.4 SFRSYM    DATA     BIT       P74
      000000E8H.5 SFRSYM    DATA     BIT       P65
      000000C8H.6 SFRSYM    DATA     BIT       P56
      000000C0H.7 SFRSYM    DATA     BIT       P47
      000000F8H.5 SFRSYM    DATA     BIT       P75
      000000E8H.6 SFRSYM    DATA     BIT       P66
      000000C8H.7 SFRSYM    DATA     BIT       P57
      000000F8H.6 SFRSYM    DATA     BIT       P76
      000000E8H.7 SFRSYM    DATA     BIT       P67
      00000088H.1 SFRSYM    DATA     BIT       IE0
LX51 LINKER/LOCATER V4.66.93.0                                                        05/06/2020  16:02:27  PAGE 30


      000000A1H   SFRSYM    DATA     BYTE      BUS_SPEED
      000000F8H.7 SFRSYM    DATA     BIT       P77
      00000088H.3 SFRSYM    DATA     BIT       IE1
      000000AFH   SFRSYM    DATA     BYTE      IE2
      0000008EH   SFRSYM    DATA     BYTE      AUXR
      000000F0H   SFRSYM    DATA     BYTE      B
      000000C7H   SFRSYM    DATA     BYTE      IAP_CONTR
      000000F1H   SFRSYM    DATA     BYTE      PWMCFG
      000000E0H   SFRSYM    DATA     BYTE      ACC
      000000A8H.1 SFRSYM    DATA     BIT       ET0
      00000088H.5 SFRSYM    DATA     BIT       TF0
      000000A8H.3 SFRSYM    DATA     BIT       ET1
      00000088H.7 SFRSYM    DATA     BIT       TF1
      000000B5H   SFRSYM    DATA     BYTE      IP2
      000000FFH   SFRSYM    DATA     BYTE      RSTCFG
      00000098H.2 SFRSYM    DATA     BIT       RB8
      0000008CH   SFRSYM    DATA     BYTE      TH0
      0000008DH   SFRSYM    DATA     BYTE      TH1
      00000088H.0 SFRSYM    DATA     BIT       IT0
      000000A8H.0 SFRSYM    DATA     BIT       EX0
      00000098H.3 SFRSYM    DATA     BIT       TB8
      000000D6H   SFRSYM    DATA     BYTE      TH2
      000000D6H   SFRSYM    DATA     BYTE      T2H
      00000088H.2 SFRSYM    DATA     BIT       IT1
      000000A8H.2 SFRSYM    DATA     BIT       EX1
      000000D4H   SFRSYM    DATA     BYTE      TH3
      000000D4H   SFRSYM    DATA     BYTE      T3H
      000000D0H.0 SFRSYM    DATA     BIT       P
      00000098H.7 SFRSYM    DATA     BIT       SM0
      000000D2H   SFRSYM    DATA     BYTE      TH4
      000000D2H   SFRSYM    DATA     BYTE      T4H
      0000008AH   SFRSYM    DATA     BYTE      TL0
      00000098H.6 SFRSYM    DATA     BIT       SM1
      0000008BH   SFRSYM    DATA     BYTE      TL1
      00000098H.5 SFRSYM    DATA     BIT       SM2
      000000D7H   SFRSYM    DATA     BYTE      TL2
      000000D7H   SFRSYM    DATA     BYTE      T2L
      000000D5H   SFRSYM    DATA     BYTE      TL3
      000000D5H   SFRSYM    DATA     BYTE      T3L
      000000D3H   SFRSYM    DATA     BYTE      TL4
      000000D3H   SFRSYM    DATA     BYTE      T4L
      000000B8H.1 SFRSYM    DATA     BIT       PT0
      000000C7H   SFRSYM    DATA     BYTE      ISP_CONTR
      000000B8H.3 SFRSYM    DATA     BIT       PT1
      000000D0H.3 SFRSYM    DATA     BIT       RS0
      000000C2H   SFRSYM    DATA     BYTE      IAP_DATA
      00000088H.4 SFRSYM    DATA     BIT       TR0
      000000D0H.4 SFRSYM    DATA     BIT       RS1
      00000088H.6 SFRSYM    DATA     BIT       TR1
      000000C1H   SFRSYM    DATA     BYTE      WDT_CONTR
      000000B8H.0 SFRSYM    DATA     BIT       PX0
      000000B8H.2 SFRSYM    DATA     BIT       PX1
      000000F2H   SFRSYM    DATA     BYTE      PCA_PWM0
      000000F3H   SFRSYM    DATA     BYTE      PCA_PWM1
      000000F4H   SFRSYM    DATA     BYTE      PCA_PWM2
      000000BBH   SFRSYM    DATA     BYTE      VOCTRL
      00000083H   SFRSYM    DATA     BYTE      DPH
      000000F5H   SFRSYM    DATA     BYTE      PCA_PWM3
      000000D1H   SFRSYM    DATA     BYTE      T4T3M
      00000080H.7 SFRSYM    DATA     BIT       LED_BLUE
      000000BEH   SFRSYM    DATA     BYTE      ADC_RESL
      00000082H   SFRSYM    DATA     BYTE      DPL
      000000CDH   SFRSYM    DATA     BYTE      SPSTAT
      000000B7H   SFRSYM    DATA     BYTE      IPH
      0000009BH   SFRSYM    DATA     BYTE      S2BUF
LX51 LINKER/LOCATER V4.66.93.0                                                        05/06/2020  16:02:27  PAGE 31


      000000ADH   SFRSYM    DATA     BYTE      S3BUF
      00000085H   SFRSYM    DATA     BYTE      S4BUF
      00000098H.4 SFRSYM    DATA     BIT       REN
      0000009AH   SFRSYM    DATA     BYTE      S2CON
      000000ACH   SFRSYM    DATA     BYTE      S3CON
      000000E3H   SFRSYM    DATA     BYTE      DPS
      000000C2H   SFRSYM    DATA     BYTE      ISP_DATA
      00000084H   SFRSYM    DATA     BYTE      S4CON
      000000EFH   SFRSYM    DATA     BYTE      AUXINTIF
      000000B9H   SFRSYM    DATA     BYTE      SADEN
      000000A9H   SFRSYM    DATA     BYTE      SADDR
      000000C6H   SFRSYM    DATA     BYTE      IAP_TRIG
      00000097H   SFRSYM    DATA     BYTE      AUXR2
      000000D0H.5 SFRSYM    DATA     BIT       F0
      000000D0H   SFRSYM    DATA     BYTE      PSW
      000000D8H.0 SFRSYM    DATA     BIT       CCF0
      000000D8H.1 SFRSYM    DATA     BIT       CCF1
      000000CFH   SFRSYM    DATA     BYTE      SPDAT
      00000094H   SFRSYM    DATA     BYTE      P0M0
      0100258EH   SYMBOL    CODE     ---       Init_timer0
      01000046H   SYMBOL    CODE     ---       _Init_wkt
      010024FCH   SYMBOL    CODE     ---       Init_io
      01002604H   SYMBOL    CODE     ---       Init_rst
      01002365H   SYMBOL    CODE     ---       Init_uart2
      010023CEH   SYMBOL    CODE     ---       Init_uart4
      01002521H   SYMBOL    CODE     ---       Init_interrupt

      01002485H   BLOCK     CODE     ---       LVL=0
      01002485H   LINE      CODE     ---       #13
      01002485H   LINE      CODE     ---       #14
      01002485H   LINE      CODE     ---       #16
      01002488H   LINE      CODE     ---       #17
      0100248BH   LINE      CODE     ---       #18
      0100248EH   LINE      CODE     ---       #22
      01002491H   LINE      CODE     ---       #23
      01002494H   LINE      CODE     ---       #24
      010024A1H   LINE      CODE     ---       #25
      010024A4H   LINE      CODE     ---       #30
      010024A7H   LINE      CODE     ---       #31
      010024AAH   LINE      CODE     ---       #32
      010024ADH   LINE      CODE     ---       #33
      ---         BLOCKEND  ---      ---       LVL=0

      01002604H   BLOCK     CODE     ---       LVL=0
      01002604H   LINE      CODE     ---       #38
      01002604H   LINE      CODE     ---       #39
      01002604H   LINE      CODE     ---       #41
      01002607H   LINE      CODE     ---       #44
      0100260AH   LINE      CODE     ---       #45
      0100260DH   LINE      CODE     ---       #46
      ---         BLOCKEND  ---      ---       LVL=0

      010024FCH   BLOCK     CODE     ---       LVL=0
      010024FCH   LINE      CODE     ---       #47
      010024FCH   LINE      CODE     ---       #48
      010024FCH   LINE      CODE     ---       #50
      01002502H   LINE      CODE     ---       #51
      01002508H   LINE      CODE     ---       #53
      0100250EH   LINE      CODE     ---       #54
      01002514H   LINE      CODE     ---       #56
      0100251AH   LINE      CODE     ---       #57
      01002520H   LINE      CODE     ---       #58
      ---         BLOCKEND  ---      ---       LVL=0

      0100258EH   BLOCK     CODE     ---       LVL=0
LX51 LINKER/LOCATER V4.66.93.0                                                        05/06/2020  16:02:27  PAGE 32


      0100258EH   LINE      CODE     ---       #59
      0100258EH   LINE      CODE     ---       #60
      0100258EH   LINE      CODE     ---       #61
      01002591H   LINE      CODE     ---       #62
      01002594H   LINE      CODE     ---       #63
      01002597H   LINE      CODE     ---       #64
      0100259AH   LINE      CODE     ---       #65
      0100259CH   LINE      CODE     ---       #66
      0100259EH   LINE      CODE     ---       #67
      ---         BLOCKEND  ---      ---       LVL=0

      01002365H   BLOCK     CODE     ---       LVL=0
      01002365H   BLOCK     CODE     NEAR LAB  LVL=1
      00000022H   SYMBOL    DATA     DWORD     BTL
      ---         BLOCKEND  ---      ---       LVL=1
      01002365H   LINE      CODE     ---       #79
      01002365H   LINE      CODE     ---       #80
      01002365H   LINE      CODE     ---       #82
      01002370H   LINE      CODE     ---       #83
      01002373H   LINE      CODE     ---       #84
      01002379H   LINE      CODE     ---       #85
      01002388H   LINE      CODE     ---       #87
      0100238BH   LINE      CODE     ---       #89
      0100238DH   LINE      CODE     ---       #90
      01002396H   LINE      CODE     ---       #91
      01002399H   LINE      CODE     ---       #92
      ---         BLOCKEND  ---      ---       LVL=0

      010023CEH   BLOCK     CODE     ---       LVL=0
      010023CEH   BLOCK     CODE     NEAR LAB  LVL=1
      00000022H   SYMBOL    DATA     DWORD     BTL
      ---         BLOCKEND  ---      ---       LVL=1
      010023CEH   LINE      CODE     ---       #93
      010023CEH   LINE      CODE     ---       #94
      010023CEH   LINE      CODE     ---       #96
      010023D9H   LINE      CODE     ---       #97
      010023DCH   LINE      CODE     ---       #98
      010023E2H   LINE      CODE     ---       #99
      010023F1H   LINE      CODE     ---       #101
      010023F4H   LINE      CODE     ---       #103
      010023F6H   LINE      CODE     ---       #104
      010023FBH   LINE      CODE     ---       #105
      010023FEH   LINE      CODE     ---       #106
      ---         BLOCKEND  ---      ---       LVL=0

      01000046H   BLOCK     CODE     ---       LVL=0
      00000022H   SYMBOL    DATA     FLOAT     ms
      00000020H.2 SYMBOL    BIT      BIT       en
      0100004EH   BLOCK     CODE     NEAR LAB  LVL=1
      02000000H   SYMBOL    PDATA    WORD      T
      ---         BLOCKEND  ---      ---       LVL=1
      01000046H   LINE      CODE     ---       #107
      0100004EH   LINE      CODE     ---       #108
      0100004EH   LINE      CODE     ---       #110
      01000051H   LINE      CODE     ---       #112
      01000076H   LINE      CODE     ---       #113
      0100007BH   LINE      CODE     ---       #114
      01000081H   LINE      CODE     ---       #115
      01000086H   LINE      CODE     ---       #116
      01000089H   LINE      CODE     ---       #117
      ---         BLOCKEND  ---      ---       LVL=0

      01002521H   BLOCK     CODE     ---       LVL=0
      01002521H   LINE      CODE     ---       #118
      01002521H   LINE      CODE     ---       #119
LX51 LINKER/LOCATER V4.66.93.0                                                        05/06/2020  16:02:27  PAGE 33


      01002521H   LINE      CODE     ---       #120
      01002523H   LINE      CODE     ---       #121
      01002525H   LINE      CODE     ---       #122
      0100252BH   LINE      CODE     ---       #123
      0100252EH   LINE      CODE     ---       #125
      01002533H   LINE      CODE     ---       #126
      01002538H   LINE      CODE     ---       #127
      0100253EH   LINE      CODE     ---       #129
      01002540H   LINE      CODE     ---       #130
      ---         BLOCKEND  ---      ---       LVL=0

      ---         MODULE    ---      ---       DELAY
      010025D6H   PUBLIC    CODE     ---       Delay765ms
      0100259FH   PUBLIC    CODE     ---       Delay385ms
      010025C9H   PUBLIC    CODE     ---       Delay200ms
      010025BCH   PUBLIC    CODE     ---       Delay100ms
      01002622H   PUBLIC    CODE     ---       Delay1ms
      0100008AH   PUBLIC    CODE     ---       Delay485us
      01002618H   PUBLIC    CODE     ---       Delay130us
      010025F9H   PUBLIC    CODE     ---       Delay60us
      0100260EH   PUBLIC    CODE     ---       Delay40us
      01002644H   PUBLIC    CODE     ---       Delay10us
      0100003DH   PUBLIC    CODE     ---       Delay1us
      000000D8H.2 SFRSYM    DATA     BIT       CCF2
      00000092H   SFRSYM    DATA     BYTE      P1M0
      00000093H   SFRSYM    DATA     BYTE      P0M1
      000000D8H.3 SFRSYM    DATA     BIT       CCF3
      00000096H   SFRSYM    DATA     BYTE      P2M0
      00000091H   SFRSYM    DATA     BYTE      P1M1
      00000080H   SFRSYM    DATA     BYTE      P0
      000000B2H   SFRSYM    DATA     BYTE      P3M0
      00000095H   SFRSYM    DATA     BYTE      P2M1
      00000090H   SFRSYM    DATA     BYTE      P1
      000000B4H   SFRSYM    DATA     BYTE      P4M0
      000000B1H   SFRSYM    DATA     BYTE      P3M1
      000000A0H   SFRSYM    DATA     BYTE      P2
      000000ABH   SFRSYM    DATA     BYTE      WKTCH
      000000CAH   SFRSYM    DATA     BYTE      P5M0
      000000B3H   SFRSYM    DATA     BYTE      P4M1
      000000B0H   SFRSYM    DATA     BYTE      P3
      000000CCH   SFRSYM    DATA     BYTE      P6M0
      000000C9H   SFRSYM    DATA     BYTE      P5M1
      000000C0H   SFRSYM    DATA     BYTE      P4
      000000D0H.6 SFRSYM    DATA     BIT       AC
      000000F6H   SFRSYM    DATA     BYTE      PWMIF
      000000C6H   SFRSYM    DATA     BYTE      ISP_TRIG
      000000E2H   SFRSYM    DATA     BYTE      P7M0
      000000CBH   SFRSYM    DATA     BYTE      P6M1
      000000C8H   SFRSYM    DATA     BYTE      P5
      000000A8H.7 SFRSYM    DATA     BIT       EA
      000000E1H   SFRSYM    DATA     BYTE      P7M1
      000000E8H   SFRSYM    DATA     BYTE      P6
      000000AAH   SFRSYM    DATA     BYTE      WKTCL
      000000F8H   SFRSYM    DATA     BYTE      P7
      000000CEH   SFRSYM    DATA     BYTE      SPCTL
      000000D8H.7 SFRSYM    DATA     BIT       CF
      000000FEH   SFRSYM    DATA     BYTE      PWMCR
      000000F9H   SFRSYM    DATA     BYTE      CH
      000000A2H   SFRSYM    DATA     BYTE      P_SW1
      000000BAH   SFRSYM    DATA     BYTE      P_SW2
      000000A8H.5 SFRSYM    DATA     BIT       EADC
      000000A8H   SFRSYM    DATA     BYTE      IE
      000000E5H   SFRSYM    DATA     BYTE      DPH1
      000000E9H   SFRSYM    DATA     BYTE      CL
      000000C5H   SFRSYM    DATA     BYTE      IAP_CMD
LX51 LINKER/LOCATER V4.66.93.0                                                        05/06/2020  16:02:27  PAGE 34


      000000FAH   SFRSYM    DATA     BYTE      CCAP0H
      000000B0H.2 SFRSYM    DATA     BIT       LCD1602_EN
      00000090H.0 SFRSYM    DATA     BIT       LED_RED
      000000FBH   SFRSYM    DATA     BYTE      CCAP1H
      000000E4H   SFRSYM    DATA     BYTE      DPL1
      000000FCH   SFRSYM    DATA     BYTE      CCAP2H
      000000FDH   SFRSYM    DATA     BYTE      CCAP3H
      000000BDH   SFRSYM    DATA     BYTE      ADC_RES
      000000B6H   SFRSYM    DATA     BYTE      IP2H
      000000EAH   SFRSYM    DATA     BYTE      CCAP0L
      000000D8H.6 SFRSYM    DATA     BIT       CR
      000000AEH   SFRSYM    DATA     BYTE      TA
      000000F7H   SFRSYM    DATA     BYTE      PWMFDCR
      000000EBH   SFRSYM    DATA     BYTE      CCAP1L
      000000DAH   SFRSYM    DATA     BYTE      CCAPM0
      000000ECH   SFRSYM    DATA     BYTE      CCAP2L
      000000DBH   SFRSYM    DATA     BYTE      CCAPM1
      0000008FH   SFRSYM    DATA     BYTE      INTCLKO
      000000EDH   SFRSYM    DATA     BYTE      CCAP3L
      000000DCH   SFRSYM    DATA     BYTE      CCAPM2
      000000A8H.4 SFRSYM    DATA     BIT       ES
      000000DDH   SFRSYM    DATA     BYTE      CCAPM3
      000000B8H.5 SFRSYM    DATA     BIT       PADC
      000000B8H   SFRSYM    DATA     BYTE      IP
      000000DEH   SFRSYM    DATA     BYTE      ADCCFG
      00000098H.0 SFRSYM    DATA     BIT       RI
      000000D0H.7 SFRSYM    DATA     BIT       CY
      00000098H.1 SFRSYM    DATA     BIT       TI
      000000C3H   SFRSYM    DATA     BYTE      IAP_ADDRH
      000000C0H.1 SFRSYM    DATA     BIT       DS18B20_DATA
      000000C5H   SFRSYM    DATA     BYTE      ISP_CMD
      000000B8H.4 SFRSYM    DATA     BIT       PS
      00000081H   SFRSYM    DATA     BYTE      SP
      000000A0H.7 SFRSYM    DATA     BIT       LCD1602_Busy
      000000B0H.5 SFRSYM    DATA     BIT       LCD1602_RS
      000000D9H   SFRSYM    DATA     BYTE      CMOD
      000000D8H   SFRSYM    DATA     BYTE      CCON
      000000C4H   SFRSYM    DATA     BYTE      IAP_ADDRL
      000000B8H.7 SFRSYM    DATA     BIT       PPCA
      000000D0H.2 SFRSYM    DATA     BIT       OV
      000000B0H.4 SFRSYM    DATA     BIT       LCD1602_RW
      000000E6H   SFRSYM    DATA     BYTE      CMPCR1
      00000090H.1 SFRSYM    DATA     BIT       LED_GREEN
      000000E7H   SFRSYM    DATA     BYTE      CMPCR2
      000000A8H.6 SFRSYM    DATA     BIT       ELVD
      00000080H.0 SFRSYM    DATA     BIT       P00
      000000BCH   SFRSYM    DATA     BYTE      ADC_CONTR
      00000099H   SFRSYM    DATA     BYTE      SBUF
      00000087H   SFRSYM    DATA     BYTE      PCON
      00000090H.0 SFRSYM    DATA     BIT       P10
      00000080H.1 SFRSYM    DATA     BIT       P01
      000000C3H   SFRSYM    DATA     BYTE      ISP_ADDRH
      000000A0H.0 SFRSYM    DATA     BIT       P20
      00000090H.1 SFRSYM    DATA     BIT       P11
      00000080H.2 SFRSYM    DATA     BIT       P02
      000000B0H.0 SFRSYM    DATA     BIT       P30
      000000A0H.1 SFRSYM    DATA     BIT       P21
      00000090H.2 SFRSYM    DATA     BIT       P12
      00000080H.3 SFRSYM    DATA     BIT       P03
      00000098H   SFRSYM    DATA     BYTE      SCON
      000000C0H.0 SFRSYM    DATA     BIT       P40
      000000B0H.1 SFRSYM    DATA     BIT       P31
      000000A0H.2 SFRSYM    DATA     BIT       P22
      00000090H.3 SFRSYM    DATA     BIT       P13
      00000080H.4 SFRSYM    DATA     BIT       P04
LX51 LINKER/LOCATER V4.66.93.0                                                        05/06/2020  16:02:27  PAGE 35


      00000089H   SFRSYM    DATA     BYTE      TMOD
      00000088H   SFRSYM    DATA     BYTE      TCON
      000000C8H.0 SFRSYM    DATA     BIT       P50
      000000C0H.1 SFRSYM    DATA     BIT       P41
      000000B0H.2 SFRSYM    DATA     BIT       P32
      000000A0H.3 SFRSYM    DATA     BIT       P23
      00000090H.4 SFRSYM    DATA     BIT       P14
      00000080H.5 SFRSYM    DATA     BIT       P05
      000000C4H   SFRSYM    DATA     BYTE      ISP_ADDRL
      000000E8H.0 SFRSYM    DATA     BIT       P60
      000000C8H.1 SFRSYM    DATA     BIT       P51
      000000C0H.2 SFRSYM    DATA     BIT       P42
      000000B0H.3 SFRSYM    DATA     BIT       P33
      000000A0H.4 SFRSYM    DATA     BIT       P24
      00000090H.5 SFRSYM    DATA     BIT       P15
      00000080H.6 SFRSYM    DATA     BIT       P06
      000000B8H.6 SFRSYM    DATA     BIT       PLVD
      000000F8H.0 SFRSYM    DATA     BIT       P70
      000000E8H.1 SFRSYM    DATA     BIT       P61
      000000C8H.2 SFRSYM    DATA     BIT       P52
      000000C0H.3 SFRSYM    DATA     BIT       P43
      000000B0H.4 SFRSYM    DATA     BIT       P34
      000000A0H.5 SFRSYM    DATA     BIT       P25
      00000090H.6 SFRSYM    DATA     BIT       P16
      00000080H.7 SFRSYM    DATA     BIT       P07
      000000F8H.1 SFRSYM    DATA     BIT       P71
      000000E8H.2 SFRSYM    DATA     BIT       P62
      000000C8H.3 SFRSYM    DATA     BIT       P53
      000000C0H.4 SFRSYM    DATA     BIT       P44
      000000B0H.5 SFRSYM    DATA     BIT       P35
      000000A0H.6 SFRSYM    DATA     BIT       P26
      00000090H.7 SFRSYM    DATA     BIT       P17
      000000F8H.2 SFRSYM    DATA     BIT       P72
      000000E8H.3 SFRSYM    DATA     BIT       P63
      000000C8H.4 SFRSYM    DATA     BIT       P54
      000000C0H.5 SFRSYM    DATA     BIT       P45
      000000B0H.6 SFRSYM    DATA     BIT       P36
      000000A0H.7 SFRSYM    DATA     BIT       P27
      000000F8H.3 SFRSYM    DATA     BIT       P73
      000000E8H.4 SFRSYM    DATA     BIT       P64
      000000C8H.5 SFRSYM    DATA     BIT       P55
      000000C0H.6 SFRSYM    DATA     BIT       P46
      000000B0H.7 SFRSYM    DATA     BIT       P37
      000000F8H.4 SFRSYM    DATA     BIT       P74
      000000E8H.5 SFRSYM    DATA     BIT       P65
      000000C8H.6 SFRSYM    DATA     BIT       P56
      000000C0H.7 SFRSYM    DATA     BIT       P47
      000000F8H.5 SFRSYM    DATA     BIT       P75
      000000E8H.6 SFRSYM    DATA     BIT       P66
      000000C8H.7 SFRSYM    DATA     BIT       P57
      000000F8H.6 SFRSYM    DATA     BIT       P76
      000000E8H.7 SFRSYM    DATA     BIT       P67
      00000088H.1 SFRSYM    DATA     BIT       IE0
      000000A1H   SFRSYM    DATA     BYTE      BUS_SPEED
      000000F8H.7 SFRSYM    DATA     BIT       P77
      00000088H.3 SFRSYM    DATA     BIT       IE1
      000000AFH   SFRSYM    DATA     BYTE      IE2
      0000008EH   SFRSYM    DATA     BYTE      AUXR
      000000F0H   SFRSYM    DATA     BYTE      B
      000000C7H   SFRSYM    DATA     BYTE      IAP_CONTR
      000000F1H   SFRSYM    DATA     BYTE      PWMCFG
      000000E0H   SFRSYM    DATA     BYTE      ACC
      000000A8H.1 SFRSYM    DATA     BIT       ET0
      00000088H.5 SFRSYM    DATA     BIT       TF0
      000000A8H.3 SFRSYM    DATA     BIT       ET1
LX51 LINKER/LOCATER V4.66.93.0                                                        05/06/2020  16:02:27  PAGE 36


      00000088H.7 SFRSYM    DATA     BIT       TF1
      000000B5H   SFRSYM    DATA     BYTE      IP2
      000000FFH   SFRSYM    DATA     BYTE      RSTCFG
      00000098H.2 SFRSYM    DATA     BIT       RB8
      0000008CH   SFRSYM    DATA     BYTE      TH0
      0000008DH   SFRSYM    DATA     BYTE      TH1
      00000088H.0 SFRSYM    DATA     BIT       IT0
      000000A8H.0 SFRSYM    DATA     BIT       EX0
      00000098H.3 SFRSYM    DATA     BIT       TB8
      000000D6H   SFRSYM    DATA     BYTE      TH2
      000000D6H   SFRSYM    DATA     BYTE      T2H
      00000088H.2 SFRSYM    DATA     BIT       IT1
      000000A8H.2 SFRSYM    DATA     BIT       EX1
      000000D4H   SFRSYM    DATA     BYTE      TH3
      000000D4H   SFRSYM    DATA     BYTE      T3H
      000000D0H.0 SFRSYM    DATA     BIT       P
      00000098H.7 SFRSYM    DATA     BIT       SM0
      000000D2H   SFRSYM    DATA     BYTE      TH4
      000000D2H   SFRSYM    DATA     BYTE      T4H
      0000008AH   SFRSYM    DATA     BYTE      TL0
      00000098H.6 SFRSYM    DATA     BIT       SM1
      0000008BH   SFRSYM    DATA     BYTE      TL1
      00000098H.5 SFRSYM    DATA     BIT       SM2
      000000D7H   SFRSYM    DATA     BYTE      TL2
      000000D7H   SFRSYM    DATA     BYTE      T2L
      000000D5H   SFRSYM    DATA     BYTE      TL3
      000000D5H   SFRSYM    DATA     BYTE      T3L
      000000D3H   SFRSYM    DATA     BYTE      TL4
      000000D3H   SFRSYM    DATA     BYTE      T4L
      000000B8H.1 SFRSYM    DATA     BIT       PT0
      000000C7H   SFRSYM    DATA     BYTE      ISP_CONTR
      000000B8H.3 SFRSYM    DATA     BIT       PT1
      000000D0H.3 SFRSYM    DATA     BIT       RS0
      000000C2H   SFRSYM    DATA     BYTE      IAP_DATA
      00000088H.4 SFRSYM    DATA     BIT       TR0
      000000D0H.4 SFRSYM    DATA     BIT       RS1
      00000088H.6 SFRSYM    DATA     BIT       TR1
      000000C1H   SFRSYM    DATA     BYTE      WDT_CONTR
      000000B8H.0 SFRSYM    DATA     BIT       PX0
      000000B8H.2 SFRSYM    DATA     BIT       PX1
      000000F2H   SFRSYM    DATA     BYTE      PCA_PWM0
      000000F3H   SFRSYM    DATA     BYTE      PCA_PWM1
      000000F4H   SFRSYM    DATA     BYTE      PCA_PWM2
      000000BBH   SFRSYM    DATA     BYTE      VOCTRL
      00000083H   SFRSYM    DATA     BYTE      DPH
      000000F5H   SFRSYM    DATA     BYTE      PCA_PWM3
      000000D1H   SFRSYM    DATA     BYTE      T4T3M
      00000080H.7 SFRSYM    DATA     BIT       LED_BLUE
      000000BEH   SFRSYM    DATA     BYTE      ADC_RESL
      00000082H   SFRSYM    DATA     BYTE      DPL
      000000CDH   SFRSYM    DATA     BYTE      SPSTAT
      000000B7H   SFRSYM    DATA     BYTE      IPH
      0000009BH   SFRSYM    DATA     BYTE      S2BUF
      000000ADH   SFRSYM    DATA     BYTE      S3BUF
      00000085H   SFRSYM    DATA     BYTE      S4BUF
      00000098H.4 SFRSYM    DATA     BIT       REN
      0000009AH   SFRSYM    DATA     BYTE      S2CON
      000000ACH   SFRSYM    DATA     BYTE      S3CON
      000000E3H   SFRSYM    DATA     BYTE      DPS
      000000C2H   SFRSYM    DATA     BYTE      ISP_DATA
      00000084H   SFRSYM    DATA     BYTE      S4CON
      000000EFH   SFRSYM    DATA     BYTE      AUXINTIF
      000000B9H   SFRSYM    DATA     BYTE      SADEN
      000000A9H   SFRSYM    DATA     BYTE      SADDR
      000000C6H   SFRSYM    DATA     BYTE      IAP_TRIG
LX51 LINKER/LOCATER V4.66.93.0                                                        05/06/2020  16:02:27  PAGE 37


      00000097H   SFRSYM    DATA     BYTE      AUXR2
      000000D0H.5 SFRSYM    DATA     BIT       F0
      000000D0H   SFRSYM    DATA     BYTE      PSW
      000000D8H.0 SFRSYM    DATA     BIT       CCF0
      000000D8H.1 SFRSYM    DATA     BIT       CCF1
      000000CFH   SFRSYM    DATA     BYTE      SPDAT
      00000094H   SFRSYM    DATA     BYTE      P0M0

      0100003DH   BLOCK     CODE     ---       LVL=0
      0100003DH   BLOCK     CODE     NEAR LAB  LVL=1
      00000007H   SYMBOL    DATA     BYTE      i
      ---         BLOCKEND  ---      ---       LVL=1
      0100003DH   LINE      CODE     ---       #22496
      ---         BLOCKEND  ---      ---       LVL=0

      01002644H   BLOCK     CODE     ---       LVL=0
      01002644H   BLOCK     CODE     NEAR LAB  LVL=1
      00000007H   SYMBOL    DATA     BYTE      i
      ---         BLOCKEND  ---      ---       LVL=1
      01002644H   LINE      CODE     ---       #22523
      ---         BLOCKEND  ---      ---       LVL=0

      0100260EH   BLOCK     CODE     ---       LVL=0
      0100260EH   BLOCK     CODE     NEAR LAB  LVL=1
      00000007H   SYMBOL    DATA     BYTE      i
      00000006H   SYMBOL    DATA     BYTE      j
      ---         BLOCKEND  ---      ---       LVL=1
      0100260EH   LINE      CODE     ---       #22613
      ---         BLOCKEND  ---      ---       LVL=0
      00000007H   SYMBOL    DATA     BYTE      i
      00000006H   SYMBOL    DATA     BYTE      j

      010025F9H   BLOCK     CODE     ---       LVL=0
      010025F9H   BLOCK     CODE     NEAR LAB  LVL=1
      00000007H   SYMBOL    DATA     BYTE      i
      00000006H   SYMBOL    DATA     BYTE      j
      ---         BLOCKEND  ---      ---       LVL=1
      010025F9H   LINE      CODE     ---       #22673
      ---         BLOCKEND  ---      ---       LVL=0

      01002618H   BLOCK     CODE     ---       LVL=0
      01002618H   BLOCK     CODE     NEAR LAB  LVL=1
      00000007H   SYMBOL    DATA     BYTE      i
      00000006H   SYMBOL    DATA     BYTE      j
      ---         BLOCKEND  ---      ---       LVL=1
      01002618H   LINE      CODE     ---       #22883
      ---         BLOCKEND  ---      ---       LVL=0

      0100008AH   BLOCK     CODE     ---       LVL=0
      0100008AH   BLOCK     CODE     NEAR LAB  LVL=1
      00000007H   SYMBOL    DATA     BYTE      i
      00000006H   SYMBOL    DATA     BYTE      j
      ---         BLOCKEND  ---      ---       LVL=1
      0100008AH   LINE      CODE     ---       #23948
      ---         BLOCKEND  ---      ---       LVL=0

      01002622H   BLOCK     CODE     ---       LVL=0
      01002622H   BLOCK     CODE     NEAR LAB  LVL=1
      00000007H   SYMBOL    DATA     BYTE      i
      00000006H   SYMBOL    DATA     BYTE      j
      ---         BLOCKEND  ---      ---       LVL=1
      01002622H   LINE      CODE     ---       #25493
      ---         BLOCKEND  ---      ---       LVL=0

      010025BCH   BLOCK     CODE     ---       LVL=0
LX51 LINKER/LOCATER V4.66.93.0                                                        05/06/2020  16:02:27  PAGE 38


      010025BCH   BLOCK     CODE     NEAR LAB  LVL=1
      00000007H   SYMBOL    DATA     BYTE      i
      00000006H   SYMBOL    DATA     BYTE      j
      00000005H   SYMBOL    DATA     BYTE      k
      ---         BLOCKEND  ---      ---       LVL=1
      010025BCH   LINE      CODE     ---       #25790
      ---         BLOCKEND  ---      ---       LVL=0

      010025C9H   BLOCK     CODE     ---       LVL=0
      010025C9H   BLOCK     CODE     NEAR LAB  LVL=1
      00000007H   SYMBOL    DATA     BYTE      i
      00000006H   SYMBOL    DATA     BYTE      j
      00000005H   SYMBOL    DATA     BYTE      k
      ---         BLOCKEND  ---      ---       LVL=1
      010025C9H   LINE      CODE     ---       #26090
      ---         BLOCKEND  ---      ---       LVL=0

      0100259FH   BLOCK     CODE     ---       LVL=0
      0100259FH   BLOCK     CODE     NEAR LAB  LVL=1
      00000007H   SYMBOL    DATA     BYTE      i
      00000006H   SYMBOL    DATA     BYTE      j
      00000005H   SYMBOL    DATA     BYTE      k
      ---         BLOCKEND  ---      ---       LVL=1
      0100259FH   LINE      CODE     ---       #26645
      ---         BLOCKEND  ---      ---       LVL=0

      010025D6H   BLOCK     CODE     ---       LVL=0
      010025D6H   BLOCK     CODE     NEAR LAB  LVL=1
      00000007H   SYMBOL    DATA     BYTE      i
      00000006H   SYMBOL    DATA     BYTE      j
      00000005H   SYMBOL    DATA     BYTE      k
      ---         BLOCKEND  ---      ---       LVL=1
      010025D6H   LINE      CODE     ---       #27785
      ---         BLOCKEND  ---      ---       LVL=0

      ---         MODULE    ---      ---       DS18B20
      02000720H   PUBLIC    XDATA    ---       DS18B20ST
      01002ACDH   PUBLIC    CONST    ---       DS18B20ReTransfrom
      01002AC5H   PUBLIC    CONST    ---       DS18B20ConvertTMaxTime
      01001AABH   PUBLIC    CODE     ---       DS18B20GetTemperature
      0100256AH   PUBLIC    CODE     ---       DS18B20ConvertTemperature
      01001E25H   PUBLIC    CODE     ---       DS18B20STInit
      000000D8H.2 SFRSYM    DATA     BIT       CCF2
      00000092H   SFRSYM    DATA     BYTE      P1M0
      00000093H   SFRSYM    DATA     BYTE      P0M1
      000000D8H.3 SFRSYM    DATA     BIT       CCF3
      00000096H   SFRSYM    DATA     BYTE      P2M0
      00000091H   SFRSYM    DATA     BYTE      P1M1
      00000080H   SFRSYM    DATA     BYTE      P0
      000000B2H   SFRSYM    DATA     BYTE      P3M0
      00000095H   SFRSYM    DATA     BYTE      P2M1
      00000090H   SFRSYM    DATA     BYTE      P1
      000000B4H   SFRSYM    DATA     BYTE      P4M0
      000000B1H   SFRSYM    DATA     BYTE      P3M1
      000000A0H   SFRSYM    DATA     BYTE      P2
      000000ABH   SFRSYM    DATA     BYTE      WKTCH
      000000CAH   SFRSYM    DATA     BYTE      P5M0
      000000B3H   SFRSYM    DATA     BYTE      P4M1
      000000B0H   SFRSYM    DATA     BYTE      P3
      000000CCH   SFRSYM    DATA     BYTE      P6M0
      000000C9H   SFRSYM    DATA     BYTE      P5M1
      000000C0H   SFRSYM    DATA     BYTE      P4
      000000D0H.6 SFRSYM    DATA     BIT       AC
      000000F6H   SFRSYM    DATA     BYTE      PWMIF
      000000C6H   SFRSYM    DATA     BYTE      ISP_TRIG
LX51 LINKER/LOCATER V4.66.93.0                                                        05/06/2020  16:02:27  PAGE 39


      000000E2H   SFRSYM    DATA     BYTE      P7M0
      000000CBH   SFRSYM    DATA     BYTE      P6M1
      000000C8H   SFRSYM    DATA     BYTE      P5
      000000A8H.7 SFRSYM    DATA     BIT       EA
      000000E1H   SFRSYM    DATA     BYTE      P7M1
      000000E8H   SFRSYM    DATA     BYTE      P6
      000000AAH   SFRSYM    DATA     BYTE      WKTCL
      000000F8H   SFRSYM    DATA     BYTE      P7
      000000CEH   SFRSYM    DATA     BYTE      SPCTL
      000000D8H.7 SFRSYM    DATA     BIT       CF
      000000FEH   SFRSYM    DATA     BYTE      PWMCR
      000000F9H   SFRSYM    DATA     BYTE      CH
      000000A2H   SFRSYM    DATA     BYTE      P_SW1
      000000BAH   SFRSYM    DATA     BYTE      P_SW2
      000000A8H.5 SFRSYM    DATA     BIT       EADC
      000000A8H   SFRSYM    DATA     BYTE      IE
      000000E5H   SFRSYM    DATA     BYTE      DPH1
      000000E9H   SFRSYM    DATA     BYTE      CL
      000000C5H   SFRSYM    DATA     BYTE      IAP_CMD
      000000FAH   SFRSYM    DATA     BYTE      CCAP0H
      000000B0H.2 SFRSYM    DATA     BIT       LCD1602_EN
      00000090H.0 SFRSYM    DATA     BIT       LED_RED
      000000FBH   SFRSYM    DATA     BYTE      CCAP1H
      000000E4H   SFRSYM    DATA     BYTE      DPL1
      000000FCH   SFRSYM    DATA     BYTE      CCAP2H
      000000FDH   SFRSYM    DATA     BYTE      CCAP3H
      000000BDH   SFRSYM    DATA     BYTE      ADC_RES
      000000B6H   SFRSYM    DATA     BYTE      IP2H
      000000EAH   SFRSYM    DATA     BYTE      CCAP0L
      000000D8H.6 SFRSYM    DATA     BIT       CR
      000000AEH   SFRSYM    DATA     BYTE      TA
      000000F7H   SFRSYM    DATA     BYTE      PWMFDCR
      000000EBH   SFRSYM    DATA     BYTE      CCAP1L
      000000DAH   SFRSYM    DATA     BYTE      CCAPM0
      000000ECH   SFRSYM    DATA     BYTE      CCAP2L
      000000DBH   SFRSYM    DATA     BYTE      CCAPM1
      0000008FH   SFRSYM    DATA     BYTE      INTCLKO
      000000EDH   SFRSYM    DATA     BYTE      CCAP3L
      000000DCH   SFRSYM    DATA     BYTE      CCAPM2
      000000A8H.4 SFRSYM    DATA     BIT       ES
      000000DDH   SFRSYM    DATA     BYTE      CCAPM3
      000000B8H.5 SFRSYM    DATA     BIT       PADC
      000000B8H   SFRSYM    DATA     BYTE      IP
      000000DEH   SFRSYM    DATA     BYTE      ADCCFG
      00000098H.0 SFRSYM    DATA     BIT       RI
      000000D0H.7 SFRSYM    DATA     BIT       CY
      00000098H.1 SFRSYM    DATA     BIT       TI
      000000C3H   SFRSYM    DATA     BYTE      IAP_ADDRH
      000000C0H.1 SFRSYM    DATA     BIT       DS18B20_DATA
      000000C5H   SFRSYM    DATA     BYTE      ISP_CMD
      000000B8H.4 SFRSYM    DATA     BIT       PS
      00000081H   SFRSYM    DATA     BYTE      SP
      000000A0H.7 SFRSYM    DATA     BIT       LCD1602_Busy
      000000B0H.5 SFRSYM    DATA     BIT       LCD1602_RS
      000000D9H   SFRSYM    DATA     BYTE      CMOD
      000000D8H   SFRSYM    DATA     BYTE      CCON
      000000C4H   SFRSYM    DATA     BYTE      IAP_ADDRL
      000000B8H.7 SFRSYM    DATA     BIT       PPCA
      000000D0H.2 SFRSYM    DATA     BIT       OV
      000000B0H.4 SFRSYM    DATA     BIT       LCD1602_RW
      000000E6H   SFRSYM    DATA     BYTE      CMPCR1
      00000090H.1 SFRSYM    DATA     BIT       LED_GREEN
      000000E7H   SFRSYM    DATA     BYTE      CMPCR2
      000000A8H.6 SFRSYM    DATA     BIT       ELVD
      00000080H.0 SFRSYM    DATA     BIT       P00
LX51 LINKER/LOCATER V4.66.93.0                                                        05/06/2020  16:02:27  PAGE 40


      000000BCH   SFRSYM    DATA     BYTE      ADC_CONTR
      00000099H   SFRSYM    DATA     BYTE      SBUF
      00000087H   SFRSYM    DATA     BYTE      PCON
      00000090H.0 SFRSYM    DATA     BIT       P10
      00000080H.1 SFRSYM    DATA     BIT       P01
      000000C3H   SFRSYM    DATA     BYTE      ISP_ADDRH
      000000A0H.0 SFRSYM    DATA     BIT       P20
      00000090H.1 SFRSYM    DATA     BIT       P11
      00000080H.2 SFRSYM    DATA     BIT       P02
      000000B0H.0 SFRSYM    DATA     BIT       P30
      000000A0H.1 SFRSYM    DATA     BIT       P21
      00000090H.2 SFRSYM    DATA     BIT       P12
      00000080H.3 SFRSYM    DATA     BIT       P03
      00000098H   SFRSYM    DATA     BYTE      SCON
      000000C0H.0 SFRSYM    DATA     BIT       P40
      000000B0H.1 SFRSYM    DATA     BIT       P31
      000000A0H.2 SFRSYM    DATA     BIT       P22
      00000090H.3 SFRSYM    DATA     BIT       P13
      00000080H.4 SFRSYM    DATA     BIT       P04
      00000089H   SFRSYM    DATA     BYTE      TMOD
      00000088H   SFRSYM    DATA     BYTE      TCON
      000000C8H.0 SFRSYM    DATA     BIT       P50
      000000C0H.1 SFRSYM    DATA     BIT       P41
      000000B0H.2 SFRSYM    DATA     BIT       P32
      000000A0H.3 SFRSYM    DATA     BIT       P23
      00000090H.4 SFRSYM    DATA     BIT       P14
      00000080H.5 SFRSYM    DATA     BIT       P05
      000000C4H   SFRSYM    DATA     BYTE      ISP_ADDRL
      000000E8H.0 SFRSYM    DATA     BIT       P60
      000000C8H.1 SFRSYM    DATA     BIT       P51
      000000C0H.2 SFRSYM    DATA     BIT       P42
      000000B0H.3 SFRSYM    DATA     BIT       P33
      000000A0H.4 SFRSYM    DATA     BIT       P24
      00000090H.5 SFRSYM    DATA     BIT       P15
      00000080H.6 SFRSYM    DATA     BIT       P06
      000000B8H.6 SFRSYM    DATA     BIT       PLVD
      000000F8H.0 SFRSYM    DATA     BIT       P70
      000000E8H.1 SFRSYM    DATA     BIT       P61
      000000C8H.2 SFRSYM    DATA     BIT       P52
      000000C0H.3 SFRSYM    DATA     BIT       P43
      000000B0H.4 SFRSYM    DATA     BIT       P34
      000000A0H.5 SFRSYM    DATA     BIT       P25
      00000090H.6 SFRSYM    DATA     BIT       P16
      00000080H.7 SFRSYM    DATA     BIT       P07
      000000F8H.1 SFRSYM    DATA     BIT       P71
      000000E8H.2 SFRSYM    DATA     BIT       P62
      000000C8H.3 SFRSYM    DATA     BIT       P53
      000000C0H.4 SFRSYM    DATA     BIT       P44
      000000B0H.5 SFRSYM    DATA     BIT       P35
      000000A0H.6 SFRSYM    DATA     BIT       P26
      00000090H.7 SFRSYM    DATA     BIT       P17
      000000F8H.2 SFRSYM    DATA     BIT       P72
      000000E8H.3 SFRSYM    DATA     BIT       P63
      000000C8H.4 SFRSYM    DATA     BIT       P54
      000000C0H.5 SFRSYM    DATA     BIT       P45
      000000B0H.6 SFRSYM    DATA     BIT       P36
      000000A0H.7 SFRSYM    DATA     BIT       P27
      000000F8H.3 SFRSYM    DATA     BIT       P73
      000000E8H.4 SFRSYM    DATA     BIT       P64
      000000C8H.5 SFRSYM    DATA     BIT       P55
      000000C0H.6 SFRSYM    DATA     BIT       P46
      000000B0H.7 SFRSYM    DATA     BIT       P37
      000000F8H.4 SFRSYM    DATA     BIT       P74
      000000E8H.5 SFRSYM    DATA     BIT       P65
      000000C8H.6 SFRSYM    DATA     BIT       P56
LX51 LINKER/LOCATER V4.66.93.0                                                        05/06/2020  16:02:27  PAGE 41


      000000C0H.7 SFRSYM    DATA     BIT       P47
      000000F8H.5 SFRSYM    DATA     BIT       P75
      000000E8H.6 SFRSYM    DATA     BIT       P66
      000000C8H.7 SFRSYM    DATA     BIT       P57
      000000F8H.6 SFRSYM    DATA     BIT       P76
      000000E8H.7 SFRSYM    DATA     BIT       P67
      00000088H.1 SFRSYM    DATA     BIT       IE0
      000000A1H   SFRSYM    DATA     BYTE      BUS_SPEED
      000000F8H.7 SFRSYM    DATA     BIT       P77
      00000088H.3 SFRSYM    DATA     BIT       IE1
      000000AFH   SFRSYM    DATA     BYTE      IE2
      0000008EH   SFRSYM    DATA     BYTE      AUXR
      000000F0H   SFRSYM    DATA     BYTE      B
      000000C7H   SFRSYM    DATA     BYTE      IAP_CONTR
      000000F1H   SFRSYM    DATA     BYTE      PWMCFG
      000000E0H   SFRSYM    DATA     BYTE      ACC
      000000A8H.1 SFRSYM    DATA     BIT       ET0
      00000088H.5 SFRSYM    DATA     BIT       TF0
      000000A8H.3 SFRSYM    DATA     BIT       ET1
      00000088H.7 SFRSYM    DATA     BIT       TF1
      000000B5H   SFRSYM    DATA     BYTE      IP2
      000000FFH   SFRSYM    DATA     BYTE      RSTCFG
      00000098H.2 SFRSYM    DATA     BIT       RB8
      0000008CH   SFRSYM    DATA     BYTE      TH0
      0000008DH   SFRSYM    DATA     BYTE      TH1
      00000088H.0 SFRSYM    DATA     BIT       IT0
      000000A8H.0 SFRSYM    DATA     BIT       EX0
      00000098H.3 SFRSYM    DATA     BIT       TB8
      000000D6H   SFRSYM    DATA     BYTE      TH2
      000000D6H   SFRSYM    DATA     BYTE      T2H
      00000088H.2 SFRSYM    DATA     BIT       IT1
      000000A8H.2 SFRSYM    DATA     BIT       EX1
      000000D4H   SFRSYM    DATA     BYTE      TH3
      000000D4H   SFRSYM    DATA     BYTE      T3H
      000000D0H.0 SFRSYM    DATA     BIT       P
      00000098H.7 SFRSYM    DATA     BIT       SM0
      000000D2H   SFRSYM    DATA     BYTE      TH4
      000000D2H   SFRSYM    DATA     BYTE      T4H
      0000008AH   SFRSYM    DATA     BYTE      TL0
      00000098H.6 SFRSYM    DATA     BIT       SM1
      0000008BH   SFRSYM    DATA     BYTE      TL1
      00000098H.5 SFRSYM    DATA     BIT       SM2
      000000D7H   SFRSYM    DATA     BYTE      TL2
      000000D7H   SFRSYM    DATA     BYTE      T2L
      000000D5H   SFRSYM    DATA     BYTE      TL3
      000000D5H   SFRSYM    DATA     BYTE      T3L
      000000D3H   SFRSYM    DATA     BYTE      TL4
      000000D3H   SFRSYM    DATA     BYTE      T4L
      000000B8H.1 SFRSYM    DATA     BIT       PT0
      000000C7H   SFRSYM    DATA     BYTE      ISP_CONTR
      000000B8H.3 SFRSYM    DATA     BIT       PT1
      000000D0H.3 SFRSYM    DATA     BIT       RS0
      000000C2H   SFRSYM    DATA     BYTE      IAP_DATA
      00000088H.4 SFRSYM    DATA     BIT       TR0
      000000D0H.4 SFRSYM    DATA     BIT       RS1
      00000088H.6 SFRSYM    DATA     BIT       TR1
      000000C1H   SFRSYM    DATA     BYTE      WDT_CONTR
      000000B8H.0 SFRSYM    DATA     BIT       PX0
      000000B8H.2 SFRSYM    DATA     BIT       PX1
      000000F2H   SFRSYM    DATA     BYTE      PCA_PWM0
      000000F3H   SFRSYM    DATA     BYTE      PCA_PWM1
      000000F4H   SFRSYM    DATA     BYTE      PCA_PWM2
      000000BBH   SFRSYM    DATA     BYTE      VOCTRL
      00000083H   SFRSYM    DATA     BYTE      DPH
      000000F5H   SFRSYM    DATA     BYTE      PCA_PWM3
LX51 LINKER/LOCATER V4.66.93.0                                                        05/06/2020  16:02:27  PAGE 42


      000000D1H   SFRSYM    DATA     BYTE      T4T3M
      00000080H.7 SFRSYM    DATA     BIT       LED_BLUE
      000000BEH   SFRSYM    DATA     BYTE      ADC_RESL
      00000082H   SFRSYM    DATA     BYTE      DPL
      000000CDH   SFRSYM    DATA     BYTE      SPSTAT
      000000B7H   SFRSYM    DATA     BYTE      IPH
      0000009BH   SFRSYM    DATA     BYTE      S2BUF
      000000ADH   SFRSYM    DATA     BYTE      S3BUF
      00000085H   SFRSYM    DATA     BYTE      S4BUF
      00000098H.4 SFRSYM    DATA     BIT       REN
      0000009AH   SFRSYM    DATA     BYTE      S2CON
      000000ACH   SFRSYM    DATA     BYTE      S3CON
      000000E3H   SFRSYM    DATA     BYTE      DPS
      000000C2H   SFRSYM    DATA     BYTE      ISP_DATA
      00000084H   SFRSYM    DATA     BYTE      S4CON
      000000EFH   SFRSYM    DATA     BYTE      AUXINTIF
      000000B9H   SFRSYM    DATA     BYTE      SADEN
      000000A9H   SFRSYM    DATA     BYTE      SADDR
      000000C6H   SFRSYM    DATA     BYTE      IAP_TRIG
      00000097H   SFRSYM    DATA     BYTE      AUXR2
      000000D0H.5 SFRSYM    DATA     BIT       F0
      000000D0H   SFRSYM    DATA     BYTE      PSW
      000000D8H.0 SFRSYM    DATA     BIT       CCF0
      000000D8H.1 SFRSYM    DATA     BIT       CCF1
      000000CFH   SFRSYM    DATA     BYTE      SPDAT
      00000094H   SFRSYM    DATA     BYTE      P0M0
      01002286H   SYMBOL    CODE     ---       DS18B20ReadByte
      01002459H   SYMBOL    CODE     ---       DS18B20Init
      010023FFH   SYMBOL    CODE     ---       _DS18B20WriteByte

      010022C0H   BLOCK     CODE     ---       LVL=0
      ---         BLOCKEND  ---      ---       LVL=0

      01001E25H   BLOCK     CODE     ---       LVL=0
      01001E25H   BLOCK     CODE     NEAR LAB  LVL=1
      00000007H   SYMBOL    DATA     BYTE      Temp
      00000022H   SYMBOL    DATA     BYTE      TH
      00000023H   SYMBOL    DATA     BYTE      TL
      ---         BLOCKEND  ---      ---       LVL=1
      01001E25H   LINE      CODE     ---       #11
      01001E25H   LINE      CODE     ---       #12
      01001E25H   LINE      CODE     ---       #14
      01001E34H   LINE      CODE     ---       #15
      01001E39H   LINE      CODE     ---       #16
      01001E39H   LINE      CODE     ---       #17
      01001E3EH   LINE      CODE     ---       #18
      01001E43H   LINE      CODE     ---       #19
      01001E49H   LINE      CODE     ---       #20
      01001E53H   LINE      CODE     ---       #21
      01001E56H   LINE      CODE     ---       #22
      01001E64H   LINE      CODE     ---       #23
      01001E7BH   LINE      CODE     ---       #24
      01001E9DH   LINE      CODE     ---       #25
      01001EB5H   LINE      CODE     ---       #26
      01001ED4H   LINE      CODE     ---       #27
      01001ED9H   LINE      CODE     ---       #28
      01001ED9H   LINE      CODE     ---       #32
      01001EE9H   LINE      CODE     ---       #33
      01001EE9H   LINE      CODE     ---       #34
      01001EE9H   LINE      CODE     ---       #35
      01001EECH   LINE      CODE     ---       #36
      01001EEEH   LINE      CODE     ---       #37
      01001EEEH   LINE      CODE     ---       #38
      01001EF1H   LINE      CODE     ---       #39
      01001EF3H   LINE      CODE     ---       #40
LX51 LINKER/LOCATER V4.66.93.0                                                        05/06/2020  16:02:27  PAGE 43


      01001EF3H   LINE      CODE     ---       #41
      01001EF6H   LINE      CODE     ---       #42
      01001EF8H   LINE      CODE     ---       #43
      01001EF8H   LINE      CODE     ---       #44
      01001EFBH   LINE      CODE     ---       #45
      01001EFBH   LINE      CODE     ---       #46
      01001EFBH   LINE      CODE     ---       #47
      01001F00H   LINE      CODE     ---       #48
      01001F00H   LINE      CODE     ---       #58
      ---         BLOCKEND  ---      ---       LVL=0

      0100256AH   BLOCK     CODE     ---       LVL=0
      0100256AH   LINE      CODE     ---       #74
      0100256AH   LINE      CODE     ---       #75
      0100256AH   LINE      CODE     ---       #76
      0100256FH   LINE      CODE     ---       #77
      01002570H   LINE      CODE     ---       #78
      01002575H   LINE      CODE     ---       #79
      0100257AH   LINE      CODE     ---       #80
      0100257BH   LINE      CODE     ---       #81
      ---         BLOCKEND  ---      ---       LVL=0

      01001AABH   BLOCK     CODE     ---       LVL=0
      01001AABH   BLOCK     CODE     NEAR LAB  LVL=1
      02000000H   SYMBOL    PDATA    BYTE      H
      02000001H   SYMBOL    PDATA    BYTE      L
      02000002H   SYMBOL    PDATA    WORD      T
      02000004H   SYMBOL    PDATA    WORD      Base
      ---         BLOCKEND  ---      ---       LVL=1
      01001AABH   LINE      CODE     ---       #82
      01001AABH   LINE      CODE     ---       #83
      01001AABH   LINE      CODE     ---       #85
      01001AB4H   LINE      CODE     ---       #86
      01001AD7H   LINE      CODE     ---       #87
      01001ADCH   LINE      CODE     ---       #88
      01001ADDH   LINE      CODE     ---       #89
      01001AE2H   LINE      CODE     ---       #90
      01001AE7H   LINE      CODE     ---       #91
      01001AF5H   LINE      CODE     ---       #92
      01001B0FH   LINE      CODE     ---       #93
      01001B2BH   LINE      CODE     ---       #94
      01001B39H   LINE      CODE     ---       #95
      01001B39H   LINE      CODE     ---       #96
      01001B4CH   LINE      CODE     ---       #97
      01001B5EH   LINE      CODE     ---       #98
      01001B60H   LINE      CODE     ---       #100
      01001B70H   LINE      CODE     ---       #101
      01001B8EH   LINE      CODE     ---       #102
      01001B8EH   LINE      CODE     ---       #103
      01001B9FH   LINE      CODE     ---       #104
      01001BA6H   LINE      CODE     ---       #105
      01001BABH   LINE      CODE     ---       #106
      01001BBFH   LINE      CODE     ---       #107
      01001BC8H   LINE      CODE     ---       #108
      01001BDAH   LINE      CODE     ---       #109
      01001BE6H   LINE      CODE     ---       #110
      01001BF5H   LINE      CODE     ---       #111
      01001BFEH   LINE      CODE     ---       #112
      01001C13H   LINE      CODE     ---       #113
      01001C1CH   LINE      CODE     ---       #114
      01001C1CH   LINE      CODE     ---       #115
      01001C1DH   LINE      CODE     ---       #116
      ---         BLOCKEND  ---      ---       LVL=0

      01002459H   BLOCK     CODE     ---       LVL=0
LX51 LINKER/LOCATER V4.66.93.0                                                        05/06/2020  16:02:27  PAGE 44


      01002459H   BLOCK     CODE     NEAR LAB  LVL=1
      02000006H   SYMBOL    PDATA    BYTE      i
      ---         BLOCKEND  ---      ---       LVL=1
      01002459H   LINE      CODE     ---       #118
      01002459H   LINE      CODE     ---       #119
      01002459H   LINE      CODE     ---       #120
      0100245EH   LINE      CODE     ---       #121
      01002465H   LINE      CODE     ---       #122
      0100246AH   LINE      CODE     ---       #124
      0100246AH   LINE      CODE     ---       #125
      0100246DH   LINE      CODE     ---       #126
      01002477H   LINE      CODE     ---       #127
      0100247CH   LINE      CODE     ---       #128
      0100247CH   LINE      CODE     ---       #132
      0100247EH   LINE      CODE     ---       #133
      0100247EH   LINE      CODE     ---       #134
      01002480H   LINE      CODE     ---       #135
      01002483H   LINE      CODE     ---       #136
      01002484H   LINE      CODE     ---       #137
      ---         BLOCKEND  ---      ---       LVL=0

      010023FFH   BLOCK     CODE     ---       LVL=0
      00000024H   SYMBOL    DATA     BYTE      Byte
      01002401H   BLOCK     CODE     NEAR LAB  LVL=1
      02000006H   SYMBOL    PDATA    BYTE      i
      ---         BLOCKEND  ---      ---       LVL=1
      010023FFH   LINE      CODE     ---       #138
      01002401H   LINE      CODE     ---       #139
      01002401H   LINE      CODE     ---       #141
      0100240CH   LINE      CODE     ---       #142
      0100240CH   LINE      CODE     ---       #143
      0100240EH   LINE      CODE     ---       #144
      01002411H   LINE      CODE     ---       #145
      01002416H   LINE      CODE     ---       #146
      01002419H   LINE      CODE     ---       #147
      0100241BH   LINE      CODE     ---       #148
      0100241EH   LINE      CODE     ---       #149
      0100242BH   LINE      CODE     ---       #150
      ---         BLOCKEND  ---      ---       LVL=0

      01002286H   BLOCK     CODE     ---       LVL=0
      01002286H   BLOCK     CODE     NEAR LAB  LVL=1
      02000006H   SYMBOL    PDATA    BYTE      i
      02000007H   SYMBOL    PDATA    BYTE      re
      ---         BLOCKEND  ---      ---       LVL=1
      01002286H   LINE      CODE     ---       #151
      01002286H   LINE      CODE     ---       #152
      01002286H   LINE      CODE     ---       #154
      01002288H   LINE      CODE     ---       #155
      0100228BH   LINE      CODE     ---       #156
      01002298H   LINE      CODE     ---       #157
      01002298H   LINE      CODE     ---       #158
      0100229EH   LINE      CODE     ---       #159
      010022A0H   LINE      CODE     ---       #160
      010022A3H   LINE      CODE     ---       #161
      010022A5H   LINE      CODE     ---       #162
      010022A8H   LINE      CODE     ---       #163
      010022ABH   LINE      CODE     ---       #164
      010022B1H   LINE      CODE     ---       #165
      010022B4H   LINE      CODE     ---       #166
      010022BBH   LINE      CODE     ---       #167
      010022BFH   LINE      CODE     ---       #168
      ---         BLOCKEND  ---      ---       LVL=0

      ---         MODULE    ---      ---       LCD1602
LX51 LINKER/LOCATER V4.66.93.0                                                        05/06/2020  16:02:27  PAGE 45


      01002AE5H   PUBLIC    CONST    ---       LCD1602Word_Heart
      01002ADDH   PUBLIC    CONST    ---       LCD1602Word_Temperature
      00000020H.4 PUBLIC    BIT      BIT       ?_LCD1602WriteCmdOrData?BIT
      01002557H   PUBLIC    CODE     ---       _LCD1602WriteCmdOrData
      0100263CH   PUBLIC    CODE     ---       _LCD1602SetDDRAM
      00000020H.3 PUBLIC    BIT      BIT       ?_LCD1602WriteLine?BIT
      010022F8H   PUBLIC    CODE     ---       _LCD1602WriteLine
      0100239AH   PUBLIC    CODE     ---       LCD1602Init
      000000D8H.2 SFRSYM    DATA     BIT       CCF2
      00000092H   SFRSYM    DATA     BYTE      P1M0
      00000093H   SFRSYM    DATA     BYTE      P0M1
      000000D8H.3 SFRSYM    DATA     BIT       CCF3
      00000096H   SFRSYM    DATA     BYTE      P2M0
      00000091H   SFRSYM    DATA     BYTE      P1M1
      00000080H   SFRSYM    DATA     BYTE      P0
      000000B2H   SFRSYM    DATA     BYTE      P3M0
      00000095H   SFRSYM    DATA     BYTE      P2M1
      00000090H   SFRSYM    DATA     BYTE      P1
      000000B4H   SFRSYM    DATA     BYTE      P4M0
      000000B1H   SFRSYM    DATA     BYTE      P3M1
      000000A0H   SFRSYM    DATA     BYTE      P2
      000000ABH   SFRSYM    DATA     BYTE      WKTCH
      000000CAH   SFRSYM    DATA     BYTE      P5M0
      000000B3H   SFRSYM    DATA     BYTE      P4M1
      000000B0H   SFRSYM    DATA     BYTE      P3
      000000CCH   SFRSYM    DATA     BYTE      P6M0
      000000C9H   SFRSYM    DATA     BYTE      P5M1
      000000C0H   SFRSYM    DATA     BYTE      P4
      000000D0H.6 SFRSYM    DATA     BIT       AC
      000000F6H   SFRSYM    DATA     BYTE      PWMIF
      000000C6H   SFRSYM    DATA     BYTE      ISP_TRIG
      000000E2H   SFRSYM    DATA     BYTE      P7M0
      000000CBH   SFRSYM    DATA     BYTE      P6M1
      000000C8H   SFRSYM    DATA     BYTE      P5
      000000A8H.7 SFRSYM    DATA     BIT       EA
      000000E1H   SFRSYM    DATA     BYTE      P7M1
      000000E8H   SFRSYM    DATA     BYTE      P6
      000000AAH   SFRSYM    DATA     BYTE      WKTCL
      000000F8H   SFRSYM    DATA     BYTE      P7
      000000CEH   SFRSYM    DATA     BYTE      SPCTL
      000000D8H.7 SFRSYM    DATA     BIT       CF
      000000FEH   SFRSYM    DATA     BYTE      PWMCR
      000000F9H   SFRSYM    DATA     BYTE      CH
      000000A2H   SFRSYM    DATA     BYTE      P_SW1
      000000BAH   SFRSYM    DATA     BYTE      P_SW2
      000000A8H.5 SFRSYM    DATA     BIT       EADC
      000000A8H   SFRSYM    DATA     BYTE      IE
      000000E5H   SFRSYM    DATA     BYTE      DPH1
      000000E9H   SFRSYM    DATA     BYTE      CL
      000000C5H   SFRSYM    DATA     BYTE      IAP_CMD
      000000FAH   SFRSYM    DATA     BYTE      CCAP0H
      000000B0H.2 SFRSYM    DATA     BIT       LCD1602_EN
      00000090H.0 SFRSYM    DATA     BIT       LED_RED
      000000FBH   SFRSYM    DATA     BYTE      CCAP1H
      000000E4H   SFRSYM    DATA     BYTE      DPL1
      000000FCH   SFRSYM    DATA     BYTE      CCAP2H
      000000FDH   SFRSYM    DATA     BYTE      CCAP3H
      000000BDH   SFRSYM    DATA     BYTE      ADC_RES
      000000B6H   SFRSYM    DATA     BYTE      IP2H
      000000EAH   SFRSYM    DATA     BYTE      CCAP0L
      000000D8H.6 SFRSYM    DATA     BIT       CR
      000000AEH   SFRSYM    DATA     BYTE      TA
      000000F7H   SFRSYM    DATA     BYTE      PWMFDCR
      000000EBH   SFRSYM    DATA     BYTE      CCAP1L
      000000DAH   SFRSYM    DATA     BYTE      CCAPM0
LX51 LINKER/LOCATER V4.66.93.0                                                        05/06/2020  16:02:27  PAGE 46


      000000ECH   SFRSYM    DATA     BYTE      CCAP2L
      000000DBH   SFRSYM    DATA     BYTE      CCAPM1
      0000008FH   SFRSYM    DATA     BYTE      INTCLKO
      000000EDH   SFRSYM    DATA     BYTE      CCAP3L
      000000DCH   SFRSYM    DATA     BYTE      CCAPM2
      000000A8H.4 SFRSYM    DATA     BIT       ES
      000000DDH   SFRSYM    DATA     BYTE      CCAPM3
      000000B8H.5 SFRSYM    DATA     BIT       PADC
      000000B8H   SFRSYM    DATA     BYTE      IP
      000000DEH   SFRSYM    DATA     BYTE      ADCCFG
      00000098H.0 SFRSYM    DATA     BIT       RI
      000000D0H.7 SFRSYM    DATA     BIT       CY
      00000098H.1 SFRSYM    DATA     BIT       TI
      000000C3H   SFRSYM    DATA     BYTE      IAP_ADDRH
      000000C0H.1 SFRSYM    DATA     BIT       DS18B20_DATA
      000000C5H   SFRSYM    DATA     BYTE      ISP_CMD
      000000B8H.4 SFRSYM    DATA     BIT       PS
      00000081H   SFRSYM    DATA     BYTE      SP
      000000A0H.7 SFRSYM    DATA     BIT       LCD1602_Busy
      000000B0H.5 SFRSYM    DATA     BIT       LCD1602_RS
      000000D9H   SFRSYM    DATA     BYTE      CMOD
      000000D8H   SFRSYM    DATA     BYTE      CCON
      000000C4H   SFRSYM    DATA     BYTE      IAP_ADDRL
      000000B8H.7 SFRSYM    DATA     BIT       PPCA
      000000D0H.2 SFRSYM    DATA     BIT       OV
      000000B0H.4 SFRSYM    DATA     BIT       LCD1602_RW
      000000E6H   SFRSYM    DATA     BYTE      CMPCR1
      00000090H.1 SFRSYM    DATA     BIT       LED_GREEN
      000000E7H   SFRSYM    DATA     BYTE      CMPCR2
      000000A8H.6 SFRSYM    DATA     BIT       ELVD
      00000080H.0 SFRSYM    DATA     BIT       P00
      000000BCH   SFRSYM    DATA     BYTE      ADC_CONTR
      00000099H   SFRSYM    DATA     BYTE      SBUF
      00000087H   SFRSYM    DATA     BYTE      PCON
      00000090H.0 SFRSYM    DATA     BIT       P10
      00000080H.1 SFRSYM    DATA     BIT       P01
      000000C3H   SFRSYM    DATA     BYTE      ISP_ADDRH
      000000A0H.0 SFRSYM    DATA     BIT       P20
      00000090H.1 SFRSYM    DATA     BIT       P11
      00000080H.2 SFRSYM    DATA     BIT       P02
      000000B0H.0 SFRSYM    DATA     BIT       P30
      000000A0H.1 SFRSYM    DATA     BIT       P21
      00000090H.2 SFRSYM    DATA     BIT       P12
      00000080H.3 SFRSYM    DATA     BIT       P03
      00000098H   SFRSYM    DATA     BYTE      SCON
      000000C0H.0 SFRSYM    DATA     BIT       P40
      000000B0H.1 SFRSYM    DATA     BIT       P31
      000000A0H.2 SFRSYM    DATA     BIT       P22
      00000090H.3 SFRSYM    DATA     BIT       P13
      00000080H.4 SFRSYM    DATA     BIT       P04
      00000089H   SFRSYM    DATA     BYTE      TMOD
      00000088H   SFRSYM    DATA     BYTE      TCON
      000000C8H.0 SFRSYM    DATA     BIT       P50
      000000C0H.1 SFRSYM    DATA     BIT       P41
      000000B0H.2 SFRSYM    DATA     BIT       P32
      000000A0H.3 SFRSYM    DATA     BIT       P23
      00000090H.4 SFRSYM    DATA     BIT       P14
      00000080H.5 SFRSYM    DATA     BIT       P05
      000000C4H   SFRSYM    DATA     BYTE      ISP_ADDRL
      000000E8H.0 SFRSYM    DATA     BIT       P60
      000000C8H.1 SFRSYM    DATA     BIT       P51
      000000C0H.2 SFRSYM    DATA     BIT       P42
      000000B0H.3 SFRSYM    DATA     BIT       P33
      000000A0H.4 SFRSYM    DATA     BIT       P24
      00000090H.5 SFRSYM    DATA     BIT       P15
LX51 LINKER/LOCATER V4.66.93.0                                                        05/06/2020  16:02:27  PAGE 47


      00000080H.6 SFRSYM    DATA     BIT       P06
      000000B8H.6 SFRSYM    DATA     BIT       PLVD
      000000F8H.0 SFRSYM    DATA     BIT       P70
      000000E8H.1 SFRSYM    DATA     BIT       P61
      000000C8H.2 SFRSYM    DATA     BIT       P52
      000000C0H.3 SFRSYM    DATA     BIT       P43
      000000B0H.4 SFRSYM    DATA     BIT       P34
      000000A0H.5 SFRSYM    DATA     BIT       P25
      00000090H.6 SFRSYM    DATA     BIT       P16
      00000080H.7 SFRSYM    DATA     BIT       P07
      000000F8H.1 SFRSYM    DATA     BIT       P71
      000000E8H.2 SFRSYM    DATA     BIT       P62
      000000C8H.3 SFRSYM    DATA     BIT       P53
      000000C0H.4 SFRSYM    DATA     BIT       P44
      000000B0H.5 SFRSYM    DATA     BIT       P35
      000000A0H.6 SFRSYM    DATA     BIT       P26
      00000090H.7 SFRSYM    DATA     BIT       P17
      000000F8H.2 SFRSYM    DATA     BIT       P72
      000000E8H.3 SFRSYM    DATA     BIT       P63
      000000C8H.4 SFRSYM    DATA     BIT       P54
      000000C0H.5 SFRSYM    DATA     BIT       P45
      000000B0H.6 SFRSYM    DATA     BIT       P36
      000000A0H.7 SFRSYM    DATA     BIT       P27
      000000F8H.3 SFRSYM    DATA     BIT       P73
      000000E8H.4 SFRSYM    DATA     BIT       P64
      000000C8H.5 SFRSYM    DATA     BIT       P55
      000000C0H.6 SFRSYM    DATA     BIT       P46
      000000B0H.7 SFRSYM    DATA     BIT       P37
      000000F8H.4 SFRSYM    DATA     BIT       P74
      000000E8H.5 SFRSYM    DATA     BIT       P65
      000000C8H.6 SFRSYM    DATA     BIT       P56
      000000C0H.7 SFRSYM    DATA     BIT       P47
      000000F8H.5 SFRSYM    DATA     BIT       P75
      000000E8H.6 SFRSYM    DATA     BIT       P66
      000000C8H.7 SFRSYM    DATA     BIT       P57
      000000F8H.6 SFRSYM    DATA     BIT       P76
      000000E8H.7 SFRSYM    DATA     BIT       P67
      00000088H.1 SFRSYM    DATA     BIT       IE0
      000000A1H   SFRSYM    DATA     BYTE      BUS_SPEED
      000000F8H.7 SFRSYM    DATA     BIT       P77
      00000088H.3 SFRSYM    DATA     BIT       IE1
      000000AFH   SFRSYM    DATA     BYTE      IE2
      0000008EH   SFRSYM    DATA     BYTE      AUXR
      000000F0H   SFRSYM    DATA     BYTE      B
      000000C7H   SFRSYM    DATA     BYTE      IAP_CONTR
      000000F1H   SFRSYM    DATA     BYTE      PWMCFG
      000000E0H   SFRSYM    DATA     BYTE      ACC
      000000A8H.1 SFRSYM    DATA     BIT       ET0
      00000088H.5 SFRSYM    DATA     BIT       TF0
      000000A8H.3 SFRSYM    DATA     BIT       ET1
      00000088H.7 SFRSYM    DATA     BIT       TF1
      000000B5H   SFRSYM    DATA     BYTE      IP2
      000000FFH   SFRSYM    DATA     BYTE      RSTCFG
      00000098H.2 SFRSYM    DATA     BIT       RB8
      0000008CH   SFRSYM    DATA     BYTE      TH0
      0000008DH   SFRSYM    DATA     BYTE      TH1
      00000088H.0 SFRSYM    DATA     BIT       IT0
      000000A8H.0 SFRSYM    DATA     BIT       EX0
      00000098H.3 SFRSYM    DATA     BIT       TB8
      000000D6H   SFRSYM    DATA     BYTE      TH2
      000000D6H   SFRSYM    DATA     BYTE      T2H
      00000088H.2 SFRSYM    DATA     BIT       IT1
      000000A8H.2 SFRSYM    DATA     BIT       EX1
      000000D4H   SFRSYM    DATA     BYTE      TH3
      000000D4H   SFRSYM    DATA     BYTE      T3H
LX51 LINKER/LOCATER V4.66.93.0                                                        05/06/2020  16:02:27  PAGE 48


      000000D0H.0 SFRSYM    DATA     BIT       P
      00000098H.7 SFRSYM    DATA     BIT       SM0
      000000D2H   SFRSYM    DATA     BYTE      TH4
      000000D2H   SFRSYM    DATA     BYTE      T4H
      0000008AH   SFRSYM    DATA     BYTE      TL0
      00000098H.6 SFRSYM    DATA     BIT       SM1
      0000008BH   SFRSYM    DATA     BYTE      TL1
      00000098H.5 SFRSYM    DATA     BIT       SM2
      000000D7H   SFRSYM    DATA     BYTE      TL2
      000000D7H   SFRSYM    DATA     BYTE      T2L
      000000D5H   SFRSYM    DATA     BYTE      TL3
      000000D5H   SFRSYM    DATA     BYTE      T3L
      000000D3H   SFRSYM    DATA     BYTE      TL4
      000000D3H   SFRSYM    DATA     BYTE      T4L
      000000B8H.1 SFRSYM    DATA     BIT       PT0
      000000C7H   SFRSYM    DATA     BYTE      ISP_CONTR
      000000B8H.3 SFRSYM    DATA     BIT       PT1
      000000D0H.3 SFRSYM    DATA     BIT       RS0
      000000C2H   SFRSYM    DATA     BYTE      IAP_DATA
      00000088H.4 SFRSYM    DATA     BIT       TR0
      000000D0H.4 SFRSYM    DATA     BIT       RS1
      00000088H.6 SFRSYM    DATA     BIT       TR1
      000000C1H   SFRSYM    DATA     BYTE      WDT_CONTR
      000000B8H.0 SFRSYM    DATA     BIT       PX0
      000000B8H.2 SFRSYM    DATA     BIT       PX1
      000000F2H   SFRSYM    DATA     BYTE      PCA_PWM0
      000000F3H   SFRSYM    DATA     BYTE      PCA_PWM1
      000000F4H   SFRSYM    DATA     BYTE      PCA_PWM2
      000000BBH   SFRSYM    DATA     BYTE      VOCTRL
      00000083H   SFRSYM    DATA     BYTE      DPH
      000000F5H   SFRSYM    DATA     BYTE      PCA_PWM3
      000000D1H   SFRSYM    DATA     BYTE      T4T3M
      00000080H.7 SFRSYM    DATA     BIT       LED_BLUE
      000000BEH   SFRSYM    DATA     BYTE      ADC_RESL
      00000082H   SFRSYM    DATA     BYTE      DPL
      000000CDH   SFRSYM    DATA     BYTE      SPSTAT
      000000B7H   SFRSYM    DATA     BYTE      IPH
      0000009BH   SFRSYM    DATA     BYTE      S2BUF
      000000ADH   SFRSYM    DATA     BYTE      S3BUF
      00000085H   SFRSYM    DATA     BYTE      S4BUF
      00000098H.4 SFRSYM    DATA     BIT       REN
      0000009AH   SFRSYM    DATA     BYTE      S2CON
      000000ACH   SFRSYM    DATA     BYTE      S3CON
      000000E3H   SFRSYM    DATA     BYTE      DPS
      000000C2H   SFRSYM    DATA     BYTE      ISP_DATA
      00000084H   SFRSYM    DATA     BYTE      S4CON
      000000EFH   SFRSYM    DATA     BYTE      AUXINTIF
      000000B9H   SFRSYM    DATA     BYTE      SADEN
      000000A9H   SFRSYM    DATA     BYTE      SADDR
      000000C6H   SFRSYM    DATA     BYTE      IAP_TRIG
      00000097H   SFRSYM    DATA     BYTE      AUXR2
      000000D0H.5 SFRSYM    DATA     BIT       F0
      000000D0H   SFRSYM    DATA     BYTE      PSW
      000000D8H.0 SFRSYM    DATA     BIT       CCF0
      000000D8H.1 SFRSYM    DATA     BIT       CCF1
      000000CFH   SFRSYM    DATA     BYTE      SPDAT
      00000094H   SFRSYM    DATA     BYTE      P0M0
      0100000EH   SYMBOL    CODE     ---       LCD1602Wait
      0100257CH   SYMBOL    CODE     ---       _LCD1602SetCGRAM
      0100232FH   SYMBOL    CODE     ---       _LCD1602LoadWord

      0100239AH   BLOCK     CODE     ---       LVL=0
      0100239AH   LINE      CODE     ---       #11
      0100239AH   LINE      CODE     ---       #12
      0100239AH   LINE      CODE     ---       #13
LX51 LINKER/LOCATER V4.66.93.0                                                        05/06/2020  16:02:27  PAGE 49


      0100239CH   LINE      CODE     ---       #14
      010023A3H   LINE      CODE     ---       #15
      010023AAH   LINE      CODE     ---       #16
      010023B1H   LINE      CODE     ---       #17
      010023B8H   LINE      CODE     ---       #19
      010023C3H   LINE      CODE     ---       #20
      ---         BLOCKEND  ---      ---       LVL=0

      010022F8H   BLOCK     CODE     ---       LVL=0
      00000029H   SYMBOL    DATA     ---       Str
      00000020H.3 SYMBOL    BIT      BIT       isLine2
      010022FEH   BLOCK     CODE     NEAR LAB  LVL=1
      0000002CH   SYMBOL    DATA     BYTE      i
      ---         BLOCKEND  ---      ---       LVL=1
      010022F8H   LINE      CODE     ---       #25
      010022FEH   LINE      CODE     ---       #26
      010022FEH   LINE      CODE     ---       #28
      0100230AH   LINE      CODE     ---       #29
      01002325H   LINE      CODE     ---       #30
      0100232EH   LINE      CODE     ---       #31
      ---         BLOCKEND  ---      ---       LVL=0
      00000007H   SYMBOL    DATA     BYTE      Idx
      00000007H   SYMBOL    DATA     BYTE      Data

      0100263CH   BLOCK     CODE     ---       LVL=0
      00000007H   SYMBOL    DATA     BYTE      idx
      0100263CH   LINE      CODE     ---       #58
      0100263CH   LINE      CODE     ---       #59
      0100263CH   LINE      CODE     ---       #60
      0100263FH   LINE      CODE     ---       #61
      ---         BLOCKEND  ---      ---       LVL=0

      01002557H   BLOCK     CODE     ---       LVL=0
      0000002DH   SYMBOL    DATA     BYTE      CmdOrData
      00000020H.4 SYMBOL    BIT      BIT       isData
      01002557H   LINE      CODE     ---       #63
      01002559H   LINE      CODE     ---       #64
      01002559H   LINE      CODE     ---       #65
      0100255CH   LINE      CODE     ---       #66
      01002560H   LINE      CODE     ---       #67
      01002562H   LINE      CODE     ---       #68
      01002565H   LINE      CODE     ---       #69
      01002567H   LINE      CODE     ---       #70
      01002569H   LINE      CODE     ---       #71
      ---         BLOCKEND  ---      ---       LVL=0

      0100232FH   BLOCK     CODE     ---       LVL=0
      00000022H   SYMBOL    DATA     BYTE      Idx
      00000023H   SYMBOL    DATA     ---       Word
      01002337H   BLOCK     CODE     NEAR LAB  LVL=1
      00000026H   SYMBOL    DATA     BYTE      i
      ---         BLOCKEND  ---      ---       LVL=1
      0100232FH   LINE      CODE     ---       #73
      01002337H   LINE      CODE     ---       #74
      01002337H   LINE      CODE     ---       #76
      0100233AH   LINE      CODE     ---       #77
      0100233FH   LINE      CODE     ---       #78
      01002342H   LINE      CODE     ---       #79
      0100234BH   LINE      CODE     ---       #80
      01002364H   LINE      CODE     ---       #81
      ---         BLOCKEND  ---      ---       LVL=0

      0100257CH   BLOCK     CODE     ---       LVL=0
      00000007H   SYMBOL    DATA     BYTE      idx
      0100257CH   LINE      CODE     ---       #82
LX51 LINKER/LOCATER V4.66.93.0                                                        05/06/2020  16:02:27  PAGE 50


      0100257CH   LINE      CODE     ---       #83
      0100257CH   LINE      CODE     ---       #84
      01002589H   LINE      CODE     ---       #85
      ---         BLOCKEND  ---      ---       LVL=0

      0100000EH   BLOCK     CODE     ---       LVL=0
      0100000EH   BLOCK     CODE     NEAR LAB  LVL=1
      00000020H.5 SYMBOL    BIT      BIT       isBusy
      ---         BLOCKEND  ---      ---       LVL=1
      0100000EH   LINE      CODE     ---       #87
      0100000EH   LINE      CODE     ---       #88
      0100000EH   LINE      CODE     ---       #90
      01000010H   LINE      CODE     ---       #91
      01000012H   LINE      CODE     ---       #93
      01000012H   LINE      CODE     ---       #94
      01000014H   LINE      CODE     ---       #95
      01000016H   LINE      CODE     ---       #96
      01000019H   LINE      CODE     ---       #97
      0100001DH   LINE      CODE     ---       #98
      0100001FH   LINE      CODE     ---       #99
      01000022H   LINE      CODE     ---       #100
      ---         BLOCKEND  ---      ---       LVL=0

      ---         MODULE    ---      ---       GY_25
      0200071AH   PUBLIC    XDATA    ---       GY_25ST
      01001C1EH   PUBLIC    CODE     ---       GY_25GetAzimuth
      010025AEH   PUBLIC    CODE     ---       _GY_25SetCmd
      0100242CH   PUBLIC    CODE     ---       GY_25Init
      000000D8H.2 SFRSYM    DATA     BIT       CCF2
      00000092H   SFRSYM    DATA     BYTE      P1M0
      00000093H   SFRSYM    DATA     BYTE      P0M1
      000000D8H.3 SFRSYM    DATA     BIT       CCF3
      00000096H   SFRSYM    DATA     BYTE      P2M0
      00000091H   SFRSYM    DATA     BYTE      P1M1
      00000080H   SFRSYM    DATA     BYTE      P0
      000000B2H   SFRSYM    DATA     BYTE      P3M0
      00000095H   SFRSYM    DATA     BYTE      P2M1
      00000090H   SFRSYM    DATA     BYTE      P1
      000000B4H   SFRSYM    DATA     BYTE      P4M0
      000000B1H   SFRSYM    DATA     BYTE      P3M1
      000000A0H   SFRSYM    DATA     BYTE      P2
      000000ABH   SFRSYM    DATA     BYTE      WKTCH
      000000CAH   SFRSYM    DATA     BYTE      P5M0
      000000B3H   SFRSYM    DATA     BYTE      P4M1
      000000B0H   SFRSYM    DATA     BYTE      P3
      000000CCH   SFRSYM    DATA     BYTE      P6M0
      000000C9H   SFRSYM    DATA     BYTE      P5M1
      000000C0H   SFRSYM    DATA     BYTE      P4
      000000D0H.6 SFRSYM    DATA     BIT       AC
      000000F6H   SFRSYM    DATA     BYTE      PWMIF
      000000C6H   SFRSYM    DATA     BYTE      ISP_TRIG
      000000E2H   SFRSYM    DATA     BYTE      P7M0
      000000CBH   SFRSYM    DATA     BYTE      P6M1
      000000C8H   SFRSYM    DATA     BYTE      P5
      000000A8H.7 SFRSYM    DATA     BIT       EA
      000000E1H   SFRSYM    DATA     BYTE      P7M1
      000000E8H   SFRSYM    DATA     BYTE      P6
      000000AAH   SFRSYM    DATA     BYTE      WKTCL
      000000F8H   SFRSYM    DATA     BYTE      P7
      000000CEH   SFRSYM    DATA     BYTE      SPCTL
      000000D8H.7 SFRSYM    DATA     BIT       CF
      000000FEH   SFRSYM    DATA     BYTE      PWMCR
      000000F9H   SFRSYM    DATA     BYTE      CH
      000000A2H   SFRSYM    DATA     BYTE      P_SW1
      000000BAH   SFRSYM    DATA     BYTE      P_SW2
LX51 LINKER/LOCATER V4.66.93.0                                                        05/06/2020  16:02:27  PAGE 51


      000000A8H.5 SFRSYM    DATA     BIT       EADC
      000000A8H   SFRSYM    DATA     BYTE      IE
      000000E5H   SFRSYM    DATA     BYTE      DPH1
      000000E9H   SFRSYM    DATA     BYTE      CL
      000000C5H   SFRSYM    DATA     BYTE      IAP_CMD
      000000FAH   SFRSYM    DATA     BYTE      CCAP0H
      000000B0H.2 SFRSYM    DATA     BIT       LCD1602_EN
      00000090H.0 SFRSYM    DATA     BIT       LED_RED
      000000FBH   SFRSYM    DATA     BYTE      CCAP1H
      000000E4H   SFRSYM    DATA     BYTE      DPL1
      000000FCH   SFRSYM    DATA     BYTE      CCAP2H
      000000FDH   SFRSYM    DATA     BYTE      CCAP3H
      000000BDH   SFRSYM    DATA     BYTE      ADC_RES
      000000B6H   SFRSYM    DATA     BYTE      IP2H
      000000EAH   SFRSYM    DATA     BYTE      CCAP0L
      000000D8H.6 SFRSYM    DATA     BIT       CR
      000000AEH   SFRSYM    DATA     BYTE      TA
      000000F7H   SFRSYM    DATA     BYTE      PWMFDCR
      000000EBH   SFRSYM    DATA     BYTE      CCAP1L
      000000DAH   SFRSYM    DATA     BYTE      CCAPM0
      000000ECH   SFRSYM    DATA     BYTE      CCAP2L
      000000DBH   SFRSYM    DATA     BYTE      CCAPM1
      0000008FH   SFRSYM    DATA     BYTE      INTCLKO
      000000EDH   SFRSYM    DATA     BYTE      CCAP3L
      000000DCH   SFRSYM    DATA     BYTE      CCAPM2
      000000A8H.4 SFRSYM    DATA     BIT       ES
      000000DDH   SFRSYM    DATA     BYTE      CCAPM3
      000000B8H.5 SFRSYM    DATA     BIT       PADC
      000000B8H   SFRSYM    DATA     BYTE      IP
      000000DEH   SFRSYM    DATA     BYTE      ADCCFG
      00000098H.0 SFRSYM    DATA     BIT       RI
      000000D0H.7 SFRSYM    DATA     BIT       CY
      00000098H.1 SFRSYM    DATA     BIT       TI
      000000C3H   SFRSYM    DATA     BYTE      IAP_ADDRH
      000000C0H.1 SFRSYM    DATA     BIT       DS18B20_DATA
      000000C5H   SFRSYM    DATA     BYTE      ISP_CMD
      000000B8H.4 SFRSYM    DATA     BIT       PS
      00000081H   SFRSYM    DATA     BYTE      SP
      000000A0H.7 SFRSYM    DATA     BIT       LCD1602_Busy
      000000B0H.5 SFRSYM    DATA     BIT       LCD1602_RS
      000000D9H   SFRSYM    DATA     BYTE      CMOD
      000000D8H   SFRSYM    DATA     BYTE      CCON
      000000C4H   SFRSYM    DATA     BYTE      IAP_ADDRL
      000000B8H.7 SFRSYM    DATA     BIT       PPCA
      000000D0H.2 SFRSYM    DATA     BIT       OV
      000000B0H.4 SFRSYM    DATA     BIT       LCD1602_RW
      000000E6H   SFRSYM    DATA     BYTE      CMPCR1
      00000090H.1 SFRSYM    DATA     BIT       LED_GREEN
      000000E7H   SFRSYM    DATA     BYTE      CMPCR2
      000000A8H.6 SFRSYM    DATA     BIT       ELVD
      00000080H.0 SFRSYM    DATA     BIT       P00
      000000BCH   SFRSYM    DATA     BYTE      ADC_CONTR
      00000099H   SFRSYM    DATA     BYTE      SBUF
      00000087H   SFRSYM    DATA     BYTE      PCON
      00000090H.0 SFRSYM    DATA     BIT       P10
      00000080H.1 SFRSYM    DATA     BIT       P01
      000000C3H   SFRSYM    DATA     BYTE      ISP_ADDRH
      000000A0H.0 SFRSYM    DATA     BIT       P20
      00000090H.1 SFRSYM    DATA     BIT       P11
      00000080H.2 SFRSYM    DATA     BIT       P02
      000000B0H.0 SFRSYM    DATA     BIT       P30
      000000A0H.1 SFRSYM    DATA     BIT       P21
      00000090H.2 SFRSYM    DATA     BIT       P12
      00000080H.3 SFRSYM    DATA     BIT       P03
      00000098H   SFRSYM    DATA     BYTE      SCON
LX51 LINKER/LOCATER V4.66.93.0                                                        05/06/2020  16:02:27  PAGE 52


      000000C0H.0 SFRSYM    DATA     BIT       P40
      000000B0H.1 SFRSYM    DATA     BIT       P31
      000000A0H.2 SFRSYM    DATA     BIT       P22
      00000090H.3 SFRSYM    DATA     BIT       P13
      00000080H.4 SFRSYM    DATA     BIT       P04
      00000089H   SFRSYM    DATA     BYTE      TMOD
      00000088H   SFRSYM    DATA     BYTE      TCON
      000000C8H.0 SFRSYM    DATA     BIT       P50
      000000C0H.1 SFRSYM    DATA     BIT       P41
      000000B0H.2 SFRSYM    DATA     BIT       P32
      000000A0H.3 SFRSYM    DATA     BIT       P23
      00000090H.4 SFRSYM    DATA     BIT       P14
      00000080H.5 SFRSYM    DATA     BIT       P05
      000000C4H   SFRSYM    DATA     BYTE      ISP_ADDRL
      000000E8H.0 SFRSYM    DATA     BIT       P60
      000000C8H.1 SFRSYM    DATA     BIT       P51
      000000C0H.2 SFRSYM    DATA     BIT       P42
      000000B0H.3 SFRSYM    DATA     BIT       P33
      000000A0H.4 SFRSYM    DATA     BIT       P24
      00000090H.5 SFRSYM    DATA     BIT       P15
      00000080H.6 SFRSYM    DATA     BIT       P06
      000000B8H.6 SFRSYM    DATA     BIT       PLVD
      000000F8H.0 SFRSYM    DATA     BIT       P70
      000000E8H.1 SFRSYM    DATA     BIT       P61
      000000C8H.2 SFRSYM    DATA     BIT       P52
      000000C0H.3 SFRSYM    DATA     BIT       P43
      000000B0H.4 SFRSYM    DATA     BIT       P34
      000000A0H.5 SFRSYM    DATA     BIT       P25
      00000090H.6 SFRSYM    DATA     BIT       P16
      00000080H.7 SFRSYM    DATA     BIT       P07
      000000F8H.1 SFRSYM    DATA     BIT       P71
      000000E8H.2 SFRSYM    DATA     BIT       P62
      000000C8H.3 SFRSYM    DATA     BIT       P53
      000000C0H.4 SFRSYM    DATA     BIT       P44
      000000B0H.5 SFRSYM    DATA     BIT       P35
      000000A0H.6 SFRSYM    DATA     BIT       P26
      00000090H.7 SFRSYM    DATA     BIT       P17
      000000F8H.2 SFRSYM    DATA     BIT       P72
      000000E8H.3 SFRSYM    DATA     BIT       P63
      000000C8H.4 SFRSYM    DATA     BIT       P54
      000000C0H.5 SFRSYM    DATA     BIT       P45
      000000B0H.6 SFRSYM    DATA     BIT       P36
      000000A0H.7 SFRSYM    DATA     BIT       P27
      000000F8H.3 SFRSYM    DATA     BIT       P73
      000000E8H.4 SFRSYM    DATA     BIT       P64
      000000C8H.5 SFRSYM    DATA     BIT       P55
      000000C0H.6 SFRSYM    DATA     BIT       P46
      000000B0H.7 SFRSYM    DATA     BIT       P37
      000000F8H.4 SFRSYM    DATA     BIT       P74
      000000E8H.5 SFRSYM    DATA     BIT       P65
      000000C8H.6 SFRSYM    DATA     BIT       P56
      000000C0H.7 SFRSYM    DATA     BIT       P47
      000000F8H.5 SFRSYM    DATA     BIT       P75
      000000E8H.6 SFRSYM    DATA     BIT       P66
      000000C8H.7 SFRSYM    DATA     BIT       P57
      000000F8H.6 SFRSYM    DATA     BIT       P76
      000000E8H.7 SFRSYM    DATA     BIT       P67
      00000088H.1 SFRSYM    DATA     BIT       IE0
      000000A1H   SFRSYM    DATA     BYTE      BUS_SPEED
      000000F8H.7 SFRSYM    DATA     BIT       P77
      00000088H.3 SFRSYM    DATA     BIT       IE1
      000000AFH   SFRSYM    DATA     BYTE      IE2
      0000008EH   SFRSYM    DATA     BYTE      AUXR
      000000F0H   SFRSYM    DATA     BYTE      B
      000000C7H   SFRSYM    DATA     BYTE      IAP_CONTR
LX51 LINKER/LOCATER V4.66.93.0                                                        05/06/2020  16:02:27  PAGE 53


      000000F1H   SFRSYM    DATA     BYTE      PWMCFG
      000000E0H   SFRSYM    DATA     BYTE      ACC
      000000A8H.1 SFRSYM    DATA     BIT       ET0
      00000088H.5 SFRSYM    DATA     BIT       TF0
      000000A8H.3 SFRSYM    DATA     BIT       ET1
      00000088H.7 SFRSYM    DATA     BIT       TF1
      000000B5H   SFRSYM    DATA     BYTE      IP2
      000000FFH   SFRSYM    DATA     BYTE      RSTCFG
      00000098H.2 SFRSYM    DATA     BIT       RB8
      0000008CH   SFRSYM    DATA     BYTE      TH0
      0000008DH   SFRSYM    DATA     BYTE      TH1
      00000088H.0 SFRSYM    DATA     BIT       IT0
      000000A8H.0 SFRSYM    DATA     BIT       EX0
      00000098H.3 SFRSYM    DATA     BIT       TB8
      000000D6H   SFRSYM    DATA     BYTE      TH2
      000000D6H   SFRSYM    DATA     BYTE      T2H
      00000088H.2 SFRSYM    DATA     BIT       IT1
      000000A8H.2 SFRSYM    DATA     BIT       EX1
      000000D4H   SFRSYM    DATA     BYTE      TH3
      000000D4H   SFRSYM    DATA     BYTE      T3H
      000000D0H.0 SFRSYM    DATA     BIT       P
      00000098H.7 SFRSYM    DATA     BIT       SM0
      000000D2H   SFRSYM    DATA     BYTE      TH4
      000000D2H   SFRSYM    DATA     BYTE      T4H
      0000008AH   SFRSYM    DATA     BYTE      TL0
      00000098H.6 SFRSYM    DATA     BIT       SM1
      0000008BH   SFRSYM    DATA     BYTE      TL1
      00000098H.5 SFRSYM    DATA     BIT       SM2
      000000D7H   SFRSYM    DATA     BYTE      TL2
      000000D7H   SFRSYM    DATA     BYTE      T2L
      000000D5H   SFRSYM    DATA     BYTE      TL3
      000000D5H   SFRSYM    DATA     BYTE      T3L
      000000D3H   SFRSYM    DATA     BYTE      TL4
      000000D3H   SFRSYM    DATA     BYTE      T4L
      000000B8H.1 SFRSYM    DATA     BIT       PT0
      000000C7H   SFRSYM    DATA     BYTE      ISP_CONTR
      000000B8H.3 SFRSYM    DATA     BIT       PT1
      000000D0H.3 SFRSYM    DATA     BIT       RS0
      000000C2H   SFRSYM    DATA     BYTE      IAP_DATA
      00000088H.4 SFRSYM    DATA     BIT       TR0
      000000D0H.4 SFRSYM    DATA     BIT       RS1
      00000088H.6 SFRSYM    DATA     BIT       TR1
      000000C1H   SFRSYM    DATA     BYTE      WDT_CONTR
      000000B8H.0 SFRSYM    DATA     BIT       PX0
      000000B8H.2 SFRSYM    DATA     BIT       PX1
      000000F2H   SFRSYM    DATA     BYTE      PCA_PWM0
      000000F3H   SFRSYM    DATA     BYTE      PCA_PWM1
      000000F4H   SFRSYM    DATA     BYTE      PCA_PWM2
      000000BBH   SFRSYM    DATA     BYTE      VOCTRL
      00000083H   SFRSYM    DATA     BYTE      DPH
      000000F5H   SFRSYM    DATA     BYTE      PCA_PWM3
      000000D1H   SFRSYM    DATA     BYTE      T4T3M
      00000080H.7 SFRSYM    DATA     BIT       LED_BLUE
      000000BEH   SFRSYM    DATA     BYTE      ADC_RESL
      00000082H   SFRSYM    DATA     BYTE      DPL
      000000CDH   SFRSYM    DATA     BYTE      SPSTAT
      000000B7H   SFRSYM    DATA     BYTE      IPH
      0000009BH   SFRSYM    DATA     BYTE      S2BUF
      000000ADH   SFRSYM    DATA     BYTE      S3BUF
      00000085H   SFRSYM    DATA     BYTE      S4BUF
      00000098H.4 SFRSYM    DATA     BIT       REN
      0000009AH   SFRSYM    DATA     BYTE      S2CON
      000000ACH   SFRSYM    DATA     BYTE      S3CON
      000000E3H   SFRSYM    DATA     BYTE      DPS
      000000C2H   SFRSYM    DATA     BYTE      ISP_DATA
LX51 LINKER/LOCATER V4.66.93.0                                                        05/06/2020  16:02:27  PAGE 54


      00000084H   SFRSYM    DATA     BYTE      S4CON
      000000EFH   SFRSYM    DATA     BYTE      AUXINTIF
      000000B9H   SFRSYM    DATA     BYTE      SADEN
      000000A9H   SFRSYM    DATA     BYTE      SADDR
      000000C6H   SFRSYM    DATA     BYTE      IAP_TRIG
      00000097H   SFRSYM    DATA     BYTE      AUXR2
      000000D0H.5 SFRSYM    DATA     BIT       F0
      000000D0H   SFRSYM    DATA     BYTE      PSW
      000000D8H.0 SFRSYM    DATA     BIT       CCF0
      000000D8H.1 SFRSYM    DATA     BIT       CCF1
      000000CFH   SFRSYM    DATA     BYTE      SPDAT
      00000094H   SFRSYM    DATA     BYTE      P0M0

      01002541H   BLOCK     CODE     ---       LVL=0
      ---         BLOCKEND  ---      ---       LVL=0

      0100242CH   BLOCK     CODE     ---       LVL=0
      0100242CH   LINE      CODE     ---       #5
      0100242CH   LINE      CODE     ---       #6
      0100242CH   LINE      CODE     ---       #7
      0100243BH   LINE      CODE     ---       #8
      0100243EH   LINE      CODE     ---       #9
      01002441H   LINE      CODE     ---       #10
      01002446H   LINE      CODE     ---       #11
      0100244BH   LINE      CODE     ---       #12
      01002450H   LINE      CODE     ---       #13
      01002453H   LINE      CODE     ---       #14
      01002458H   LINE      CODE     ---       #15
      01002458H   LINE      CODE     ---       #19
      ---         BLOCKEND  ---      ---       LVL=0

      010025AEH   BLOCK     CODE     ---       LVL=0
      00000029H   SYMBOL    DATA     BYTE      Cmd
      010025AEH   LINE      CODE     ---       #20
      010025B0H   LINE      CODE     ---       #21
      010025B0H   LINE      CODE     ---       #22
      010025B5H   LINE      CODE     ---       #23
      010025BAH   LINE      CODE     ---       #24
      010025BBH   LINE      CODE     ---       #25
      ---         BLOCKEND  ---      ---       LVL=0

      01001C1EH   BLOCK     CODE     ---       LVL=0
      01001C1EH   BLOCK     CODE     NEAR LAB  LVL=1
      0200001BH   SYMBOL    PDATA    BYTE      State
      02000714H   SYMBOL    XDATA    WORD      HeadAngle
      02000716H   SYMBOL    XDATA    WORD      PitchAngle
      02000718H   SYMBOL    XDATA    WORD      RollAngle
      00000005H   SYMBOL    DATA     BYTE      idx1
      00000004H   SYMBOL    DATA     BYTE      idx2
      01001CC2H   BLOCK     CODE     NEAR LAB  LVL=2
      00000020H.2 SYMBOL    BIT      BIT       isp
      ---         BLOCKEND  ---      ---       LVL=2
      ---         BLOCKEND  ---      ---       LVL=1
      01001C1EH   LINE      CODE     ---       #26
      01001C1EH   LINE      CODE     ---       #27
      01001C1EH   LINE      CODE     ---       #30
      01001C22H   LINE      CODE     ---       #31
      01001C29H   LINE      CODE     ---       #32
      01001C29H   LINE      CODE     ---       #33
      01001C50H   LINE      CODE     ---       #34
      01001C50H   LINE      CODE     ---       #35
      01001C50H   LINE      CODE     ---       #36
      01001C57H   LINE      CODE     ---       #37
      01001C57H   LINE      CODE     ---       #38
      01001C59H   LINE      CODE     ---       #39
LX51 LINKER/LOCATER V4.66.93.0                                                        05/06/2020  16:02:27  PAGE 55


      01001C59H   LINE      CODE     ---       #40
      01001C63H   LINE      CODE     ---       #41
      01001C6AH   LINE      CODE     ---       #42
      01001C6AH   LINE      CODE     ---       #43
      01001C6CH   LINE      CODE     ---       #44
      01001C6CH   LINE      CODE     ---       #45
      01001C76H   LINE      CODE     ---       #46
      01001C7DH   LINE      CODE     ---       #47
      01001C7DH   LINE      CODE     ---       #48
      01001C7FH   LINE      CODE     ---       #49
      01001C7FH   LINE      CODE     ---       #50
      01001C8AH   LINE      CODE     ---       #51
      01001C97H   LINE      CODE     ---       #52
      01001C97H   LINE      CODE     ---       #53
      01001C99H   LINE      CODE     ---       #54
      01001C99H   LINE      CODE     ---       #55
      01001CA0H   LINE      CODE     ---       #56
      01001CA5H   LINE      CODE     ---       #57
      01001CA5H   LINE      CODE     ---       #58
      01001CA5H   LINE      CODE     ---       #59
      01001CB2H   LINE      CODE     ---       #60
      01001CB5H   LINE      CODE     ---       #62
      01001CB6H   LINE      CODE     ---       #63
      01001CB8H   LINE      CODE     ---       #64
      01001CC2H   LINE      CODE     ---       #65
      01001CC2H   LINE      CODE     ---       #66
      01001CC4H   LINE      CODE     ---       #67
      01001CC5H   LINE      CODE     ---       #68
      01001CD9H   LINE      CODE     ---       #69
      01001CDFH   LINE      CODE     ---       #70
      01001CF3H   LINE      CODE     ---       #71
      01001CF9H   LINE      CODE     ---       #72
      01001D0DH   LINE      CODE     ---       #73
      01001D13H   LINE      CODE     ---       #74
      01001D16H   LINE      CODE     ---       #75
      01001D22H   LINE      CODE     ---       #76
      01001D24H   LINE      CODE     ---       #77
      01001D24H   LINE      CODE     ---       #78
      01001D24H   LINE      CODE     ---       #79
      01001D25H   LINE      CODE     ---       #80
      ---         BLOCKEND  ---      ---       LVL=0

      ---         MODULE    ---      ---       CLOUDHANDLE
      02000080H   PUBLIC    XDATA    ---       CloudAct
      010013B8H   PUBLIC    CODE     ---       CloudInit
      0100177FH   PUBLIC    CODE     ---       CloudLoop
      000000D8H.2 SFRSYM    DATA     BIT       CCF2
      00000092H   SFRSYM    DATA     BYTE      P1M0
      00000093H   SFRSYM    DATA     BYTE      P0M1
      000000D8H.3 SFRSYM    DATA     BIT       CCF3
      00000096H   SFRSYM    DATA     BYTE      P2M0
      00000091H   SFRSYM    DATA     BYTE      P1M1
      00000080H   SFRSYM    DATA     BYTE      P0
      000000B2H   SFRSYM    DATA     BYTE      P3M0
      00000095H   SFRSYM    DATA     BYTE      P2M1
      00000090H   SFRSYM    DATA     BYTE      P1
      000000B4H   SFRSYM    DATA     BYTE      P4M0
      000000B1H   SFRSYM    DATA     BYTE      P3M1
      000000A0H   SFRSYM    DATA     BYTE      P2
      000000ABH   SFRSYM    DATA     BYTE      WKTCH
      000000CAH   SFRSYM    DATA     BYTE      P5M0
      000000B3H   SFRSYM    DATA     BYTE      P4M1
      000000B0H   SFRSYM    DATA     BYTE      P3
      000000CCH   SFRSYM    DATA     BYTE      P6M0
      000000C9H   SFRSYM    DATA     BYTE      P5M1
LX51 LINKER/LOCATER V4.66.93.0                                                        05/06/2020  16:02:27  PAGE 56


      000000C0H   SFRSYM    DATA     BYTE      P4
      000000D0H.6 SFRSYM    DATA     BIT       AC
      000000F6H   SFRSYM    DATA     BYTE      PWMIF
      000000C6H   SFRSYM    DATA     BYTE      ISP_TRIG
      000000E2H   SFRSYM    DATA     BYTE      P7M0
      000000CBH   SFRSYM    DATA     BYTE      P6M1
      000000C8H   SFRSYM    DATA     BYTE      P5
      000000A8H.7 SFRSYM    DATA     BIT       EA
      000000E1H   SFRSYM    DATA     BYTE      P7M1
      000000E8H   SFRSYM    DATA     BYTE      P6
      000000AAH   SFRSYM    DATA     BYTE      WKTCL
      000000F8H   SFRSYM    DATA     BYTE      P7
      000000CEH   SFRSYM    DATA     BYTE      SPCTL
      000000D8H.7 SFRSYM    DATA     BIT       CF
      000000FEH   SFRSYM    DATA     BYTE      PWMCR
      000000F9H   SFRSYM    DATA     BYTE      CH
      000000A2H   SFRSYM    DATA     BYTE      P_SW1
      000000BAH   SFRSYM    DATA     BYTE      P_SW2
      000000A8H.5 SFRSYM    DATA     BIT       EADC
      000000A8H   SFRSYM    DATA     BYTE      IE
      000000E5H   SFRSYM    DATA     BYTE      DPH1
      000000E9H   SFRSYM    DATA     BYTE      CL
      000000C5H   SFRSYM    DATA     BYTE      IAP_CMD
      000000FAH   SFRSYM    DATA     BYTE      CCAP0H
      000000B0H.2 SFRSYM    DATA     BIT       LCD1602_EN
      00000090H.0 SFRSYM    DATA     BIT       LED_RED
      000000FBH   SFRSYM    DATA     BYTE      CCAP1H
      000000E4H   SFRSYM    DATA     BYTE      DPL1
      000000FCH   SFRSYM    DATA     BYTE      CCAP2H
      000000FDH   SFRSYM    DATA     BYTE      CCAP3H
      000000BDH   SFRSYM    DATA     BYTE      ADC_RES
      000000B6H   SFRSYM    DATA     BYTE      IP2H
      000000EAH   SFRSYM    DATA     BYTE      CCAP0L
      000000D8H.6 SFRSYM    DATA     BIT       CR
      000000AEH   SFRSYM    DATA     BYTE      TA
      000000F7H   SFRSYM    DATA     BYTE      PWMFDCR
      000000EBH   SFRSYM    DATA     BYTE      CCAP1L
      000000DAH   SFRSYM    DATA     BYTE      CCAPM0
      000000ECH   SFRSYM    DATA     BYTE      CCAP2L
      000000DBH   SFRSYM    DATA     BYTE      CCAPM1
      0000008FH   SFRSYM    DATA     BYTE      INTCLKO
      000000EDH   SFRSYM    DATA     BYTE      CCAP3L
      000000DCH   SFRSYM    DATA     BYTE      CCAPM2
      000000A8H.4 SFRSYM    DATA     BIT       ES
      000000DDH   SFRSYM    DATA     BYTE      CCAPM3
      000000B8H.5 SFRSYM    DATA     BIT       PADC
      000000B8H   SFRSYM    DATA     BYTE      IP
      000000DEH   SFRSYM    DATA     BYTE      ADCCFG
      00000098H.0 SFRSYM    DATA     BIT       RI
      000000D0H.7 SFRSYM    DATA     BIT       CY
      00000098H.1 SFRSYM    DATA     BIT       TI
      000000C3H   SFRSYM    DATA     BYTE      IAP_ADDRH
      000000C0H.1 SFRSYM    DATA     BIT       DS18B20_DATA
      000000C5H   SFRSYM    DATA     BYTE      ISP_CMD
      000000B8H.4 SFRSYM    DATA     BIT       PS
      00000081H   SFRSYM    DATA     BYTE      SP
      000000A0H.7 SFRSYM    DATA     BIT       LCD1602_Busy
      000000B0H.5 SFRSYM    DATA     BIT       LCD1602_RS
      000000D9H   SFRSYM    DATA     BYTE      CMOD
      000000D8H   SFRSYM    DATA     BYTE      CCON
      000000C4H   SFRSYM    DATA     BYTE      IAP_ADDRL
      000000B8H.7 SFRSYM    DATA     BIT       PPCA
      000000D0H.2 SFRSYM    DATA     BIT       OV
      000000B0H.4 SFRSYM    DATA     BIT       LCD1602_RW
      000000E6H   SFRSYM    DATA     BYTE      CMPCR1
LX51 LINKER/LOCATER V4.66.93.0                                                        05/06/2020  16:02:27  PAGE 57


      00000090H.1 SFRSYM    DATA     BIT       LED_GREEN
      000000E7H   SFRSYM    DATA     BYTE      CMPCR2
      000000A8H.6 SFRSYM    DATA     BIT       ELVD
      00000080H.0 SFRSYM    DATA     BIT       P00
      000000BCH   SFRSYM    DATA     BYTE      ADC_CONTR
      00000099H   SFRSYM    DATA     BYTE      SBUF
      00000087H   SFRSYM    DATA     BYTE      PCON
      00000090H.0 SFRSYM    DATA     BIT       P10
      00000080H.1 SFRSYM    DATA     BIT       P01
      000000C3H   SFRSYM    DATA     BYTE      ISP_ADDRH
      000000A0H.0 SFRSYM    DATA     BIT       P20
      00000090H.1 SFRSYM    DATA     BIT       P11
      00000080H.2 SFRSYM    DATA     BIT       P02
      000000B0H.0 SFRSYM    DATA     BIT       P30
      000000A0H.1 SFRSYM    DATA     BIT       P21
      00000090H.2 SFRSYM    DATA     BIT       P12
      00000080H.3 SFRSYM    DATA     BIT       P03
      00000098H   SFRSYM    DATA     BYTE      SCON
      000000C0H.0 SFRSYM    DATA     BIT       P40
      000000B0H.1 SFRSYM    DATA     BIT       P31
      000000A0H.2 SFRSYM    DATA     BIT       P22
      00000090H.3 SFRSYM    DATA     BIT       P13
      00000080H.4 SFRSYM    DATA     BIT       P04
      00000089H   SFRSYM    DATA     BYTE      TMOD
      00000088H   SFRSYM    DATA     BYTE      TCON
      000000C8H.0 SFRSYM    DATA     BIT       P50
      000000C0H.1 SFRSYM    DATA     BIT       P41
      000000B0H.2 SFRSYM    DATA     BIT       P32
      000000A0H.3 SFRSYM    DATA     BIT       P23
      00000090H.4 SFRSYM    DATA     BIT       P14
      00000080H.5 SFRSYM    DATA     BIT       P05
      000000C4H   SFRSYM    DATA     BYTE      ISP_ADDRL
      000000E8H.0 SFRSYM    DATA     BIT       P60
      000000C8H.1 SFRSYM    DATA     BIT       P51
      000000C0H.2 SFRSYM    DATA     BIT       P42
      000000B0H.3 SFRSYM    DATA     BIT       P33
      000000A0H.4 SFRSYM    DATA     BIT       P24
      00000090H.5 SFRSYM    DATA     BIT       P15
      00000080H.6 SFRSYM    DATA     BIT       P06
      000000B8H.6 SFRSYM    DATA     BIT       PLVD
      000000F8H.0 SFRSYM    DATA     BIT       P70
      000000E8H.1 SFRSYM    DATA     BIT       P61
      000000C8H.2 SFRSYM    DATA     BIT       P52
      000000C0H.3 SFRSYM    DATA     BIT       P43
      000000B0H.4 SFRSYM    DATA     BIT       P34
      000000A0H.5 SFRSYM    DATA     BIT       P25
      00000090H.6 SFRSYM    DATA     BIT       P16
      00000080H.7 SFRSYM    DATA     BIT       P07
      000000F8H.1 SFRSYM    DATA     BIT       P71
      000000E8H.2 SFRSYM    DATA     BIT       P62
      000000C8H.3 SFRSYM    DATA     BIT       P53
      000000C0H.4 SFRSYM    DATA     BIT       P44
      000000B0H.5 SFRSYM    DATA     BIT       P35
      000000A0H.6 SFRSYM    DATA     BIT       P26
      00000090H.7 SFRSYM    DATA     BIT       P17
      000000F8H.2 SFRSYM    DATA     BIT       P72
      000000E8H.3 SFRSYM    DATA     BIT       P63
      000000C8H.4 SFRSYM    DATA     BIT       P54
      000000C0H.5 SFRSYM    DATA     BIT       P45
      000000B0H.6 SFRSYM    DATA     BIT       P36
      000000A0H.7 SFRSYM    DATA     BIT       P27
      000000F8H.3 SFRSYM    DATA     BIT       P73
      000000E8H.4 SFRSYM    DATA     BIT       P64
      000000C8H.5 SFRSYM    DATA     BIT       P55
      000000C0H.6 SFRSYM    DATA     BIT       P46
LX51 LINKER/LOCATER V4.66.93.0                                                        05/06/2020  16:02:27  PAGE 58


      000000B0H.7 SFRSYM    DATA     BIT       P37
      000000F8H.4 SFRSYM    DATA     BIT       P74
      000000E8H.5 SFRSYM    DATA     BIT       P65
      000000C8H.6 SFRSYM    DATA     BIT       P56
      000000C0H.7 SFRSYM    DATA     BIT       P47
      000000F8H.5 SFRSYM    DATA     BIT       P75
      000000E8H.6 SFRSYM    DATA     BIT       P66
      000000C8H.7 SFRSYM    DATA     BIT       P57
      000000F8H.6 SFRSYM    DATA     BIT       P76
      000000E8H.7 SFRSYM    DATA     BIT       P67
      00000088H.1 SFRSYM    DATA     BIT       IE0
      000000A1H   SFRSYM    DATA     BYTE      BUS_SPEED
      000000F8H.7 SFRSYM    DATA     BIT       P77
      00000088H.3 SFRSYM    DATA     BIT       IE1
      000000AFH   SFRSYM    DATA     BYTE      IE2
      0000008EH   SFRSYM    DATA     BYTE      AUXR
      000000F0H   SFRSYM    DATA     BYTE      B
      000000C7H   SFRSYM    DATA     BYTE      IAP_CONTR
      000000F1H   SFRSYM    DATA     BYTE      PWMCFG
      000000E0H   SFRSYM    DATA     BYTE      ACC
      000000A8H.1 SFRSYM    DATA     BIT       ET0
      00000088H.5 SFRSYM    DATA     BIT       TF0
      000000A8H.3 SFRSYM    DATA     BIT       ET1
      00000088H.7 SFRSYM    DATA     BIT       TF1
      000000B5H   SFRSYM    DATA     BYTE      IP2
      000000FFH   SFRSYM    DATA     BYTE      RSTCFG
      00000098H.2 SFRSYM    DATA     BIT       RB8
      0000008CH   SFRSYM    DATA     BYTE      TH0
      0000008DH   SFRSYM    DATA     BYTE      TH1
      00000088H.0 SFRSYM    DATA     BIT       IT0
      000000A8H.0 SFRSYM    DATA     BIT       EX0
      00000098H.3 SFRSYM    DATA     BIT       TB8
      000000D6H   SFRSYM    DATA     BYTE      TH2
      000000D6H   SFRSYM    DATA     BYTE      T2H
      00000088H.2 SFRSYM    DATA     BIT       IT1
      000000A8H.2 SFRSYM    DATA     BIT       EX1
      000000D4H   SFRSYM    DATA     BYTE      TH3
      000000D4H   SFRSYM    DATA     BYTE      T3H
      000000D0H.0 SFRSYM    DATA     BIT       P
      00000098H.7 SFRSYM    DATA     BIT       SM0
      000000D2H   SFRSYM    DATA     BYTE      TH4
      000000D2H   SFRSYM    DATA     BYTE      T4H
      0000008AH   SFRSYM    DATA     BYTE      TL0
      00000098H.6 SFRSYM    DATA     BIT       SM1
      0000008BH   SFRSYM    DATA     BYTE      TL1
      00000098H.5 SFRSYM    DATA     BIT       SM2
      000000D7H   SFRSYM    DATA     BYTE      TL2
      000000D7H   SFRSYM    DATA     BYTE      T2L
      000000D5H   SFRSYM    DATA     BYTE      TL3
      000000D5H   SFRSYM    DATA     BYTE      T3L
      000000D3H   SFRSYM    DATA     BYTE      TL4
      000000D3H   SFRSYM    DATA     BYTE      T4L
      000000B8H.1 SFRSYM    DATA     BIT       PT0
      000000C7H   SFRSYM    DATA     BYTE      ISP_CONTR
      000000B8H.3 SFRSYM    DATA     BIT       PT1
      000000D0H.3 SFRSYM    DATA     BIT       RS0
      000000C2H   SFRSYM    DATA     BYTE      IAP_DATA
      00000088H.4 SFRSYM    DATA     BIT       TR0
      000000D0H.4 SFRSYM    DATA     BIT       RS1
      00000088H.6 SFRSYM    DATA     BIT       TR1
      000000C1H   SFRSYM    DATA     BYTE      WDT_CONTR
      000000B8H.0 SFRSYM    DATA     BIT       PX0
      000000B8H.2 SFRSYM    DATA     BIT       PX1
      000000F2H   SFRSYM    DATA     BYTE      PCA_PWM0
      000000F3H   SFRSYM    DATA     BYTE      PCA_PWM1
LX51 LINKER/LOCATER V4.66.93.0                                                        05/06/2020  16:02:27  PAGE 59


      000000F4H   SFRSYM    DATA     BYTE      PCA_PWM2
      000000BBH   SFRSYM    DATA     BYTE      VOCTRL
      00000083H   SFRSYM    DATA     BYTE      DPH
      000000F5H   SFRSYM    DATA     BYTE      PCA_PWM3
      000000D1H   SFRSYM    DATA     BYTE      T4T3M
      00000080H.7 SFRSYM    DATA     BIT       LED_BLUE
      000000BEH   SFRSYM    DATA     BYTE      ADC_RESL
      00000082H   SFRSYM    DATA     BYTE      DPL
      000000CDH   SFRSYM    DATA     BYTE      SPSTAT
      000000B7H   SFRSYM    DATA     BYTE      IPH
      0000009BH   SFRSYM    DATA     BYTE      S2BUF
      000000ADH   SFRSYM    DATA     BYTE      S3BUF
      00000085H   SFRSYM    DATA     BYTE      S4BUF
      00000098H.4 SFRSYM    DATA     BIT       REN
      0000009AH   SFRSYM    DATA     BYTE      S2CON
      000000ACH   SFRSYM    DATA     BYTE      S3CON
      000000E3H   SFRSYM    DATA     BYTE      DPS
      000000C2H   SFRSYM    DATA     BYTE      ISP_DATA
      00000084H   SFRSYM    DATA     BYTE      S4CON
      000000EFH   SFRSYM    DATA     BYTE      AUXINTIF
      000000B9H   SFRSYM    DATA     BYTE      SADEN
      000000A9H   SFRSYM    DATA     BYTE      SADDR
      000000C6H   SFRSYM    DATA     BYTE      IAP_TRIG
      00000097H   SFRSYM    DATA     BYTE      AUXR2
      000000D0H.5 SFRSYM    DATA     BIT       F0
      000000D0H   SFRSYM    DATA     BYTE      PSW
      000000D8H.0 SFRSYM    DATA     BIT       CCF0
      000000D8H.1 SFRSYM    DATA     BIT       CCF1
      000000CFH   SFRSYM    DATA     BYTE      SPDAT
      00000094H   SFRSYM    DATA     BYTE      P0M0
      0200001CH   SYMBOL    XDATA    ---       CloudSendData
      010010B8H   SYMBOL    CODE     ---       _CloudSend
      01000C94H   SYMBOL    CODE     ---       CloudHandleReceive
      020000AEH   SYMBOL    XDATA    ---       CloudReceiveBuffer
      020002A2H   SYMBOL    XDATA    WORD      CloudSendDataIdx
      020002A4H   SYMBOL    XDATA    WORD      CloudSendIdx
      01001D26H   SYMBOL    CODE     ---       _CloudReSend
      01001F01H   SYMBOL    CODE     ---       CloudReceive
      010028B8H   SYMBOL    CONST    ---       _?ix1000
      0000000EH   SYMBOL    DATA     BYTE      CloudReceiveState
      020002A6H   SYMBOL    XDATA    ---       CloudSendBuffer
      0200049AH   SYMBOL    XDATA    WORD      CloudReceiveIdx
      0100192CH   SYMBOL    CODE     ---       _CloudReport

      010015B1H   BLOCK     CODE     ---       LVL=0
      ---         BLOCKEND  ---      ---       LVL=0

      0100177FH   BLOCK     CODE     ---       LVL=0
      01001841H   BLOCK     CODE     NEAR LAB  LVL=1
      00000021H.6 SYMBOL    BIT      BIT       issend
      ---         BLOCKEND  ---      ---       LVL=1
      0100177FH   LINE      CODE     ---       #21
      0100177FH   LINE      CODE     ---       #22
      0100177FH   LINE      CODE     ---       #24
      0100178AH   LINE      CODE     ---       #25
      0100178AH   LINE      CODE     ---       #26
      0100178DH   LINE      CODE     ---       #27
      01001792H   LINE      CODE     ---       #29
      010017A3H   LINE      CODE     ---       #30
      010017AAH   LINE      CODE     ---       #31
      010017BAH   LINE      CODE     ---       #32
      010017C1H   LINE      CODE     ---       #34
      010017D2H   LINE      CODE     ---       #35
      010017E2H   LINE      CODE     ---       #37
      010017F5H   LINE      CODE     ---       #38
LX51 LINKER/LOCATER V4.66.93.0                                                        05/06/2020  16:02:27  PAGE 60


      010017FCH   LINE      CODE     ---       #39
      01001810H   LINE      CODE     ---       #40
      01001817H   LINE      CODE     ---       #41
      01001829H   LINE      CODE     ---       #42
      01001830H   LINE      CODE     ---       #43
      01001830H   LINE      CODE     ---       #45
      01001841H   LINE      CODE     ---       #46
      01001841H   LINE      CODE     ---       #48
      0100184CH   LINE      CODE     ---       #49
      0100184CH   LINE      CODE     ---       #50
      01001852H   LINE      CODE     ---       #51
      01001859H   LINE      CODE     ---       #52
      0100185BH   LINE      CODE     ---       #53
      0100185BH   LINE      CODE     ---       #54
      01001860H   LINE      CODE     ---       #55
      01001860H   LINE      CODE     ---       #56
      01001867H   LINE      CODE     ---       #57
      0100186EH   LINE      CODE     ---       #58
      0100186EH   LINE      CODE     ---       #62
      01001874H   LINE      CODE     ---       #63
      01001874H   LINE      CODE     ---       #64
      01001874H   LINE      CODE     ---       #65
      01001874H   LINE      CODE     ---       #68
      010018B6H   LINE      CODE     ---       #71
      010018C7H   LINE      CODE     ---       #72
      010018D6H   LINE      CODE     ---       #73
      010018E7H   LINE      CODE     ---       #75
      010018FCH   LINE      CODE     ---       #77
      0100190DH   LINE      CODE     ---       #78
      01001924H   LINE      CODE     ---       #80
      0100192BH   LINE      CODE     ---       #81
      ---         BLOCKEND  ---      ---       LVL=0

      010013B8H   BLOCK     CODE     ---       LVL=0
      010013B8H   LINE      CODE     ---       #82
      010013B8H   LINE      CODE     ---       #83
      010013B8H   LINE      CODE     ---       #84
      010013C1H   LINE      CODE     ---       #85
      010013D4H   LINE      CODE     ---       #87
      010013D6H   LINE      CODE     ---       #88
      010013D9H   LINE      CODE     ---       #89
      010013DEH   LINE      CODE     ---       #90
      010013DEH   LINE      CODE     ---       #91
      010013E1H   LINE      CODE     ---       #92
      010013E3H   LINE      CODE     ---       #93
      010013E8H   LINE      CODE     ---       #94
      010013E8H   LINE      CODE     ---       #95
      010013EBH   LINE      CODE     ---       #100
      010013EBH   LINE      CODE     ---       #101
      010013EBH   LINE      CODE     ---       #106
      010013EDH   LINE      CODE     ---       #107
      010013F0H   LINE      CODE     ---       #108
      010013F5H   LINE      CODE     ---       #109
      010013F5H   LINE      CODE     ---       #110
      010013F8H   LINE      CODE     ---       #111
      010013FAH   LINE      CODE     ---       #112
      010013FFH   LINE      CODE     ---       #113
      010013FFH   LINE      CODE     ---       #114
      01001402H   LINE      CODE     ---       #119
      01001402H   LINE      CODE     ---       #120
      01001402H   LINE      CODE     ---       #125
      01001404H   LINE      CODE     ---       #126
      01001407H   LINE      CODE     ---       #127
      0100140CH   LINE      CODE     ---       #128
      0100140CH   LINE      CODE     ---       #129
LX51 LINKER/LOCATER V4.66.93.0                                                        05/06/2020  16:02:27  PAGE 61


      0100140FH   LINE      CODE     ---       #130
      01001414H   LINE      CODE     ---       #131
      0100141BH   LINE      CODE     ---       #132
      0100141BH   LINE      CODE     ---       #133
      0100141EH   LINE      CODE     ---       #138
      0100141EH   LINE      CODE     ---       #139
      0100141EH   LINE      CODE     ---       #144
      01001423H   LINE      CODE     ---       #145
      01001427H   LINE      CODE     ---       #146
      0100142CH   LINE      CODE     ---       #147
      0100142CH   LINE      CODE     ---       #148
      0100142CH   LINE      CODE     ---       #149
      0100142CH   LINE      CODE     ---       #150
      01001431H   LINE      CODE     ---       #151
      01001431H   LINE      CODE     ---       #152
      01001434H   LINE      CODE     ---       #157
      01001434H   LINE      CODE     ---       #158
      01001434H   LINE      CODE     ---       #163
      01001436H   LINE      CODE     ---       #164
      01001439H   LINE      CODE     ---       #165
      0100143EH   LINE      CODE     ---       #166
      0100143EH   LINE      CODE     ---       #167
      0100143EH   LINE      CODE     ---       #168
      0100143EH   LINE      CODE     ---       #169
      01001443H   LINE      CODE     ---       #170
      01001443H   LINE      CODE     ---       #171
      01001446H   LINE      CODE     ---       #176
      01001446H   LINE      CODE     ---       #177
      01001446H   LINE      CODE     ---       #182
      01001448H   LINE      CODE     ---       #183
      0100144BH   LINE      CODE     ---       #184
      01001450H   LINE      CODE     ---       #185
      01001450H   LINE      CODE     ---       #186
      01001450H   LINE      CODE     ---       #187
      01001450H   LINE      CODE     ---       #188
      01001455H   LINE      CODE     ---       #189
      01001455H   LINE      CODE     ---       #190
      01001458H   LINE      CODE     ---       #195
      01001458H   LINE      CODE     ---       #196
      01001458H   LINE      CODE     ---       #201
      0100145AH   LINE      CODE     ---       #202
      0100145DH   LINE      CODE     ---       #203
      01001462H   LINE      CODE     ---       #204
      01001462H   LINE      CODE     ---       #205
      01001462H   LINE      CODE     ---       #206
      01001462H   LINE      CODE     ---       #207
      01001467H   LINE      CODE     ---       #208
      01001467H   LINE      CODE     ---       #209
      0100146AH   LINE      CODE     ---       #214
      0100146AH   LINE      CODE     ---       #215
      0100146AH   LINE      CODE     ---       #220
      0100146CH   LINE      CODE     ---       #221
      0100146FH   LINE      CODE     ---       #222
      01001474H   LINE      CODE     ---       #223
      01001474H   LINE      CODE     ---       #224
      01001474H   LINE      CODE     ---       #225
      01001474H   LINE      CODE     ---       #226
      01001479H   LINE      CODE     ---       #227
      01001479H   LINE      CODE     ---       #228
      0100147CH   LINE      CODE     ---       #233
      0100147CH   LINE      CODE     ---       #234
      0100147CH   LINE      CODE     ---       #239
      0100147EH   LINE      CODE     ---       #240
      01001481H   LINE      CODE     ---       #241
      01001486H   LINE      CODE     ---       #242
LX51 LINKER/LOCATER V4.66.93.0                                                        05/06/2020  16:02:27  PAGE 62


      01001486H   LINE      CODE     ---       #243
      01001486H   LINE      CODE     ---       #244
      01001486H   LINE      CODE     ---       #245
      0100148BH   LINE      CODE     ---       #246
      0100148BH   LINE      CODE     ---       #247
      0100148EH   LINE      CODE     ---       #252
      0100148EH   LINE      CODE     ---       #253
      0100148EH   LINE      CODE     ---       #258
      01001494H   LINE      CODE     ---       #259
      01001499H   LINE      CODE     ---       #260
      0100149EH   LINE      CODE     ---       #261
      0100149EH   LINE      CODE     ---       #262
      010014A1H   LINE      CODE     ---       #263
      010014A6H   LINE      CODE     ---       #264
      010014ADH   LINE      CODE     ---       #265
      010014ADH   LINE      CODE     ---       #266
      010014AFH   LINE      CODE     ---       #271
      010014AFH   LINE      CODE     ---       #272
      010014AFH   LINE      CODE     ---       #277
      010014AFH   LINE      CODE     ---       #278
      010014B4H   LINE      CODE     ---       #279
      010014B7H   LINE      CODE     ---       #280
      010014BCH   LINE      CODE     ---       #281
      010014BCH   LINE      CODE     ---       #282
      010014BCH   LINE      CODE     ---       #283
      010014BCH   LINE      CODE     ---       #284
      010014C1H   LINE      CODE     ---       #285
      010014C1H   LINE      CODE     ---       #286
      010014C3H   LINE      CODE     ---       #291
      010014C3H   LINE      CODE     ---       #292
      010014C3H   LINE      CODE     ---       #293
      010014C8H   LINE      CODE     ---       #298
      010014C8H   LINE      CODE     ---       #299
      010014CDH   LINE      CODE     ---       #300
      010014D0H   LINE      CODE     ---       #301
      010014D5H   LINE      CODE     ---       #302
      010014D5H   LINE      CODE     ---       #303
      010014D5H   LINE      CODE     ---       #304
      010014D5H   LINE      CODE     ---       #305
      010014DAH   LINE      CODE     ---       #306
      010014DAH   LINE      CODE     ---       #307
      010014DCH   LINE      CODE     ---       #312
      010014DCH   LINE      CODE     ---       #313
      010014DCH   LINE      CODE     ---       #314
      010014E1H   LINE      CODE     ---       #319
      010014E1H   LINE      CODE     ---       #320
      010014E7H   LINE      CODE     ---       #321
      010014ECH   LINE      CODE     ---       #322
      010014F1H   LINE      CODE     ---       #323
      010014F1H   LINE      CODE     ---       #324
      010014F1H   LINE      CODE     ---       #325
      010014F1H   LINE      CODE     ---       #326
      010014F6H   LINE      CODE     ---       #327
      010014F6H   LINE      CODE     ---       #328
      010014F8H   LINE      CODE     ---       #333
      010014F8H   LINE      CODE     ---       #334
      010014F8H   LINE      CODE     ---       #335
      01001501H   LINE      CODE     ---       #340
      01001501H   LINE      CODE     ---       #341
      01001501H   LINE      CODE     ---       #342
      01001507H   LINE      CODE     ---       #343
      0100150CH   LINE      CODE     ---       #344
      0100150CH   LINE      CODE     ---       #345
      0100150CH   LINE      CODE     ---       #346
      0100150CH   LINE      CODE     ---       #347
LX51 LINKER/LOCATER V4.66.93.0                                                        05/06/2020  16:02:27  PAGE 63


      01001511H   LINE      CODE     ---       #348
      01001511H   LINE      CODE     ---       #349
      01001514H   LINE      CODE     ---       #354
      01001514H   LINE      CODE     ---       #355
      01001514H   LINE      CODE     ---       #360
      ---         BLOCKEND  ---      ---       LVL=0

      01001F01H   BLOCK     CODE     ---       LVL=0
      01001F01H   BLOCK     CODE     NEAR LAB  LVL=1
      00000025H   SYMBOL    DATA     WORD      idx1
      00000027H   SYMBOL    DATA     WORD      idx2
      ---         BLOCKEND  ---      ---       LVL=1
      01001F01H   LINE      CODE     ---       #362
      01001F01H   LINE      CODE     ---       #363
      01001F01H   LINE      CODE     ---       #364
      01001F0DH   LINE      CODE     ---       #365
      01001F1CH   LINE      CODE     ---       #366
      01001F1CH   LINE      CODE     ---       #367
      01001F24H   LINE      CODE     ---       #368
      01001F24H   LINE      CODE     ---       #369
      01001F24H   LINE      CODE     ---       #370
      01001F2BH   LINE      CODE     ---       #371
      01001F2EH   LINE      CODE     ---       #372
      01001F30H   LINE      CODE     ---       #373
      01001F30H   LINE      CODE     ---       #374
      01001F37H   LINE      CODE     ---       #375
      01001F37H   LINE      CODE     ---       #376
      01001F46H   LINE      CODE     ---       #377
      01001F46H   LINE      CODE     ---       #378
      01001F57H   LINE      CODE     ---       #379
      01001F5AH   LINE      CODE     ---       #380
      01001F5AH   LINE      CODE     ---       #381
      01001F5DH   LINE      CODE     ---       #382
      01001F63H   LINE      CODE     ---       #383
      01001F67H   LINE      CODE     ---       #384
      01001F69H   LINE      CODE     ---       #386
      01001F81H   LINE      CODE     ---       #387
      01001F81H   LINE      CODE     ---       #388
      01001F81H   LINE      CODE     ---       #389
      01001F90H   LINE      CODE     ---       #390
      01001F97H   LINE      CODE     ---       #392
      01001F9FH   LINE      CODE     ---       #393
      01001FA5H   LINE      CODE     ---       #394
      01001FA8H   LINE      CODE     ---       #395
      ---         BLOCKEND  ---      ---       LVL=0

      010010B8H   BLOCK     CODE     ---       LVL=0
      00000023H   SYMBOL    DATA     BYTE      op
      010010BAH   BLOCK     CODE     NEAR LAB  LVL=1
      02000004H   SYMBOL    PDATA    BYTE      i
      010011B5H   BLOCK     CODE     NEAR LAB  LVL=2
      02000001H   SYMBOL    PDATA    ---       P
      ---         BLOCKEND  ---      ---       LVL=2
      ---         BLOCKEND  ---      ---       LVL=1
      010010B8H   LINE      CODE     ---       #396
      010010BAH   LINE      CODE     ---       #397
      010010BAH   LINE      CODE     ---       #398
      010010BEH   LINE      CODE     ---       #399
      010010CAH   LINE      CODE     ---       #400
      010010CCH   LINE      CODE     ---       #401
      01001105H   LINE      CODE     ---       #402
      01001120H   LINE      CODE     ---       #403
      01001120H   LINE      CODE     ---       #404
      01001120H   LINE      CODE     ---       #405
      01001149H   LINE      CODE     ---       #406
LX51 LINKER/LOCATER V4.66.93.0                                                        05/06/2020  16:02:27  PAGE 64


      01001149H   LINE      CODE     ---       #407
      01001149H   LINE      CODE     ---       #408
      0100115EH   LINE      CODE     ---       #409
      01001161H   LINE      CODE     ---       #410
      01001161H   LINE      CODE     ---       #411
      01001176H   LINE      CODE     ---       #412
      01001179H   LINE      CODE     ---       #413
      01001179H   LINE      CODE     ---       #414
      01001185H   LINE      CODE     ---       #415
      01001188H   LINE      CODE     ---       #416
      01001188H   LINE      CODE     ---       #417
      01001194H   LINE      CODE     ---       #418
      01001197H   LINE      CODE     ---       #419
      01001197H   LINE      CODE     ---       #420
      010011A3H   LINE      CODE     ---       #421
      010011A6H   LINE      CODE     ---       #422
      010011A6H   LINE      CODE     ---       #423
      010011B2H   LINE      CODE     ---       #424
      010011B5H   LINE      CODE     ---       #425
      010011B5H   LINE      CODE     ---       #426
      010011B5H   LINE      CODE     ---       #428
      010011C7H   LINE      CODE     ---       #429
      010011C7H   LINE      CODE     ---       #430
      010011C7H   LINE      CODE     ---       #431
      010011D3H   LINE      CODE     ---       #432
      010011D3H   LINE      CODE     ---       #433
      010011DFH   LINE      CODE     ---       #434
      010011DFH   LINE      CODE     ---       #435
      010011E9H   LINE      CODE     ---       #436
      010011E9H   LINE      CODE     ---       #437
      0100122DH   LINE      CODE     ---       #439
      0100122DH   LINE      CODE     ---       #440
      01001230H   LINE      CODE     ---       #441
      01001230H   LINE      CODE     ---       #442
      0100124BH   LINE      CODE     ---       #443
      0100124BH   LINE      CODE     ---       #444
      0100124BH   LINE      CODE     ---       #445
      0100125AH   LINE      CODE     ---       #446
      0100125DH   LINE      CODE     ---       #447
      0100125DH   LINE      CODE     ---       #448
      01001269H   LINE      CODE     ---       #449
      0100126CH   LINE      CODE     ---       #450
      0100126CH   LINE      CODE     ---       #451
      01001278H   LINE      CODE     ---       #452
      0100127BH   LINE      CODE     ---       #453
      0100127BH   LINE      CODE     ---       #454
      0100128AH   LINE      CODE     ---       #455
      0100128DH   LINE      CODE     ---       #456
      0100128DH   LINE      CODE     ---       #457
      0100129CH   LINE      CODE     ---       #458
      0100129FH   LINE      CODE     ---       #459
      0100129FH   LINE      CODE     ---       #460
      010012AEH   LINE      CODE     ---       #461
      010012B1H   LINE      CODE     ---       #462
      010012B1H   LINE      CODE     ---       #463
      010012B1H   LINE      CODE     ---       #464
      010012B1H   LINE      CODE     ---       #465
      010012C8H   LINE      CODE     ---       #466
      010012C8H   LINE      CODE     ---       #467
      010012C8H   LINE      CODE     ---       #468
      010012E7H   LINE      CODE     ---       #470
      010012E9H   LINE      CODE     ---       #471
      010012E9H   LINE      CODE     ---       #472
      010012FAH   LINE      CODE     ---       #474
      010012FCH   LINE      CODE     ---       #475
LX51 LINKER/LOCATER V4.66.93.0                                                        05/06/2020  16:02:27  PAGE 65


      010012FCH   LINE      CODE     ---       #476
      0100130DH   LINE      CODE     ---       #478
      0100130FH   LINE      CODE     ---       #479
      0100130FH   LINE      CODE     ---       #480
      0100130FH   LINE      CODE     ---       #481
      0100130FH   LINE      CODE     ---       #482
      0100135AH   LINE      CODE     ---       #485
      0100135AH   LINE      CODE     ---       #486
      0100135AH   LINE      CODE     ---       #487
      01001367H   LINE      CODE     ---       #488
      0100136DH   LINE      CODE     ---       #489
      0100136FH   LINE      CODE     ---       #490
      0100136FH   LINE      CODE     ---       #491
      01001387H   LINE      CODE     ---       #492
      01001389H   LINE      CODE     ---       #493
      01001389H   LINE      CODE     ---       #494
      01001389H   LINE      CODE     ---       #495
      01001389H   LINE      CODE     ---       #496
      01001389H   LINE      CODE     ---       #497
      01001389H   LINE      CODE     ---       #498
      0100138FH   LINE      CODE     ---       #499
      0100138FH   LINE      CODE     ---       #500
      01001395H   LINE      CODE     ---       #501
      01001395H   LINE      CODE     ---       #502
      0100139BH   LINE      CODE     ---       #503
      010013A0H   LINE      CODE     ---       #504
      010013A0H   LINE      CODE     ---       #505
      010013A0H   LINE      CODE     ---       #509
      010013A6H   LINE      CODE     ---       #510
      010013ADH   LINE      CODE     ---       #511
      010013B0H   LINE      CODE     ---       #512
      010013B6H   LINE      CODE     ---       #513
      010013B7H   LINE      CODE     ---       #514
      ---         BLOCKEND  ---      ---       LVL=0

      01001D26H   BLOCK     CODE     ---       LVL=0
      00000007H   SYMBOL    DATA     BYTE      Time
      01001D26H   BLOCK     CODE     NEAR LAB  LVL=1
      0200072BH   SYMBOL    XDATA    DWORD     Timex
      01001DB5H   BLOCK     CODE     NEAR LAB  LVL=2
      00000023H   SYMBOL    DATA     WORD      TempT
      ---         BLOCKEND  ---      ---       LVL=2
      ---         BLOCKEND  ---      ---       LVL=1
      01001D26H   LINE      CODE     ---       #515
      01001D26H   LINE      CODE     ---       #516
      01001D26H   LINE      CODE     ---       #517
      01001D30H   LINE      CODE     ---       #518
      01001D46H   LINE      CODE     ---       #519
      01001D59H   LINE      CODE     ---       #521
      01001D82H   LINE      CODE     ---       #522
      01001D82H   LINE      CODE     ---       #523
      01001D8FH   LINE      CODE     ---       #524
      01001D8FH   LINE      CODE     ---       #525
      01001D92H   LINE      CODE     ---       #526
      01001DABH   LINE      CODE     ---       #530
      01001DB5H   LINE      CODE     ---       #531
      01001DB5H   LINE      CODE     ---       #536
      01001DBBH   LINE      CODE     ---       #537
      01001DC3H   LINE      CODE     ---       #538
      01001DD0H   LINE      CODE     ---       #539
      01001DD7H   LINE      CODE     ---       #540
      01001DDCH   LINE      CODE     ---       #541
      01001DDCH   LINE      CODE     ---       #542
      01001DDFH   LINE      CODE     ---       #543
      01001E00H   LINE      CODE     ---       #544
LX51 LINKER/LOCATER V4.66.93.0                                                        05/06/2020  16:02:27  PAGE 66


      01001E00H   LINE      CODE     ---       #548
      01001E03H   LINE      CODE     ---       #549
      01001E07H   LINE      CODE     ---       #551
      01001E07H   LINE      CODE     ---       #552
      01001E07H   LINE      CODE     ---       #556
      01001E0DH   LINE      CODE     ---       #557
      01001E0DH   LINE      CODE     ---       #558
      01001E0EH   LINE      CODE     ---       #560
      01001E0EH   LINE      CODE     ---       #564
      01001E14H   LINE      CODE     ---       #565
      01001E17H   LINE      CODE     ---       #566
      01001E24H   LINE      CODE     ---       #567
      01001E24H   LINE      CODE     ---       #568
      01001E24H   LINE      CODE     ---       #569
      ---         BLOCKEND  ---      ---       LVL=0

      0100192CH   BLOCK     CODE     ---       LVL=0
      00000022H   SYMBOL    DATA     BYTE      Code
      01001A12H   BLOCK     CODE     NEAR LAB  LVL=1
      02000000H   SYMBOL    PDATA    BYTE      TempFailCount
      ---         BLOCKEND  ---      ---       LVL=1
      0100192CH   LINE      CODE     ---       #570
      0100192EH   LINE      CODE     ---       #571
      0100192EH   LINE      CODE     ---       #572
      0100193AH   LINE      CODE     ---       #573
      0100193CH   LINE      CODE     ---       #574
      01001943H   LINE      CODE     ---       #575
      01001943H   LINE      CODE     ---       #576
      01001949H   LINE      CODE     ---       #577
      01001949H   LINE      CODE     ---       #578
      0100194DH   LINE      CODE     ---       #579
      0100194DH   LINE      CODE     ---       #580
      0100194DH   LINE      CODE     ---       #581
      0100194DH   LINE      CODE     ---       #582
      01001953H   LINE      CODE     ---       #583
      01001953H   LINE      CODE     ---       #584
      01001955H   LINE      CODE     ---       #585
      01001955H   LINE      CODE     ---       #586
      0100195CH   LINE      CODE     ---       #587
      01001963H   LINE      CODE     ---       #588
      01001999H   LINE      CODE     ---       #590
      010019A3H   LINE      CODE     ---       #591
      010019A3H   LINE      CODE     ---       #592
      010019ADH   LINE      CODE     ---       #593
      010019C2H   LINE      CODE     ---       #595
      01001A08H   LINE      CODE     ---       #596
      01001A08H   LINE      CODE     ---       #597
      01001A0AH   LINE      CODE     ---       #599
      01001A0AH   LINE      CODE     ---       #600
      01001A12H   LINE      CODE     ---       #601
      01001A12H   LINE      CODE     ---       #602
      01001A18H   LINE      CODE     ---       #603
      01001A1EH   LINE      CODE     ---       #604
      01001A24H   LINE      CODE     ---       #605
      01001A29H   LINE      CODE     ---       #606
      01001A2EH   LINE      CODE     ---       #607
      01001A2EH   LINE      CODE     ---       #608
      01001A31H   LINE      CODE     ---       #609
      01001A36H   LINE      CODE     ---       #610
      01001A4BH   LINE      CODE     ---       #611
      01001A4DH   LINE      CODE     ---       #612
      01001A4DH   LINE      CODE     ---       #613
      01001A4DH   LINE      CODE     ---       #614
      01001A5DH   LINE      CODE     ---       #615
      01001A5DH   LINE      CODE     ---       #616
LX51 LINKER/LOCATER V4.66.93.0                                                        05/06/2020  16:02:27  PAGE 67


      01001A5DH   LINE      CODE     ---       #617
      01001A63H   LINE      CODE     ---       #618
      01001A63H   LINE      CODE     ---       #619
      01001A6EH   LINE      CODE     ---       #620
      01001A6EH   LINE      CODE     ---       #621
      01001A6EH   LINE      CODE     ---       #622
      01001A6EH   LINE      CODE     ---       #623
      01001A88H   LINE      CODE     ---       #624
      01001A88H   LINE      CODE     ---       #625
      01001A88H   LINE      CODE     ---       #626
      01001A88H   LINE      CODE     ---       #627
      01001A8EH   LINE      CODE     ---       #628
      01001A93H   LINE      CODE     ---       #629
      01001A94H   LINE      CODE     ---       #630
      ---         BLOCKEND  ---      ---       LVL=0

      01000C94H   BLOCK     CODE     ---       LVL=0
      01000D23H   BLOCK     CODE     NEAR LAB  LVL=1
      02000017H   SYMBOL    PDATA    ---       P
      0200001AH   SYMBOL    PDATA    BYTE      i
      01000D89H   BLOCK     CODE     NEAR LAB  LVL=2
      02000002H   SYMBOL    PDATA    ---       Pend
      00000020H.2 SYMBOL    BIT      BIT       isRow2
      02000005H   SYMBOL    PDATA    ---       str
      02000016H   SYMBOL    PDATA    BYTE      readcnt
      01000E0EH   BLOCK     CODE     NEAR LAB  LVL=3
      02000001H   SYMBOL    PDATA    BYTE      i
      ---         BLOCKEND  ---      ---       LVL=3
      ---         BLOCKEND  ---      ---       LVL=2
      ---         BLOCKEND  ---      ---       LVL=1
      01000C94H   LINE      CODE     ---       #631
      01000C94H   LINE      CODE     ---       #632
      01000C94H   LINE      CODE     ---       #636
      01000CABH   LINE      CODE     ---       #637
      01000CABH   LINE      CODE     ---       #639
      01000CABH   LINE      CODE     ---       #640
      01000CBFH   LINE      CODE     ---       #641
      01000CBFH   LINE      CODE     ---       #642
      01000CEBH   LINE      CODE     ---       #645
      01000CEBH   LINE      CODE     ---       #646
      01000CEEH   LINE      CODE     ---       #647
      01000CF9H   LINE      CODE     ---       #648
      01000D01H   LINE      CODE     ---       #649
      01000D01H   LINE      CODE     ---       #650
      01000D02H   LINE      CODE     ---       #651
      01000D0DH   LINE      CODE     ---       #652
      01000D0DH   LINE      CODE     ---       #653
      01000D23H   LINE      CODE     ---       #654
      01000D23H   LINE      CODE     ---       #655
      01000D33H   LINE      CODE     ---       #656
      01000D36H   LINE      CODE     ---       #657
      01000D42H   LINE      CODE     ---       #658
      01000D4CH   LINE      CODE     ---       #659
      01000D64H   LINE      CODE     ---       #660
      01000D72H   LINE      CODE     ---       #661
      01000D89H   LINE      CODE     ---       #662
      01000D89H   LINE      CODE     ---       #663
      01000D89H   LINE      CODE     ---       #664
      01000D89H   LINE      CODE     ---       #665
      01000D89H   LINE      CODE     ---       #666
      01000D89H   LINE      CODE     ---       #667
      01000D89H   LINE      CODE     ---       #668
      01000D89H   LINE      CODE     ---       #669
      01000DA2H   LINE      CODE     ---       #671
      01000DB8H   LINE      CODE     ---       #672
LX51 LINKER/LOCATER V4.66.93.0                                                        05/06/2020  16:02:27  PAGE 68


      01000DCEH   LINE      CODE     ---       #673
      01000DEEH   LINE      CODE     ---       #674
      01000DEEH   LINE      CODE     ---       #675
      01000DF1H   LINE      CODE     ---       #676
      01000E0EH   LINE      CODE     ---       #677
      01000E0EH   LINE      CODE     ---       #678
      01000E11H   LINE      CODE     ---       #679
      01000E19H   LINE      CODE     ---       #680
      01000E2BH   LINE      CODE     ---       #681
      01000E2BH   LINE      CODE     ---       #682
      01000E2FH   LINE      CODE     ---       #683
      01000E32H   LINE      CODE     ---       #684
      01000E42H   LINE      CODE     ---       #685
      01000E44H   LINE      CODE     ---       #686
      01000E4EH   LINE      CODE     ---       #687
      01000E53H   LINE      CODE     ---       #688
      01000E56H   LINE      CODE     ---       #689
      01000E58H   LINE      CODE     ---       #691
      01000E58H   LINE      CODE     ---       #692
      01000E60H   LINE      CODE     ---       #693
      01000E6AH   LINE      CODE     ---       #694
      01000E6AH   LINE      CODE     ---       #695
      01000E6FH   LINE      CODE     ---       #696
      01000E7DH   LINE      CODE     ---       #697
      01000E83H   LINE      CODE     ---       #698
      01000E86H   LINE      CODE     ---       #699
      01000E8DH   LINE      CODE     ---       #700
      01000E8DH   LINE      CODE     ---       #701
      01000E9AH   LINE      CODE     ---       #702
      01000EA4H   LINE      CODE     ---       #703
      01000EA6H   LINE      CODE     ---       #705
      01000EB0H   LINE      CODE     ---       #706
      01000EB7H   LINE      CODE     ---       #707
      01000EB7H   LINE      CODE     ---       #708
      01000EB8H   LINE      CODE     ---       #709
      01000EB8H   LINE      CODE     ---       #710
      01000ECDH   LINE      CODE     ---       #711
      01000EDBH   LINE      CODE     ---       #712
      01000EDBH   LINE      CODE     ---       #713
      01000EDBH   LINE      CODE     ---       #714
      01000EDFH   LINE      CODE     ---       #715
      01000EDFH   LINE      CODE     ---       #716
      01000EE4H   LINE      CODE     ---       #717
      01000EE4H   LINE      CODE     ---       #718
      01000EEEH   LINE      CODE     ---       #719
      01000EF5H   LINE      CODE     ---       #720
      01000EF6H   LINE      CODE     ---       #721
      01000EF6H   LINE      CODE     ---       #722
      01000F05H   LINE      CODE     ---       #723
      01000F13H   LINE      CODE     ---       #724
      01000F13H   LINE      CODE     ---       #725
      01000F13H   LINE      CODE     ---       #726
      01000F1CH   LINE      CODE     ---       #727
      01000F1CH   LINE      CODE     ---       #728
      01000F23H   LINE      CODE     ---       #729
      01000F23H   LINE      CODE     ---       #730
      01000F2DH   LINE      CODE     ---       #731
      01000F34H   LINE      CODE     ---       #732
      01000F35H   LINE      CODE     ---       #733
      01000F35H   LINE      CODE     ---       #734
      01000F35H   LINE      CODE     ---       #735
      01000F35H   LINE      CODE     ---       #736
      01000F35H   LINE      CODE     ---       #737
      01000F35H   LINE      CODE     ---       #738
      01000F35H   LINE      CODE     ---       #739
LX51 LINKER/LOCATER V4.66.93.0                                                        05/06/2020  16:02:27  PAGE 69


      01000F4CH   LINE      CODE     ---       #740
      01000F4CH   LINE      CODE     ---       #741
      01000F62H   LINE      CODE     ---       #742
      01000F67H   LINE      CODE     ---       #743
      01000F6AH   LINE      CODE     ---       #744
      01000F89H   LINE      CODE     ---       #745
      01000F95H   LINE      CODE     ---       #746
      01000F98H   LINE      CODE     ---       #747
      01000FAEH   LINE      CODE     ---       #748
      01000FB3H   LINE      CODE     ---       #749
      01000FB6H   LINE      CODE     ---       #750
      01000FD5H   LINE      CODE     ---       #751
      01000FE1H   LINE      CODE     ---       #752
      01000FE7H   LINE      CODE     ---       #753
      01000FE8H   LINE      CODE     ---       #754
      01001000H   LINE      CODE     ---       #755
      01001000H   LINE      CODE     ---       #756
      0100101FH   LINE      CODE     ---       #757
      01001022H   LINE      CODE     ---       #758
      01001022H   LINE      CODE     ---       #759
      01001022H   LINE      CODE     ---       #761
      01001022H   LINE      CODE     ---       #763
      01001022H   LINE      CODE     ---       #764
      ---         BLOCKEND  ---      ---       LVL=0

      ---         MODULE    ---      ---       CLOUDCODEARRAY
      01002A95H   PUBLIC    CONST    ---       ATCmd
      01002A8FH   PUBLIC    CONST    ---       ATCmd15
      01002A88H   PUBLIC    CONST    ---       ATCmd14
      01002A83H   PUBLIC    CONST    ---       ATCmd13
      01002A79H   PUBLIC    CONST    ---       ATCmd12
      01002A6EH   PUBLIC    CONST    ---       ATCmd11
      01002A64H   PUBLIC    CONST    ---       ATCmd10
      01002A5BH   PUBLIC    CONST    ---       ATCmd9
      01002A53H   PUBLIC    CONST    ---       ATCmd8
      01002A4BH   PUBLIC    CONST    ---       ATCmd7
      01002A41H   PUBLIC    CONST    ---       ATCmd6
      01002A33H   PUBLIC    CONST    ---       ATCmd5
      01002A28H   PUBLIC    CONST    ---       ATCmd4
      01002A1AH   PUBLIC    CONST    ---       ATCmd3
      01002A12H   PUBLIC    CONST    ---       ATCmd2
      01002A09H   PUBLIC    CONST    ---       ATCmd1
      01002A00H   PUBLIC    CONST    ---       ATCmd0
      010029FFH   PUBLIC    CONST    BYTE      Service_3_Len
      010029F4H   PUBLIC    CONST    ---       Service_3
      010029F3H   PUBLIC    CONST    BYTE      Service_2_Len
      010029E4H   PUBLIC    CONST    ---       Service_2
      010029E3H   PUBLIC    CONST    BYTE      Service_1_Len
      010029D4H   PUBLIC    CONST    ---       Service_1
      010029D3H   PUBLIC    CONST    BYTE      Event_2_Len
      010029D2H   PUBLIC    CONST    BYTE      Event_1_Len
      010029BDH   PUBLIC    CONST    ---       Event_2
      010029A9H   PUBLIC    CONST    ---       Event_1
      010029A5H   PUBLIC    CONST    ---       MQTTAutoStart
      010029A2H   PUBLIC    CONST    ---       MQTTAutoReConect
      0100299FH   PUBLIC    CONST    ---       MQTTHeartBeat
      01002966H   PUBLIC    CONST    ---       MQTTClientID
      01002961H   PUBLIC    CONST    ---       MQTTPort
      01002930H   PUBLIC    CONST    ---       MQTTHost
      01002907H   PUBLIC    CONST    ---       MQTTPassword
      010028F3H   PUBLIC    CONST    ---       MQTTUser
      010028EAH   PUBLIC    CONST    ---       WiFiPassword
      010028DDH   PUBLIC    CONST    ---       WiFiSSID
      010028D1H   PUBLIC    CONST    ---       ProductKey
      010028C9H   PUBLIC    CONST    ---       DeviceName
LX51 LINKER/LOCATER V4.66.93.0                                                        05/06/2020  16:02:27  PAGE 70


      000000D8H.2 SFRSYM    DATA     BIT       CCF2
      00000092H   SFRSYM    DATA     BYTE      P1M0
      00000093H   SFRSYM    DATA     BYTE      P0M1
      000000D8H.3 SFRSYM    DATA     BIT       CCF3
      00000096H   SFRSYM    DATA     BYTE      P2M0
      00000091H   SFRSYM    DATA     BYTE      P1M1
      00000080H   SFRSYM    DATA     BYTE      P0
      000000B2H   SFRSYM    DATA     BYTE      P3M0
      00000095H   SFRSYM    DATA     BYTE      P2M1
      00000090H   SFRSYM    DATA     BYTE      P1
      000000B4H   SFRSYM    DATA     BYTE      P4M0
      000000B1H   SFRSYM    DATA     BYTE      P3M1
      000000A0H   SFRSYM    DATA     BYTE      P2
      000000ABH   SFRSYM    DATA     BYTE      WKTCH
      000000CAH   SFRSYM    DATA     BYTE      P5M0
      000000B3H   SFRSYM    DATA     BYTE      P4M1
      000000B0H   SFRSYM    DATA     BYTE      P3
      000000CCH   SFRSYM    DATA     BYTE      P6M0
      000000C9H   SFRSYM    DATA     BYTE      P5M1
      000000C0H   SFRSYM    DATA     BYTE      P4
      000000D0H.6 SFRSYM    DATA     BIT       AC
      000000F6H   SFRSYM    DATA     BYTE      PWMIF
      000000C6H   SFRSYM    DATA     BYTE      ISP_TRIG
      000000E2H   SFRSYM    DATA     BYTE      P7M0
      000000CBH   SFRSYM    DATA     BYTE      P6M1
      000000C8H   SFRSYM    DATA     BYTE      P5
      000000A8H.7 SFRSYM    DATA     BIT       EA
      000000E1H   SFRSYM    DATA     BYTE      P7M1
      000000E8H   SFRSYM    DATA     BYTE      P6
      000000AAH   SFRSYM    DATA     BYTE      WKTCL
      000000F8H   SFRSYM    DATA     BYTE      P7
      000000CEH   SFRSYM    DATA     BYTE      SPCTL
      000000D8H.7 SFRSYM    DATA     BIT       CF
      000000FEH   SFRSYM    DATA     BYTE      PWMCR
      000000F9H   SFRSYM    DATA     BYTE      CH
      000000A2H   SFRSYM    DATA     BYTE      P_SW1
      000000BAH   SFRSYM    DATA     BYTE      P_SW2
      000000A8H.5 SFRSYM    DATA     BIT       EADC
      000000A8H   SFRSYM    DATA     BYTE      IE
      000000E5H   SFRSYM    DATA     BYTE      DPH1
      000000E9H   SFRSYM    DATA     BYTE      CL
      000000C5H   SFRSYM    DATA     BYTE      IAP_CMD
      000000FAH   SFRSYM    DATA     BYTE      CCAP0H
      000000B0H.2 SFRSYM    DATA     BIT       LCD1602_EN
      00000090H.0 SFRSYM    DATA     BIT       LED_RED
      000000FBH   SFRSYM    DATA     BYTE      CCAP1H
      000000E4H   SFRSYM    DATA     BYTE      DPL1
      000000FCH   SFRSYM    DATA     BYTE      CCAP2H
      000000FDH   SFRSYM    DATA     BYTE      CCAP3H
      000000BDH   SFRSYM    DATA     BYTE      ADC_RES
      000000B6H   SFRSYM    DATA     BYTE      IP2H
      000000EAH   SFRSYM    DATA     BYTE      CCAP0L
      000000D8H.6 SFRSYM    DATA     BIT       CR
      000000AEH   SFRSYM    DATA     BYTE      TA
      000000F7H   SFRSYM    DATA     BYTE      PWMFDCR
      000000EBH   SFRSYM    DATA     BYTE      CCAP1L
      000000DAH   SFRSYM    DATA     BYTE      CCAPM0
      000000ECH   SFRSYM    DATA     BYTE      CCAP2L
      000000DBH   SFRSYM    DATA     BYTE      CCAPM1
      0000008FH   SFRSYM    DATA     BYTE      INTCLKO
      000000EDH   SFRSYM    DATA     BYTE      CCAP3L
      000000DCH   SFRSYM    DATA     BYTE      CCAPM2
      000000A8H.4 SFRSYM    DATA     BIT       ES
      000000DDH   SFRSYM    DATA     BYTE      CCAPM3
      000000B8H.5 SFRSYM    DATA     BIT       PADC
LX51 LINKER/LOCATER V4.66.93.0                                                        05/06/2020  16:02:27  PAGE 71


      000000B8H   SFRSYM    DATA     BYTE      IP
      000000DEH   SFRSYM    DATA     BYTE      ADCCFG
      00000098H.0 SFRSYM    DATA     BIT       RI
      000000D0H.7 SFRSYM    DATA     BIT       CY
      00000098H.1 SFRSYM    DATA     BIT       TI
      000000C3H   SFRSYM    DATA     BYTE      IAP_ADDRH
      000000C0H.1 SFRSYM    DATA     BIT       DS18B20_DATA
      000000C5H   SFRSYM    DATA     BYTE      ISP_CMD
      000000B8H.4 SFRSYM    DATA     BIT       PS
      00000081H   SFRSYM    DATA     BYTE      SP
      000000A0H.7 SFRSYM    DATA     BIT       LCD1602_Busy
      000000B0H.5 SFRSYM    DATA     BIT       LCD1602_RS
      000000D9H   SFRSYM    DATA     BYTE      CMOD
      000000D8H   SFRSYM    DATA     BYTE      CCON
      000000C4H   SFRSYM    DATA     BYTE      IAP_ADDRL
      000000B8H.7 SFRSYM    DATA     BIT       PPCA
      000000D0H.2 SFRSYM    DATA     BIT       OV
      000000B0H.4 SFRSYM    DATA     BIT       LCD1602_RW
      000000E6H   SFRSYM    DATA     BYTE      CMPCR1
      00000090H.1 SFRSYM    DATA     BIT       LED_GREEN
      000000E7H   SFRSYM    DATA     BYTE      CMPCR2
      000000A8H.6 SFRSYM    DATA     BIT       ELVD
      00000080H.0 SFRSYM    DATA     BIT       P00
      000000BCH   SFRSYM    DATA     BYTE      ADC_CONTR
      00000099H   SFRSYM    DATA     BYTE      SBUF
      00000087H   SFRSYM    DATA     BYTE      PCON
      00000090H.0 SFRSYM    DATA     BIT       P10
      00000080H.1 SFRSYM    DATA     BIT       P01
      000000C3H   SFRSYM    DATA     BYTE      ISP_ADDRH
      000000A0H.0 SFRSYM    DATA     BIT       P20
      00000090H.1 SFRSYM    DATA     BIT       P11
      00000080H.2 SFRSYM    DATA     BIT       P02
      000000B0H.0 SFRSYM    DATA     BIT       P30
      000000A0H.1 SFRSYM    DATA     BIT       P21
      00000090H.2 SFRSYM    DATA     BIT       P12
      00000080H.3 SFRSYM    DATA     BIT       P03
      00000098H   SFRSYM    DATA     BYTE      SCON
      000000C0H.0 SFRSYM    DATA     BIT       P40
      000000B0H.1 SFRSYM    DATA     BIT       P31
      000000A0H.2 SFRSYM    DATA     BIT       P22
      00000090H.3 SFRSYM    DATA     BIT       P13
      00000080H.4 SFRSYM    DATA     BIT       P04
      00000089H   SFRSYM    DATA     BYTE      TMOD
      00000088H   SFRSYM    DATA     BYTE      TCON
      000000C8H.0 SFRSYM    DATA     BIT       P50
      000000C0H.1 SFRSYM    DATA     BIT       P41
      000000B0H.2 SFRSYM    DATA     BIT       P32
      000000A0H.3 SFRSYM    DATA     BIT       P23
      00000090H.4 SFRSYM    DATA     BIT       P14
      00000080H.5 SFRSYM    DATA     BIT       P05
      000000C4H   SFRSYM    DATA     BYTE      ISP_ADDRL
      000000E8H.0 SFRSYM    DATA     BIT       P60
      000000C8H.1 SFRSYM    DATA     BIT       P51
      000000C0H.2 SFRSYM    DATA     BIT       P42
      000000B0H.3 SFRSYM    DATA     BIT       P33
      000000A0H.4 SFRSYM    DATA     BIT       P24
      00000090H.5 SFRSYM    DATA     BIT       P15
      00000080H.6 SFRSYM    DATA     BIT       P06
      000000B8H.6 SFRSYM    DATA     BIT       PLVD
      000000F8H.0 SFRSYM    DATA     BIT       P70
      000000E8H.1 SFRSYM    DATA     BIT       P61
      000000C8H.2 SFRSYM    DATA     BIT       P52
      000000C0H.3 SFRSYM    DATA     BIT       P43
      000000B0H.4 SFRSYM    DATA     BIT       P34
      000000A0H.5 SFRSYM    DATA     BIT       P25
LX51 LINKER/LOCATER V4.66.93.0                                                        05/06/2020  16:02:27  PAGE 72


      00000090H.6 SFRSYM    DATA     BIT       P16
      00000080H.7 SFRSYM    DATA     BIT       P07
      000000F8H.1 SFRSYM    DATA     BIT       P71
      000000E8H.2 SFRSYM    DATA     BIT       P62
      000000C8H.3 SFRSYM    DATA     BIT       P53
      000000C0H.4 SFRSYM    DATA     BIT       P44
      000000B0H.5 SFRSYM    DATA     BIT       P35
      000000A0H.6 SFRSYM    DATA     BIT       P26
      00000090H.7 SFRSYM    DATA     BIT       P17
      000000F8H.2 SFRSYM    DATA     BIT       P72
      000000E8H.3 SFRSYM    DATA     BIT       P63
      000000C8H.4 SFRSYM    DATA     BIT       P54
      000000C0H.5 SFRSYM    DATA     BIT       P45
      000000B0H.6 SFRSYM    DATA     BIT       P36
      000000A0H.7 SFRSYM    DATA     BIT       P27
      000000F8H.3 SFRSYM    DATA     BIT       P73
      000000E8H.4 SFRSYM    DATA     BIT       P64
      000000C8H.5 SFRSYM    DATA     BIT       P55
      000000C0H.6 SFRSYM    DATA     BIT       P46
      000000B0H.7 SFRSYM    DATA     BIT       P37
      000000F8H.4 SFRSYM    DATA     BIT       P74
      000000E8H.5 SFRSYM    DATA     BIT       P65
      000000C8H.6 SFRSYM    DATA     BIT       P56
      000000C0H.7 SFRSYM    DATA     BIT       P47
      000000F8H.5 SFRSYM    DATA     BIT       P75
      000000E8H.6 SFRSYM    DATA     BIT       P66
      000000C8H.7 SFRSYM    DATA     BIT       P57
      000000F8H.6 SFRSYM    DATA     BIT       P76
      000000E8H.7 SFRSYM    DATA     BIT       P67
      00000088H.1 SFRSYM    DATA     BIT       IE0
      000000A1H   SFRSYM    DATA     BYTE      BUS_SPEED
      000000F8H.7 SFRSYM    DATA     BIT       P77
      00000088H.3 SFRSYM    DATA     BIT       IE1
      000000AFH   SFRSYM    DATA     BYTE      IE2
      0000008EH   SFRSYM    DATA     BYTE      AUXR
      000000F0H   SFRSYM    DATA     BYTE      B
      000000C7H   SFRSYM    DATA     BYTE      IAP_CONTR
      000000F1H   SFRSYM    DATA     BYTE      PWMCFG
      000000E0H   SFRSYM    DATA     BYTE      ACC
      000000A8H.1 SFRSYM    DATA     BIT       ET0
      00000088H.5 SFRSYM    DATA     BIT       TF0
      000000A8H.3 SFRSYM    DATA     BIT       ET1
      00000088H.7 SFRSYM    DATA     BIT       TF1
      000000B5H   SFRSYM    DATA     BYTE      IP2
      000000FFH   SFRSYM    DATA     BYTE      RSTCFG
      00000098H.2 SFRSYM    DATA     BIT       RB8
      0000008CH   SFRSYM    DATA     BYTE      TH0
      0000008DH   SFRSYM    DATA     BYTE      TH1
      00000088H.0 SFRSYM    DATA     BIT       IT0
      000000A8H.0 SFRSYM    DATA     BIT       EX0
      00000098H.3 SFRSYM    DATA     BIT       TB8
      000000D6H   SFRSYM    DATA     BYTE      TH2
      000000D6H   SFRSYM    DATA     BYTE      T2H
      00000088H.2 SFRSYM    DATA     BIT       IT1
      000000A8H.2 SFRSYM    DATA     BIT       EX1
      000000D4H   SFRSYM    DATA     BYTE      TH3
      000000D4H   SFRSYM    DATA     BYTE      T3H
      000000D0H.0 SFRSYM    DATA     BIT       P
      00000098H.7 SFRSYM    DATA     BIT       SM0
      000000D2H   SFRSYM    DATA     BYTE      TH4
      000000D2H   SFRSYM    DATA     BYTE      T4H
      0000008AH   SFRSYM    DATA     BYTE      TL0
      00000098H.6 SFRSYM    DATA     BIT       SM1
      0000008BH   SFRSYM    DATA     BYTE      TL1
      00000098H.5 SFRSYM    DATA     BIT       SM2
LX51 LINKER/LOCATER V4.66.93.0                                                        05/06/2020  16:02:27  PAGE 73


      000000D7H   SFRSYM    DATA     BYTE      TL2
      000000D7H   SFRSYM    DATA     BYTE      T2L
      000000D5H   SFRSYM    DATA     BYTE      TL3
      000000D5H   SFRSYM    DATA     BYTE      T3L
      000000D3H   SFRSYM    DATA     BYTE      TL4
      000000D3H   SFRSYM    DATA     BYTE      T4L
      000000B8H.1 SFRSYM    DATA     BIT       PT0
      000000C7H   SFRSYM    DATA     BYTE      ISP_CONTR
      000000B8H.3 SFRSYM    DATA     BIT       PT1
      000000D0H.3 SFRSYM    DATA     BIT       RS0
      000000C2H   SFRSYM    DATA     BYTE      IAP_DATA
      00000088H.4 SFRSYM    DATA     BIT       TR0
      000000D0H.4 SFRSYM    DATA     BIT       RS1
      00000088H.6 SFRSYM    DATA     BIT       TR1
      000000C1H   SFRSYM    DATA     BYTE      WDT_CONTR
      000000B8H.0 SFRSYM    DATA     BIT       PX0
      000000B8H.2 SFRSYM    DATA     BIT       PX1
      000000F2H   SFRSYM    DATA     BYTE      PCA_PWM0
      000000F3H   SFRSYM    DATA     BYTE      PCA_PWM1
      000000F4H   SFRSYM    DATA     BYTE      PCA_PWM2
      000000BBH   SFRSYM    DATA     BYTE      VOCTRL
      00000083H   SFRSYM    DATA     BYTE      DPH
      000000F5H   SFRSYM    DATA     BYTE      PCA_PWM3
      000000D1H   SFRSYM    DATA     BYTE      T4T3M
      00000080H.7 SFRSYM    DATA     BIT       LED_BLUE
      000000BEH   SFRSYM    DATA     BYTE      ADC_RESL
      00000082H   SFRSYM    DATA     BYTE      DPL
      000000CDH   SFRSYM    DATA     BYTE      SPSTAT
      000000B7H   SFRSYM    DATA     BYTE      IPH
      0000009BH   SFRSYM    DATA     BYTE      S2BUF
      000000ADH   SFRSYM    DATA     BYTE      S3BUF
      00000085H   SFRSYM    DATA     BYTE      S4BUF
      00000098H.4 SFRSYM    DATA     BIT       REN
      0000009AH   SFRSYM    DATA     BYTE      S2CON
      000000ACH   SFRSYM    DATA     BYTE      S3CON
      000000E3H   SFRSYM    DATA     BYTE      DPS
      000000C2H   SFRSYM    DATA     BYTE      ISP_DATA
      00000084H   SFRSYM    DATA     BYTE      S4CON
      000000EFH   SFRSYM    DATA     BYTE      AUXINTIF
      000000B9H   SFRSYM    DATA     BYTE      SADEN
      000000A9H   SFRSYM    DATA     BYTE      SADDR
      000000C6H   SFRSYM    DATA     BYTE      IAP_TRIG
      00000097H   SFRSYM    DATA     BYTE      AUXR2
      000000D0H.5 SFRSYM    DATA     BIT       F0
      000000D0H   SFRSYM    DATA     BYTE      PSW
      000000D8H.0 SFRSYM    DATA     BIT       CCF0
      000000D8H.1 SFRSYM    DATA     BIT       CCF1
      000000CFH   SFRSYM    DATA     BYTE      SPDAT
      00000094H   SFRSYM    DATA     BYTE      P0M0

      ---         MODULE    ---      ---       ?C?FPADD
      0100009DH   PUBLIC    CODE     ---       ?C?FPADD
      01000099H   PUBLIC    CODE     ---       ?C?FPSUB

      ---         MODULE    ---      ---       ?C?FPMUL
      0100018EH   PUBLIC    CODE     ---       ?C?FPMUL

      ---         MODULE    ---      ---       ?C?FPDIV
      01000297H   PUBLIC    CODE     ---       ?C?FPDIV

      ---         MODULE    ---      ---       ?C?FCAST
      0100033EH   PUBLIC    CODE     ---       ?C?FCASTC
      01000339H   PUBLIC    CODE     ---       ?C?FCASTI
      01000334H   PUBLIC    CODE     ---       ?C?FCASTL

LX51 LINKER/LOCATER V4.66.93.0                                                        05/06/2020  16:02:27  PAGE 74


      ---         MODULE    ---      ---       ?C?CASTF
      01000372H   PUBLIC    CODE     ---       ?C?CASTF

      ---         MODULE    ---      ---       PRINTF
      00000024H   PUBLIC    DATA     ---       ?_PRINTF?BYTE
      00000024H   PUBLIC    DATA     ---       ?_SPRINTF?BYTE
      01000887H   PUBLIC    CODE     ---       _PRINTF
      01000881H   PUBLIC    CODE     ---       _SPRINTF

      ---         MODULE    ---      ---       ?C?FPGETOPN
      010003A9H   PUBLIC    CODE     ---       ?C?FPGETOPN2
      010003DEH   PUBLIC    CODE     ---       ?C?FPNANRESULT
      010003E8H   PUBLIC    CODE     ---       ?C?FPOVERFLOW
      010003C0H   PUBLIC    CODE     ---       ?C?FPRESULT
      010003D4H   PUBLIC    CODE     ---       ?C?FPRESULT2
      010003E5H   PUBLIC    CODE     ---       ?C?FPUNDERFLOW

      ---         MODULE    ---      ---       ?C?FPROUND
      010003F3H   PUBLIC    CODE     ---       ?C?FPROUND

      ---         MODULE    ---      ---       ?C?FPCONVERT
      01000422H   PUBLIC    CODE     ---       ?C?FPCONVERT

      ---         MODULE    ---      ---       ?C?FTNPWR
      01000555H   PUBLIC    CODE     ---       ?C?FTNPWR

      ---         MODULE    ---      ---       ?C_STARTUP
      01000000H   PUBLIC    CODE     ---       ?C_STARTUP

      ---         MODULE    ---      ---       ?C?CLDPTR
      01000595H   PUBLIC    CODE     ---       ?C?CLDPTR

      ---         MODULE    ---      ---       ?C?CLDOPTR
      010005AEH   PUBLIC    CODE     ---       ?C?CLDOPTR

      ---         MODULE    ---      ---       ?C?CSTPTR
      010005DBH   PUBLIC    CODE     ---       ?C?CSTPTR

      ---         MODULE    ---      ---       ?C?ILDIX
      010005EDH   PUBLIC    CODE     ---       ?C?ILDIX

      ---         MODULE    ---      ---       ?C?LMUL
      01000603H   PUBLIC    CODE     ---       ?C?LMUL

      ---         MODULE    ---      ---       ?C?LNEG
      01000652H   PUBLIC    CODE     ---       ?C?LNEG

      ---         MODULE    ---      ---       ?C?ULCMP
      01000660H   PUBLIC    CODE     ---       ?C?ULCMP

      ---         MODULE    ---      ---       ?C?ULSHR
      01000671H   PUBLIC    CODE     ---       ?C?ULSHR

      ---         MODULE    ---      ---       ?C?LLDCODE0
      01000684H   PUBLIC    CODE     ---       ?C?LLDCODE0

      ---         MODULE    ---      ---       ?C?LSTXDATA
      01000694H   PUBLIC    CODE     ---       ?C?LSTXDATA

      ---         MODULE    ---      ---       ?C?LSTKXDATA
      010006A0H   PUBLIC    CODE     ---       ?C?LSTKXDATA

      ---         MODULE    ---      ---       ?C?PLDIIDATA
      010006D1H   PUBLIC    CODE     ---       ?C?PLDIIDATA

LX51 LINKER/LOCATER V4.66.93.0                                                        05/06/2020  16:02:27  PAGE 75


      ---         MODULE    ---      ---       ?C?CCASE
      010006E1H   PUBLIC    CODE     ---       ?C?CCASE

      ---         MODULE    ---      ---       PUTCHAR
      010024B0H   PUBLIC    CODE     ---       _PUTCHAR

      ---         MODULE    ---      ---       STRNCMP
      00000029H   PUBLIC    DATA     ---       ?_STRNCMP?BYTE
      010021BEH   PUBLIC    CODE     ---       _STRNCMP

      ---         MODULE    ---      ---       STRSTR
      00000029H   PUBLIC    DATA     ---       ?_STRSTR?BYTE
      010020C0H   PUBLIC    CODE     ---       _STRSTR

      ---         MODULE    ---      ---       ?C?MEMSET
      01000707H   PUBLIC    CODE     ---       ?C?MEMSET

      ---         MODULE    ---      ---       ?C?COPYP2
      010007FFH   PUBLIC    CODE     ---       ?C?COPYP2

      ---         MODULE    ---      ---       ?C_INIT
      01001FF0H   PUBLIC    CODE     ---       ?C_START

Program Size: data=47.7 xdata=1839 const=1186 code=9803
LX51 RUN COMPLETE.  0 WARNING(S),  0 ERROR(S)
