LX51 LINKER/LOCATER V4.66.93.0                                                          05/08/2020  19:08:08  PAGE 1


LX51 LINKER/LOCATER V4.66.93.0, INVOKED BY:
C:\KEIL_V5\C51\BIN\LX51.EXE .\Objects\main.obj, .\Objects\ISR.obj, .\Objects\uart.obj, .\Objects\Init.obj, .\Objects\del
>> ay.obj, .\Objects\EEPROM.obj, .\Objects\DS18B20.obj, .\Objects\GY_25.obj, .\Objects\LCD1602.obj, .\Objects\LED.obj, .
>> \Objects\CloudHandle.obj, .\Objects\CloudCodeArray.obj TO .\Objects\STC8_AlibabaCloud PRINT (.\Listings\STC8_AlibabaC
>> loud.map) REMOVEUNUSED


CPU MODE:     8051 MODE
MEMORY MODEL: SMALL WITH FLOATING POINT ARITHMETIC


INPUT MODULES INCLUDED:
  .\Objects\main.obj (MAIN)
         COMMENT TYPE 0: C51 V9.59.0.0
  .\Objects\ISR.obj (ISR)
         COMMENT TYPE 0: C51 V9.59.0.0
  .\Objects\uart.obj (UART)
         COMMENT TYPE 0: C51 V9.59.0.0
  .\Objects\Init.obj (INIT)
         COMMENT TYPE 0: C51 V9.59.0.0
  .\Objects\delay.obj (DELAY)
         COMMENT TYPE 0: C51 V9.59.0.0
  .\Objects\EEPROM.obj (EEPROM)
         COMMENT TYPE 0: C51 V9.59.0.0
  .\Objects\DS18B20.obj (DS18B20)
         COMMENT TYPE 0: C51 V9.59.0.0
  .\Objects\GY_25.obj (GY_25)
         COMMENT TYPE 0: C51 V9.59.0.0
  .\Objects\LCD1602.obj (LCD1602)
         COMMENT TYPE 0: C51 V9.59.0.0
  .\Objects\LED.obj (LED)
         COMMENT TYPE 0: C51 V9.59.0.0
  .\Objects\CloudHandle.obj (CLOUDHANDLE)
         COMMENT TYPE 0: C51 V9.59.0.0
  .\Objects\CloudCodeArray.obj (CLOUDCODEARRAY)
         COMMENT TYPE 0: C51 V9.59.0.0
  C:\KEIL_V5\C51\LIB\C51FPS.LIB (?C?FPADD)
         COMMENT TYPE 1: A51 / ASM51 Assembler
  C:\KEIL_V5\C51\LIB\C51FPS.LIB (?C?FPMUL)
         COMMENT TYPE 1: A51 / ASM51 Assembler
  C:\KEIL_V5\C51\LIB\C51FPS.LIB (?C?FPDIV)
         COMMENT TYPE 1: A51 / ASM51 Assembler
  C:\KEIL_V5\C51\LIB\C51FPS.LIB (?C?FCAST)
         COMMENT TYPE 1: A51 / ASM51 Assembler
  C:\KEIL_V5\C51\LIB\C51FPS.LIB (?C?CASTF)
         COMMENT TYPE 1: A51 / ASM51 Assembler
  C:\KEIL_V5\C51\LIB\C51FPS.LIB (PRINTF)
         COMMENT TYPE 1: A51 / ASM51 Assembler
  C:\KEIL_V5\C51\LIB\C51FPS.LIB (?C?FPGETOPN)
         COMMENT TYPE 1: A51 / ASM51 Assembler
  C:\KEIL_V5\C51\LIB\C51FPS.LIB (?C?FPROUND)
         COMMENT TYPE 1: A51 / ASM51 Assembler
  C:\KEIL_V5\C51\LIB\C51FPS.LIB (?C?FPCONVERT)
         COMMENT TYPE 1: A51 / ASM51 Assembler
  C:\KEIL_V5\C51\LIB\C51FPS.LIB (?C?FTNPWR)
         COMMENT TYPE 1: A51 / ASM51 Assembler
  C:\KEIL_V5\C51\LIB\C51S.LIB (?C_STARTUP)
         COMMENT TYPE 1: A51 / ASM51 Assembler
  C:\KEIL_V5\C51\LIB\C51S.LIB (?C?CLDPTR)
         COMMENT TYPE 1: A51 / ASM51 Assembler
  C:\KEIL_V5\C51\LIB\C51S.LIB (?C?CLDOPTR)
         COMMENT TYPE 1: A51 / ASM51 Assembler
  C:\KEIL_V5\C51\LIB\C51S.LIB (?C?CSTPTR)
         COMMENT TYPE 1: A51 / ASM51 Assembler
  C:\KEIL_V5\C51\LIB\C51S.LIB (?C?ILDIX)
         COMMENT TYPE 1: A51 / ASM51 Assembler
LX51 LINKER/LOCATER V4.66.93.0                                                        05/08/2020  19:08:08  PAGE 2


  C:\KEIL_V5\C51\LIB\C51S.LIB (?C?LMUL)
         COMMENT TYPE 1: A51 / ASM51 Assembler
  C:\KEIL_V5\C51\LIB\C51S.LIB (?C?LNEG)
         COMMENT TYPE 1: A51 / ASM51 Assembler
  C:\KEIL_V5\C51\LIB\C51S.LIB (?C?ULCMP)
         COMMENT TYPE 1: A51 / ASM51 Assembler
  C:\KEIL_V5\C51\LIB\C51S.LIB (?C?ULSHR)
         COMMENT TYPE 1: A51 / ASM51 Assembler
  C:\KEIL_V5\C51\LIB\C51S.LIB (?C?LLDCODE0)
         COMMENT TYPE 1: A51 / ASM51 Assembler
  C:\KEIL_V5\C51\LIB\C51S.LIB (?C?LSTXDATA)
         COMMENT TYPE 1: A51 / ASM51 Assembler
  C:\KEIL_V5\C51\LIB\C51S.LIB (?C?LSTKXDATA)
         COMMENT TYPE 1: A51 / ASM51 Assembler
  C:\KEIL_V5\C51\LIB\C51S.LIB (?C?PLDIIDATA)
         COMMENT TYPE 1: A51 / ASM51 Assembler
  C:\KEIL_V5\C51\LIB\C51S.LIB (?C?CCASE)
         COMMENT TYPE 1: A51 / ASM51 Assembler
  C:\KEIL_V5\C51\LIB\C51S.LIB (PUTCHAR)
         COMMENT TYPE 1: A51 / ASM51 Assembler
  C:\KEIL_V5\C51\LIB\C51S.LIB (STRNCMP)
         COMMENT TYPE 1: C51 Compiler
  C:\KEIL_V5\C51\LIB\C51S.LIB (STRSTR)
         COMMENT TYPE 1: C51 Compiler
  C:\KEIL_V5\C51\LIB\C51S.LIB (?C?MEMSET)
         COMMENT TYPE 1: A51 / ASM51 Assembler
  C:\KEIL_V5\C51\LIB\C51S.LIB (?C?COPYP2)
         COMMENT TYPE 1: A51 / ASM51 Assembler
  C:\KEIL_V5\C51\LIB\C51S.LIB (?C_INIT)
         COMMENT TYPE 1: A51 / ASM51 Assembler


ACTIVE MEMORY CLASSES OF MODULE:  .\Objects\STC8_AlibabaCloud (MAIN)

BASE        START       END         USED      MEMORY CLASS
==========================================================
C:000000H   C:000000H   C:00FFFFH   002852H   CODE
I:000020H.0 I:000020H.0 I:00002FH.7 000001H.7 BIT
I:000000H   I:000000H   I:00007FH   00002DH   DATA
X:000000H   X:000000H   X:00FFFFH   0008A3H   XDATA
X:000000H   X:000000H   X:0000FFH   00002DH   PDATA
C:000000H   C:000000H   C:00FFFFH   00052CH   CONST
I:000000H   I:000000H   I:0000FFH   000001H   IDATA


MEMORY MAP OF MODULE:  .\Objects\STC8_AlibabaCloud (MAIN)


START     STOP      LENGTH    ALIGN  RELOC    MEMORY CLASS   SEGMENT NAME
=========================================================================

* * * * * * * * * * *   D A T A   M E M O R Y   * * * * * * * * * * * * *
000000H   000007H   000008H   ---    AT..     DATA           "REG BANK 0"
000008H   00000DH   000006H   BYTE   UNIT     DATA           ?DT?UART
00000EH   00000EH   000001H   BYTE   UNIT     DATA           ?DT?CLOUDHANDLE
00000FH.0 00001FH.7 000011H.0 ---    ---      **GAP**
000020H.0 000021H.2 000001H.3 BIT    UNIT     BIT            _BIT_GROUP_
000021H.3 000021H.5 000000H.3 BIT    UNIT     BIT            ?BI?UART
000021H.6 000021H.6 000000H.1 BIT    UNIT     BIT            ?BI?CLOUDHANDLE
000021H.7 000021H   000000H.1 ---    ---      **GAP**
000022H   00003FH   00001EH   BYTE   UNIT     DATA           _DATA_GROUP_
000040H   000040H   000001H   BYTE   UNIT     IDATA          ?STACK

* * * * * * * * * * *   C O D E   M E M O R Y   * * * * * * * * * * * * *
000000H   000002H   000003H   ---    OFFS..   CODE           ?CO??C_STARTUP?0
LX51 LINKER/LOCATER V4.66.93.0                                                        05/08/2020  19:08:08  PAGE 3


000003H   00000AH   000008H   BYTE   UNIT     CODE           ?PR?MAIN?MAIN
00000BH   00000DH   000003H   BYTE   OFFS..   CODE           ?ISR?0000B
00000EH   000016H   000009H   BYTE   UNIT     CODE           ?C_INITSEG
000017H   00001EH   000008H   BYTE   UNIT     CODE           ?PR?UART1_ISR?ISR
00001FH   000022H   000004H   ---    ---      **GAP**
000023H   000024H   000002H   BYTE   OFFS..   CODE           ?ISR?00023
000025H   00003CH   000018H   BYTE   UNIT     CONST          ?CO?DS18B20
00003DH   000042H   000006H   BYTE   UNIT     CODE           ?L?COM0029
000043H   000045H   000003H   BYTE   OFFS..   CODE           ?ISR?00043
000046H   00006CH   000027H   BYTE   UNIT     CODE           ?PR?PUTCHAR?PUTCHAR
00006DH   00007CH   000010H   BYTE   UNIT     CONST          ?CO?LCD1602
00007DH   00008DH   000011H   BYTE   UNIT     CODE           ?L?COM0001
00008EH   000092H   000005H   ---    ---      **GAP**
000093H   000095H   000003H   BYTE   OFFS..   CODE           ?ISR?00093
000096H   000824H   00078FH   BYTE   UNIT     CODE           ?C?LIB_CODE
000825H   000C93H   00046FH   BYTE   UNIT     CODE           ?PR?PRINTF?PRINTF
000C94H   000D1FH   00008CH   BYTE   UNIT     CODE           ?C_C51STARTUP
000D20H   000DA1H   000082H   BYTE   UNIT     CODE           ?PR?_STRSTR?STRSTR
000DA2H   000E10H   00006FH   BYTE   UNIT     CODE           ?PR?_STRNCMP?STRNCMP
000E11H   001118H   000308H   BYTE   UNIT     CONST          ?CO?CLOUDHANDLE
001119H   001314H   0001FCH   BYTE   UNIT     CONST          ?CO?CLOUDCODEARRAY
001315H   001362H   00004EH   BYTE   UNIT     CODE           ?PR?TM0_ISR?ISR
001363H   00137CH   00001AH   BYTE   UNIT     CODE           ?L?COM0004
00137DH   001691H   000315H   BYTE   UNIT     CODE           ?PR?_CLOUDSEND?CLOUDHANDLE
001692H   00171CH   00008BH   BYTE   UNIT     CODE           ?PR?UART2_ISR?ISR
00171DH   001738H   00001CH   BYTE   UNIT     CODE           ?L?COM000D
001739H   001745H   00000DH   BYTE   UNIT     CODE           ?L?COM002A
001746H   00175CH   000017H   BYTE   UNIT     CODE           ?L?COM0012
00175DH   001765H   000009H   BYTE   UNIT     CODE           ?L?COM004C
001766H   001772H   00000DH   BYTE   UNIT     CODE           ?L?COM0031
001773H   001797H   000025H   BYTE   UNIT     CODE           ?L?COM0018
001798H   0017B2H   00001BH   BYTE   UNIT     CODE           ?L?COM002E
0017B3H   00182DH   00007BH   BYTE   UNIT     CODE           ?PR?UART4_ISR?ISR
00182EH   00183AH   00000DH   BYTE   UNIT     CODE           ?L?COM0039
00183BH   00192FH   0000F5H   BYTE   UNIT     CODE           ?PR?GY_25GETAZIMUTH?GY_25
001930H   00193CH   00000DH   BYTE   UNIT     CODE           ?L?COM001F
00193DH   001944H   000008H   BYTE   UNIT     CODE           ?L?COM0047
001945H   001AEEH   0001AAH   BYTE   UNIT     CODE           ?PR?CLOUDLOOP?CLOUDHANDLE
001AEFH   001CEFH   000201H   BYTE   UNIT     CODE           ?PR?_CLOUDREPORT?CLOUDHANDLE
001CF0H   001D8BH   00009CH   BYTE   UNIT     CODE           ?PR?CLOUDRECEIVE?CLOUDHANDLE
001D8CH   001F0BH   000180H   BYTE   UNIT     CODE           ?PR?CLOUDINIT?CLOUDHANDLE
001F0CH   001F12H   000007H   BYTE   UNIT     CODE           ?L?COM0013
001F13H   001F24H   000012H   BYTE   UNIT     CODE           ?L?COM0002
001F25H   001F34H   000010H   BYTE   UNIT     CODE           ?L?COM0011
001F35H   001F4EH   00001AH   BYTE   UNIT     CODE           ?L?COM000F
001F4FH   001F57H   000009H   BYTE   UNIT     CODE           ?L?COM0033
001F58H   001F64H   00000DH   BYTE   UNIT     CODE           ?L?COM002B
001F65H   001F71H   00000DH   BYTE   UNIT     CODE           ?L?COM0036
001F72H   001F7FH   00000EH   BYTE   UNIT     CODE           ?L?COM0027
001F80H   001F8EH   00000FH   BYTE   UNIT     CODE           ?L?COM0025
001F8FH   001FA6H   000018H   BYTE   UNIT     CODE           ?L?COM0010
001FA7H   001FEAH   000044H   BYTE   UNIT     CODE           ?PR?_LEDREAD?LED
001FEBH   001FF1H   000007H   BYTE   UNIT     CODE           ?L?COM003D
001FF2H   001FF8H   000007H   BYTE   UNIT     CODE           ?L?COM004E
001FF9H   002007H   00000FH   BYTE   UNIT     CODE           ?L?COM003C
002008H   002012H   00000BH   BYTE   UNIT     CODE           ?PR?_UART2_SEND8?UART
002013H   002036H   000024H   BYTE   UNIT     CODE           ?PR?_UART2_SENDSTR8?UART
002037H   002128H   0000F2H   BYTE   UNIT     CODE           ?PR?_CLOUDRESEND?CLOUDHANDLE
002129H   002130H   000008H   BYTE   UNIT     CODE           ?L?COM002D
002131H   002591H   000461H   BYTE   UNIT     CODE           ?PR?CLOUDHANDLERECEIVE?CLOUDHANDLE
002592H   00259CH   00000BH   BYTE   UNIT     CODE           ?L?COM000B
00259DH   0025B1H   000015H   BYTE   UNIT     CODE           ?L?COM0008
0025B2H   0025C8H   000017H   BYTE   UNIT     CODE           ?L?COM0014
0025C9H   0025D9H   000011H   BYTE   UNIT     CODE           ?L?COM0016
0025DAH   0025E7H   00000EH   BYTE   UNIT     CODE           ?L?COM0022
LX51 LINKER/LOCATER V4.66.93.0                                                        05/08/2020  19:08:08  PAGE 4


0025E8H   0025F9H   000012H   BYTE   UNIT     CODE           ?L?COM001A
0025FAH   002608H   00000FH   BYTE   UNIT     CODE           ?PR?_GY_25SETCMD?GY_25
002609H   002613H   00000BH   BYTE   UNIT     CODE           ?PR?_UART4_SEND8?UART
002614H   00263DH   00002AH   BYTE   UNIT     CODE           ?PR?GY_25INIT?GY_25
00263EH   002645H   000008H   BYTE   UNIT     CODE           ?L?COM0046
002646H   002652H   00000DH   BYTE   UNIT     CODE           ?L?COM0032
002653H   00267AH   000028H   BYTE   UNIT     CODE           ?PR?INIT?INIT
00267BH   0026A6H   00002CH   BYTE   UNIT     CODE           ?PR?LCD1602INIT?LCD1602
0026A7H   0026D7H   000031H   BYTE   UNIT     CODE           ?PR?_LCD1602LOADWORD?LCD1602
0026D8H   0026EAH   000013H   BYTE   UNIT     CODE           ?PR?_LCD1602WRITECMDORDATA?LCD1602
0026EBH   0027AFH   0000C5H   BYTE   UNIT     CODE           ?PR?DS18B20STINIT?DS18B20
0027B0H   0027F1H   000042H   BYTE   UNIT     CODE           ?PR?DS18B20READBYTE?DS18B20
0027F2H   0027F7H   000006H   BYTE   UNIT     CODE           ?PR?DELAY1US?DELAY
0027F8H   002801H   00000AH   BYTE   UNIT     CODE           ?PR?INIT_RST?INIT
002802H   002826H   000025H   BYTE   UNIT     CODE           ?PR?INIT_IO?INIT
002827H   002837H   000011H   BYTE   UNIT     CODE           ?PR?INIT_TIMER0?INIT
002838H   002861H   00002AH   BYTE   UNIT     CODE           ?PR?INIT_UART2?INIT
002862H   00286EH   00000DH   BYTE   UNIT     CODE           ?L?COM0044
00286FH   002894H   000026H   BYTE   UNIT     CODE           ?PR?INIT_UART4?INIT
002895H   0028D8H   000044H   BYTE   UNIT     CODE           ?PR?_INIT_WKT?INIT
0028D9H   0028F8H   000020H   BYTE   UNIT     CODE           ?PR?INIT_INTERRUPT?INIT
0028F9H   0028FFH   000007H   BYTE   UNIT     CODE           ?PR?DELAY10US?DELAY
002900H   002927H   000028H   BYTE   UNIT     CODE           ?PR?DS18B20INIT?DS18B20
002928H   002A86H   00015FH   BYTE   UNIT     CODE           ?PR?DS18B20GETTEMPERATURE?DS18B20
002A87H   002AB2H   00002CH   BYTE   UNIT     CODE           ?PR?_DS18B20WRITEBYTE?DS18B20
002AB3H   002ABBH   000009H   BYTE   UNIT     CODE           ?L?COM0042
002ABCH   002AC8H   00000DH   BYTE   UNIT     CODE           ?L?COM003E
002AC9H   002AD0H   000008H   BYTE   UNIT     CODE           ?L?COM004D
002AD1H   002AD9H   000009H   BYTE   UNIT     CODE           ?L?COM004B
002ADAH   002AE3H   00000AH   BYTE   UNIT     CODE           ?L?COM001E
002AE4H   002BAEH   0000CBH   BYTE   UNIT     CODE           ?PR?_LEDWRITE?LED
002BAFH   002BD9H   00002BH   BYTE   UNIT     CODE           ?PR?_EEPROMWRITE?EEPROM
002BDAH   002BE4H   00000BH   BYTE   UNIT     CODE           ?L?COM002F
002BE5H   002BF9H   000015H   BYTE   UNIT     CODE           ?PR?_EEPROMERASE?EEPROM
002BFAH   002C0CH   000013H   BYTE   UNIT     CODE           ?PR?_EEPROMREAD_MOVEC?EEPROM
002C0DH   002C3AH   00002EH   BYTE   UNIT     CODE           ?PR?LEDINIT?LED
002C3BH   002C42H   000008H   BYTE   UNIT     CODE           ?L?COM0037
002C43H   002C4AH   000008H   BYTE   UNIT     CODE           ?L?COM0041
002C4BH   002C54H   00000AH   BYTE   UNIT     CODE           ?L?COM003B
002C55H   002C63H   00000FH   BYTE   UNIT     CODE           ?PR?DS18B20CONVERTTEMPERATURE?DS18B20
002C64H   002C6EH   00000BH   BYTE   UNIT     CODE           ?PR?DELAY60US?DELAY
002C6FH   002C77H   000009H   BYTE   UNIT     CODE           ?PR?DELAY485US?DELAY
002C78H   002C81H   00000AH   BYTE   UNIT     CODE           ?PR?DELAY130US?DELAY
002C82H   002C8BH   00000AH   BYTE   UNIT     CODE           ?PR?DELAY40US?DELAY
002C8CH   002C9FH   000014H   BYTE   UNIT     CODE           ?PR?LCD1602WAIT?LCD1602
002CA0H   002CA8H   000009H   BYTE   UNIT     CODE           ?PR?DELAY1MS?DELAY
002CA9H   002CB5H   00000DH   BYTE   UNIT     CODE           ?PR?DELAY100MS?DELAY
002CB6H   002CC2H   00000DH   BYTE   UNIT     CODE           ?PR?DELAY200MS?DELAY
002CC3H   002CD1H   00000FH   BYTE   UNIT     CODE           ?PR?DELAY385MS?DELAY
002CD2H   002CDEH   00000DH   BYTE   UNIT     CODE           ?PR?DELAY765MS?DELAY
002CDFH   002D0FH   000031H   BYTE   UNIT     CODE           ?PR?_LCD1602WRITELINE?LCD1602
002D10H   002D17H   000008H   BYTE   UNIT     CODE           ?PR?_LCD1602SETDDRAM?LCD1602
002D18H   002D1FH   000008H   BYTE   UNIT     CODE           ?L?COM0051
002D20H   002D31H   000012H   BYTE   UNIT     CODE           ?PR?_LCD1602SETCGRAM?LCD1602
002D32H   002D42H   000011H   BYTE   UNIT     CODE           ?L?COM002C
002D43H   002D50H   00000EH   BYTE   UNIT     CODE           ?L?COM0040
002D51H   002D5CH   00000CH   BYTE   UNIT     CODE           ?L?COM0045
002D5DH   002D65H   000009H   BYTE   UNIT     CODE           ?L?COM0048
002D66H   002D6EH   000009H   BYTE   UNIT     CODE           ?L?COM0049
002D6FH   002D77H   000009H   BYTE   UNIT     CODE           ?L?COM004A
002D78H   002D7EH   000007H   BYTE   UNIT     CODE           ?L?COM004F
002D7FH   002D86H   000008H   BYTE   UNIT     CODE           ?L?COM0050

* * * * * * * * * * *  X D A T A   M E M O R Y  * * * * * * * * * * * * *
000000H   00002BH   00002CH   BYTE   INPAGE   PDATA          _PDATA_GROUP_
LX51 LINKER/LOCATER V4.66.93.0                                                        05/08/2020  19:08:08  PAGE 5


00002CH   00002CH   000001H   BYTE   INPAGE   PDATA          ?PD?GY_25
00002DH   00063CH   000610H   BYTE   UNIT     XDATA          ?XD?CLOUDHANDLE
00063DH   0008B4H   000278H   BYTE   UNIT     XDATA          ?XD?UART
0008B5H   0008C0H   00000CH   BYTE   UNIT     XDATA          ?XD?GY_25
0008C1H   0008CBH   00000BH   BYTE   UNIT     XDATA          ?XD?DS18B20
0008CCH   0008CFH   000004H   BYTE   UNIT     XDATA          _XDATA_GROUP_

* * * * * * * * *   R E M O V E D     S E G M E N T S   * * * * * * * *
   *DEL*:           000009H   BYTE   UNIT     CODE           ?PR?DELAY45US?DELAY
   *DEL*:           000017H   BYTE   UNIT     CODE           ?PR?_EEPROMREAD?EEPROM
   *DEL*:           00003CH   BYTE   UNIT     CODE           ?PR?_DS18B20SET?DS18B20
   *DEL*:           000003H   BYTE   UNIT     DATA           ?DT?_DS18B20SET?DS18B20
   *DEL*:           000014H   BYTE   UNIT     CODE           ?PR?LCD1602READIDX?LCD1602
   *DEL*:           000014H   BYTE   UNIT     CODE           ?PR?LCD1602READDATA?LCD1602



OVERLAY MAP OF MODULE:   .\Objects\STC8_AlibabaCloud (MAIN)


FUNCTION/MODULE                         BIT_GROUP   DATA_GROUP   PDATA_GROUP  XDATA_GROUP
--> CALLED FUNCTION/MODULE             START  STOP  START  STOP  START  STOP  START  STOP
=========================================================================================
TM0_ISR/ISR                            ----- -----  ----- -----  ----- -----  ----- -----

*** NEW ROOT *************************

UART1_ISR/ISR                          ----- -----  ----- -----  ----- -----  ----- -----

*** NEW ROOT *************************

UART2_ISR/ISR                          20H.0 20H.0  ----- -----  ----- -----  ----- -----

*** NEW ROOT *************************

UART4_ISR/ISR                          20H.1 20H.1  ----- -----  ----- -----  ----- -----

*** NEW ROOT *************************

?C_C51STARTUP                          ----- -----  ----- -----  ----- -----  ----- -----
  +--> MAIN/MAIN
  +--> ?C_INITSEG

MAIN/MAIN                              ----- -----  ----- -----  ----- -----  ----- -----
  +--> INIT/INIT
  +--> CLOUDLOOP/CLOUDHANDLE

INIT/INIT                              ----- -----  ----- -----  ----- -----  ----- -----
  +--> INIT_RST/INIT
  +--> INIT_IO/INIT
  +--> INIT_TIMER0/INIT
  +--> INIT_UART2/INIT
  +--> INIT_UART4/INIT
  +--> _INIT_WKT/INIT
  +--> INIT_INTERRUPT/INIT
  +--> CLOUDINIT/CLOUDHANDLE
  +--> DS18B20STINIT/DS18B20
  +--> GY_25INIT/GY_25
  +--> LEDINIT/LED
  +--> LCD1602INIT/LCD1602

INIT_RST/INIT                          ----- -----  ----- -----  ----- -----  ----- -----

INIT_IO/INIT                           ----- -----  ----- -----  ----- -----  ----- -----

LX51 LINKER/LOCATER V4.66.93.0                                                        05/08/2020  19:08:08  PAGE 6


INIT_TIMER0/INIT                       ----- -----  ----- -----  ----- -----  ----- -----

INIT_UART2/INIT                        ----- -----  0022H 0025H  ----- -----  ----- -----

INIT_UART4/INIT                        ----- -----  0022H 0025H  ----- -----  ----- -----

_INIT_WKT/INIT                         20H.2 20H.2  0022H 0025H  0000H 0001H  ----- -----

INIT_INTERRUPT/INIT                    ----- -----  ----- -----  ----- -----  ----- -----

CLOUDINIT/CLOUDHANDLE                  ----- -----  ----- -----  ----- -----  ----- -----
  +--> _CLOUDSEND/CLOUDHANDLE
  +--> CLOUDRECEIVE/CLOUDHANDLE
  +--> _CLOUDRESEND/CLOUDHANDLE

_CLOUDSEND/CLOUDHANDLE                 ----- -----  0023H 0023H  0001H 0004H  ----- -----
  +--> PRINTF/PRINTF
  +--> _UART2_SENDSTR8/UART

PRINTF/PRINTF                          20H.2 21H.2  0024H 003FH  ----- -----  ----- -----
  +--> PUTCHAR/PUTCHAR

PUTCHAR/PUTCHAR                        ----- -----  ----- -----  ----- -----  ----- -----

_UART2_SENDSTR8/UART                   ----- -----  0025H 0027H  ----- -----  ----- -----
  +--> _UART2_SEND8/UART

_UART2_SEND8/UART                      ----- -----  ----- -----  ----- -----  ----- -----

CLOUDRECEIVE/CLOUDHANDLE               ----- -----  0025H 0028H  ----- -----  ----- -----
  +--> CLOUDHANDLERECEIVE/CLOUDHANDLE

CLOUDHANDLERECEIVE/CLOUDHANDLE         20H.2 20H.2  ----- -----  0001H 002BH  ----- -----
  +--> _STRNCMP/STRNCMP
  +--> _STRSTR/STRSTR
  +--> _LEDWRITE/LED
  +--> _LCD1602WRITELINE/LCD1602
  +--> _GY_25SETCMD/GY_25

_STRNCMP/STRNCMP                       ----- -----  0029H 0030H  ----- -----  ----- -----

_STRSTR/STRSTR                         ----- -----  0029H 0034H  ----- -----  ----- -----

_LEDWRITE/LED                          ----- -----  0029H 002AH  ----- -----  ----- -----
  +--> _EEPROMREAD_MOVEC/EEPROM
  +--> _EEPROMERASE/EEPROM
  +--> _EEPROMWRITE/EEPROM

_EEPROMREAD_MOVEC/EEPROM               ----- -----  ----- -----  ----- -----  ----- -----

_EEPROMERASE/EEPROM                    ----- -----  ----- -----  ----- -----  ----- -----

_EEPROMWRITE/EEPROM                    ----- -----  ----- -----  ----- -----  ----- -----

_LCD1602WRITELINE/LCD1602              20H.3 20H.3  0029H 002CH  ----- -----  ----- -----
  +--> _LCD1602SETDDRAM/LCD1602
  +--> _LCD1602WRITECMDORDATA/LCD1602

_LCD1602SETDDRAM/LCD1602               ----- -----  ----- -----  ----- -----  ----- -----
  +--> _LCD1602WRITECMDORDATA/LCD1602

_LCD1602WRITECMDORDATA/LCD1602         20H.4 20H.4  002DH 002DH  ----- -----  ----- -----
  +--> LCD1602WAIT/LCD1602

LCD1602WAIT/LCD1602                    20H.5 20H.5  ----- -----  ----- -----  ----- -----
LX51 LINKER/LOCATER V4.66.93.0                                                        05/08/2020  19:08:08  PAGE 7


  +--> DELAY40US/DELAY

DELAY40US/DELAY                        ----- -----  ----- -----  ----- -----  ----- -----

_GY_25SETCMD/GY_25                     ----- -----  0029H 0029H  ----- -----  ----- -----
  +--> _UART4_SEND8/UART

_UART4_SEND8/UART                      ----- -----  ----- -----  ----- -----  ----- -----

_CLOUDRESEND/CLOUDHANDLE               ----- -----  0023H 0024H  ----- -----  08CCH 08CFH
  +--> _UART2_SENDSTR8/UART
  +--> CLOUDRECEIVE/CLOUDHANDLE

DS18B20STINIT/DS18B20                  ----- -----  0022H 0023H  ----- -----  ----- -----
  +--> DS18B20INIT/DS18B20
  +--> _DS18B20WRITEBYTE/DS18B20
  +--> DS18B20READBYTE/DS18B20
  +--> DS18B20CONVERTTEMPERATURE/DS18B20
  +--> DELAY100MS/DELAY
  +--> DELAY200MS/DELAY
  +--> DELAY385MS/DELAY
  +--> DELAY765MS/DELAY
  +--> DS18B20GETTEMPERATURE/DS18B20

DS18B20INIT/DS18B20                    ----- -----  ----- -----  0006H 0006H  ----- -----
  +--> DELAY60US/DELAY
  +--> DELAY485US/DELAY
  +--> DELAY10US/DELAY
  +--> DELAY130US/DELAY

DELAY60US/DELAY                        ----- -----  ----- -----  ----- -----  ----- -----

DELAY485US/DELAY                       ----- -----  ----- -----  ----- -----  ----- -----

DELAY10US/DELAY                        ----- -----  ----- -----  ----- -----  ----- -----

DELAY130US/DELAY                       ----- -----  ----- -----  ----- -----  ----- -----

_DS18B20WRITEBYTE/DS18B20              ----- -----  0024H 0024H  0006H 0006H  ----- -----
  +--> DELAY1US/DELAY
  +--> DELAY60US/DELAY

DELAY1US/DELAY                         ----- -----  ----- -----  ----- -----  ----- -----

DS18B20READBYTE/DS18B20                ----- -----  ----- -----  0006H 0007H  ----- -----
  +--> DELAY10US/DELAY
  +--> DELAY1US/DELAY
  +--> DELAY60US/DELAY

DS18B20CONVERTTEMPERATURE/DS18B20      ----- -----  ----- -----  ----- -----  ----- -----
  +--> DS18B20INIT/DS18B20
  +--> _DS18B20WRITEBYTE/DS18B20

DELAY100MS/DELAY                       ----- -----  ----- -----  ----- -----  ----- -----

DELAY200MS/DELAY                       ----- -----  ----- -----  ----- -----  ----- -----

DELAY385MS/DELAY                       ----- -----  ----- -----  ----- -----  ----- -----

DELAY765MS/DELAY                       ----- -----  ----- -----  ----- -----  ----- -----

DS18B20GETTEMPERATURE/DS18B20          ----- -----  ----- -----  0000H 0005H  ----- -----
  +--> DS18B20INIT/DS18B20
  +--> _DS18B20WRITEBYTE/DS18B20
  +--> DS18B20READBYTE/DS18B20
LX51 LINKER/LOCATER V4.66.93.0                                                        05/08/2020  19:08:08  PAGE 8



GY_25INIT/GY_25                        ----- -----  ----- -----  ----- -----  ----- -----
  +--> _GY_25SETCMD/GY_25
  +--> GY_25GETAZIMUTH/GY_25

GY_25GETAZIMUTH/GY_25                  20H.2 20H.2  ----- -----  ----- -----  ----- -----

LEDINIT/LED                            ----- -----  ----- -----  ----- -----  ----- -----
  +--> _EEPROMREAD_MOVEC/EEPROM

LCD1602INIT/LCD1602                    ----- -----  ----- -----  ----- -----  ----- -----
  +--> _LCD1602WRITECMDORDATA/LCD1602
  +--> _LCD1602LOADWORD/LCD1602

_LCD1602LOADWORD/LCD1602               ----- -----  0022H 0026H  ----- -----  ----- -----
  +--> DELAY1MS/DELAY
  +--> _LCD1602SETCGRAM/LCD1602
  +--> _LCD1602WRITECMDORDATA/LCD1602

DELAY1MS/DELAY                         ----- -----  ----- -----  ----- -----  ----- -----

_LCD1602SETCGRAM/LCD1602               ----- -----  ----- -----  ----- -----  ----- -----
  +--> _LCD1602WRITECMDORDATA/LCD1602

CLOUDLOOP/CLOUDHANDLE                  ----- -----  ----- -----  ----- -----  ----- -----
  +--> CLOUDRECEIVE/CLOUDHANDLE
  +--> _CLOUDRESEND/CLOUDHANDLE
  +--> _CLOUDREPORT/CLOUDHANDLE
  +--> _CLOUDSEND/CLOUDHANDLE
  +--> DS18B20GETTEMPERATURE/DS18B20
  +--> GY_25GETAZIMUTH/GY_25
  +--> DS18B20CONVERTTEMPERATURE/DS18B20
  +--> _GY_25SETCMD/GY_25

_CLOUDREPORT/CLOUDHANDLE               ----- -----  0022H 0022H  0000H 0000H  ----- -----
  +--> _CLOUDSEND/CLOUDHANDLE
  +--> PRINTF/PRINTF
  +--> _LEDREAD/LED
  +--> CLOUDRECEIVE/CLOUDHANDLE
  +--> _CLOUDRESEND/CLOUDHANDLE

_LEDREAD/LED                           20H.2 20H.2  ----- -----  ----- -----  ----- -----
  +--> _EEPROMREAD_MOVEC/EEPROM

?C_INITSEG                             ----- -----  ----- -----  ----- -----  ----- -----



PUBLIC SYMBOLS OF MODULE:  .\Objects\STC8_AlibabaCloud (MAIN)


      VALUE       CLASS    TYPE      PUBLIC SYMBOL NAME
      =================================================
      00000020H.4 BIT      BIT       ?_LCD1602WriteCmdOrData?BIT
      00000020H.3 BIT      BIT       ?_LCD1602WriteLine?BIT
      00000024H   DATA     ---       ?_PRINTF?BYTE
      00000024H   DATA     ---       ?_SPRINTF?BYTE
      00000029H   DATA     ---       ?_strncmp?BYTE
      00000029H   DATA     ---       ?_strstr?BYTE
      01000372H   CODE     ---       ?C?CASTF
      010006E1H   CODE     ---       ?C?CCASE
      010005AEH   CODE     ---       ?C?CLDOPTR
      01000595H   CODE     ---       ?C?CLDPTR
      00000000H   NUMBER   ---       ?C?CODESEG
      010007FFH   CODE     ---       ?C?COPYP2
LX51 LINKER/LOCATER V4.66.93.0                                                        05/08/2020  19:08:08  PAGE 9


      010005DBH   CODE     ---       ?C?CSTPTR
      0100033EH   CODE     ---       ?C?FCASTC
      01000339H   CODE     ---       ?C?FCASTI
      01000334H   CODE     ---       ?C?FCASTL
      0100009DH   CODE     ---       ?C?FPADD
      01000422H   CODE     ---       ?C?FPCONVERT
      01000297H   CODE     ---       ?C?FPDIV
      010003A9H   CODE     ---       ?C?FPGETOPN2
      0100018EH   CODE     ---       ?C?FPMUL
      010003DEH   CODE     ---       ?C?FPNANRESULT
      010003E8H   CODE     ---       ?C?FPOVERFLOW
      010003C0H   CODE     ---       ?C?FPRESULT
      010003D4H   CODE     ---       ?C?FPRESULT2
      010003F3H   CODE     ---       ?C?FPROUND
      01000099H   CODE     ---       ?C?FPSUB
      010003E5H   CODE     ---       ?C?FPUNDERFLOW
      01000555H   CODE     ---       ?C?FTNPWR
      010005EDH   CODE     ---       ?C?ILDIX
      01000684H   CODE     ---       ?C?LLDCODE0
      01000603H   CODE     ---       ?C?LMUL
      01000652H   CODE     ---       ?C?LNEG
      010006A0H   CODE     ---       ?C?LSTKXDATA
      01000694H   CODE     ---       ?C?LSTXDATA
      01000707H   CODE     ---       ?C?MEMSET
      010006D1H   CODE     ---       ?C?PLDIIDATA
      01000660H   CODE     ---       ?C?ULCMP
      01000671H   CODE     ---       ?C?ULSHR
      00000000H   NUMBER   ---       ?C?XDATASEG
      01000CDBH   CODE     ---       ?C_START
      01000000H   CODE     ---       ?C_STARTUP
*DEL*:00000000H   CODE     ---       _DS18B20Set
      01002BE5H   CODE     ---       _EEPROMErase
*DEL*:00000000H   CODE     ---       _EEPROMRead
      01002BFAH   CODE     ---       _EEPROMRead_MOVEC
      01002BC3H   CODE     ---       _EEPROMWrite
      010025FAH   CODE     ---       _GY_25SetCmd
      01002895H   CODE     ---       _Init_wkt
      01002D10H   CODE     ---       _LCD1602SetDDRAM
      010026D8H   CODE     ---       _LCD1602WriteCmdOrData
      01002CDFH   CODE     ---       _LCD1602WriteLine
      01001FA7H   CODE     ---       _LEDRead
      01002AE4H   CODE     ---       _LEDWrite
      01000887H   CODE     ---       _PRINTF
      01000046H   CODE     ---       _PUTCHAR
      01000881H   CODE     ---       _SPRINTF
      01000DA2H   CODE     ---       _strncmp
      01000D20H   CODE     ---       _strstr
      01002008H   CODE     ---       _uart2_send8
      01002013H   CODE     ---       _uart2_sendstr8
      01002609H   CODE     ---       _uart4_send8
*SFR* 000000D0H.6 DATA     BIT       AC
*SFR* 000000E0H   DATA     BYTE      ACC
*SFR* 000000BCH   DATA     BYTE      ADC_CONTR
*SFR* 000000BDH   DATA     BYTE      ADC_RES
*SFR* 000000BEH   DATA     BYTE      ADC_RESL
*SFR* 000000DEH   DATA     BYTE      ADCCFG
      010012E5H   CONST    ---       ATCmd
      01001250H   CONST    ---       ATCmd0
      01001259H   CONST    ---       ATCmd1
      010012B4H   CONST    ---       ATCmd10
      010012BEH   CONST    ---       ATCmd11
      010012C9H   CONST    ---       ATCmd12
      010012D3H   CONST    ---       ATCmd13
      010012D8H   CONST    ---       ATCmd14
      010012DFH   CONST    ---       ATCmd15
LX51 LINKER/LOCATER V4.66.93.0                                                        05/08/2020  19:08:08  PAGE 10


      01001262H   CONST    ---       ATCmd2
      0100126AH   CONST    ---       ATCmd3
      01001278H   CONST    ---       ATCmd4
      01001283H   CONST    ---       ATCmd5
      01001291H   CONST    ---       ATCmd6
      0100129BH   CONST    ---       ATCmd7
      010012A3H   CONST    ---       ATCmd8
      010012ABH   CONST    ---       ATCmd9
*SFR* 000000EFH   DATA     BYTE      AUXINTIF
*SFR* 0000008EH   DATA     BYTE      AUXR
*SFR* 00000097H   DATA     BYTE      AUXR2
*SFR* 000000F0H   DATA     BYTE      B
*SFR* 000000A1H   DATA     BYTE      BUS_SPEED
*SFR* 000000FAH   DATA     BYTE      CCAP0H
*SFR* 000000EAH   DATA     BYTE      CCAP0L
*SFR* 000000FBH   DATA     BYTE      CCAP1H
*SFR* 000000EBH   DATA     BYTE      CCAP1L
*SFR* 000000FCH   DATA     BYTE      CCAP2H
*SFR* 000000ECH   DATA     BYTE      CCAP2L
*SFR* 000000FDH   DATA     BYTE      CCAP3H
*SFR* 000000EDH   DATA     BYTE      CCAP3L
*SFR* 000000DAH   DATA     BYTE      CCAPM0
*SFR* 000000DBH   DATA     BYTE      CCAPM1
*SFR* 000000DCH   DATA     BYTE      CCAPM2
*SFR* 000000DDH   DATA     BYTE      CCAPM3
*SFR* 000000D8H.0 DATA     BIT       CCF0
*SFR* 000000D8H.1 DATA     BIT       CCF1
*SFR* 000000D8H.2 DATA     BIT       CCF2
*SFR* 000000D8H.3 DATA     BIT       CCF3
*SFR* 000000D8H   DATA     BYTE      CCON
*SFR* 000000D8H.7 DATA     BIT       CF
*SFR* 000000F9H   DATA     BYTE      CH
*SFR* 000000E9H   DATA     BYTE      CL
      02000159H   XDATA    ---       CloudAct
      01001D8CH   CODE     ---       CloudInit
      01001945H   CODE     ---       CloudLoop
*SFR* 000000D9H   DATA     BYTE      CMOD
*SFR* 000000E6H   DATA     BYTE      CMPCR1
*SFR* 000000E7H   DATA     BYTE      CMPCR2
*SFR* 000000D8H.6 DATA     BIT       CR
*SFR* 000000D0H.7 DATA     BIT       CY
      01002CA9H   CODE     ---       Delay100ms
      010028F9H   CODE     ---       Delay10us
      01002C78H   CODE     ---       Delay130us
      01002CA0H   CODE     ---       Delay1ms
      010027F2H   CODE     ---       Delay1us
      01002CB6H   CODE     ---       Delay200ms
      01002CC3H   CODE     ---       Delay385ms
      01002C82H   CODE     ---       Delay40us
*DEL*:00000000H   CODE     ---       Delay45us
      01002C6FH   CODE     ---       Delay485us
      01002C64H   CODE     ---       Delay60us
      01002CD2H   CODE     ---       Delay765ms
      01001119H   CONST    ---       DeviceName
*SFR* 00000083H   DATA     BYTE      DPH
*SFR* 000000E5H   DATA     BYTE      DPH1
*SFR* 00000082H   DATA     BYTE      DPL
*SFR* 000000E4H   DATA     BYTE      DPL1
*SFR* 000000E3H   DATA     BYTE      DPS
*SFR* 000000C0H.1 DATA     BIT       DS18B20_DATA
      01002C55H   CODE     ---       DS18B20ConvertTemperature
      01000025H   CONST    ---       DS18B20ConvertTMaxTime
      01002928H   CODE     ---       DS18B20GetTemperature
      0100002DH   CONST    ---       DS18B20ReTransfrom
      020008C1H   XDATA    ---       DS18B20ST
LX51 LINKER/LOCATER V4.66.93.0                                                        05/08/2020  19:08:08  PAGE 11


      010026EBH   CODE     ---       DS18B20STInit
*SFR* 000000A8H.7 DATA     BIT       EA
*SFR* 000000A8H.5 DATA     BIT       EADC
*SFR* 000000A8H.6 DATA     BIT       ELVD
*SFR* 000000A8H.4 DATA     BIT       ES
*SFR* 000000A8H.1 DATA     BIT       ET0
*SFR* 000000A8H.3 DATA     BIT       ET1
      010011F9H   CONST    ---       Event_1
      01001222H   CONST    BYTE      Event_1_Len
      0100120DH   CONST    ---       Event_2
      01001223H   CONST    BYTE      Event_2_Len
*SFR* 000000A8H.0 DATA     BIT       EX0
*SFR* 000000A8H.2 DATA     BIT       EX1
*SFR* 000000D0H.5 DATA     BIT       F0
      0100183BH   CODE     ---       GY_25GetAzimuth
      01002614H   CODE     ---       GY_25Init
      020008BBH   XDATA    ---       GY_25ST
*SFR* 000000C3H   DATA     BYTE      IAP_ADDRH
*SFR* 000000C4H   DATA     BYTE      IAP_ADDRL
*SFR* 000000C5H   DATA     BYTE      IAP_CMD
*SFR* 000000C7H   DATA     BYTE      IAP_CONTR
*SFR* 000000C2H   DATA     BYTE      IAP_DATA
*SFR* 000000C6H   DATA     BYTE      IAP_TRIG
*SFR* 000000A8H   DATA     BYTE      IE
*SFR* 00000088H.1 DATA     BIT       IE0
*SFR* 00000088H.3 DATA     BIT       IE1
*SFR* 000000AFH   DATA     BYTE      IE2
      01002653H   CODE     ---       Init
      010028D9H   CODE     ---       Init_interrupt
      01002802H   CODE     ---       Init_io
      010027F8H   CODE     ---       Init_rst
      01002827H   CODE     ---       Init_timer0
      01002838H   CODE     ---       Init_uart2
      0100286FH   CODE     ---       Init_uart4
*SFR* 0000008FH   DATA     BYTE      INTCLKO
*SFR* 000000B8H   DATA     BYTE      IP
*SFR* 000000B5H   DATA     BYTE      IP2
*SFR* 000000B6H   DATA     BYTE      IP2H
*SFR* 000000B7H   DATA     BYTE      IPH
*SFR* 000000C3H   DATA     BYTE      ISP_ADDRH
*SFR* 000000C4H   DATA     BYTE      ISP_ADDRL
*SFR* 000000C5H   DATA     BYTE      ISP_CMD
*SFR* 000000C7H   DATA     BYTE      ISP_CONTR
*SFR* 000000C2H   DATA     BYTE      ISP_DATA
*SFR* 000000C6H   DATA     BYTE      ISP_TRIG
*SFR* 00000088H.0 DATA     BIT       IT0
*SFR* 00000088H.2 DATA     BIT       IT1
*SFR* 000000A0H.7 DATA     BIT       LCD1602_Busy
*SFR* 000000B0H.2 DATA     BIT       LCD1602_EN
*SFR* 000000B0H.5 DATA     BIT       LCD1602_RS
*SFR* 000000B0H.4 DATA     BIT       LCD1602_RW
      0100267BH   CODE     ---       LCD1602Init
*DEL*:00000000H   CODE     ---       LCD1602ReadData
*DEL*:00000000H   CODE     ---       LCD1602ReadIdx
      01000075H   CONST    ---       LCD1602Word_Heart
      0100006DH   CONST    ---       LCD1602Word_Temperature
*SFR* 000000C0H.2 DATA     BIT       LED1
*SFR* 000000C0H.3 DATA     BIT       LED2
*SFR* 000000C0H.4 DATA     BIT       LED3
*SFR* 00000080H.7 DATA     BIT       LED_BLUE
*SFR* 00000090H.1 DATA     BIT       LED_GREEN
*SFR* 00000090H.0 DATA     BIT       LED_RED
      01002C0DH   CODE     ---       LEDInit
      01000003H   CODE     ---       main
      010011F2H   CONST    ---       MQTTAutoReConect
LX51 LINKER/LOCATER V4.66.93.0                                                        05/08/2020  19:08:08  PAGE 12


      010011F5H   CONST    ---       MQTTAutoStart
      010011B6H   CONST    ---       MQTTClientID
      010011EFH   CONST    ---       MQTTHeartBeat
      01001180H   CONST    ---       MQTTHost
      01001157H   CONST    ---       MQTTPassword
      010011B1H   CONST    ---       MQTTPort
      01001143H   CONST    ---       MQTTUser
*SFR* 000000D0H.2 DATA     BIT       OV
*SFR* 000000D0H.0 DATA     BIT       P
*SFR* 00000080H   DATA     BYTE      P0
*SFR* 00000080H.0 DATA     BIT       P00
*SFR* 00000080H.1 DATA     BIT       P01
*SFR* 00000080H.2 DATA     BIT       P02
*SFR* 00000080H.3 DATA     BIT       P03
*SFR* 00000080H.4 DATA     BIT       P04
*SFR* 00000080H.5 DATA     BIT       P05
*SFR* 00000080H.6 DATA     BIT       P06
*SFR* 00000080H.7 DATA     BIT       P07
*SFR* 00000094H   DATA     BYTE      P0M0
*SFR* 00000093H   DATA     BYTE      P0M1
*SFR* 00000090H   DATA     BYTE      P1
*SFR* 00000090H.0 DATA     BIT       P10
*SFR* 00000090H.1 DATA     BIT       P11
*SFR* 00000090H.2 DATA     BIT       P12
*SFR* 00000090H.3 DATA     BIT       P13
*SFR* 00000090H.4 DATA     BIT       P14
*SFR* 00000090H.5 DATA     BIT       P15
*SFR* 00000090H.6 DATA     BIT       P16
*SFR* 00000090H.7 DATA     BIT       P17
*SFR* 00000092H   DATA     BYTE      P1M0
*SFR* 00000091H   DATA     BYTE      P1M1
*SFR* 000000A0H   DATA     BYTE      P2
*SFR* 000000A0H.0 DATA     BIT       P20
*SFR* 000000A0H.1 DATA     BIT       P21
*SFR* 000000A0H.2 DATA     BIT       P22
*SFR* 000000A0H.3 DATA     BIT       P23
*SFR* 000000A0H.4 DATA     BIT       P24
*SFR* 000000A0H.5 DATA     BIT       P25
*SFR* 000000A0H.6 DATA     BIT       P26
*SFR* 000000A0H.7 DATA     BIT       P27
*SFR* 00000096H   DATA     BYTE      P2M0
*SFR* 00000095H   DATA     BYTE      P2M1
*SFR* 000000B0H   DATA     BYTE      P3
*SFR* 000000B0H.0 DATA     BIT       P30
*SFR* 000000B0H.1 DATA     BIT       P31
*SFR* 000000B0H.2 DATA     BIT       P32
*SFR* 000000B0H.3 DATA     BIT       P33
*SFR* 000000B0H.4 DATA     BIT       P34
*SFR* 000000B0H.5 DATA     BIT       P35
*SFR* 000000B0H.6 DATA     BIT       P36
*SFR* 000000B0H.7 DATA     BIT       P37
*SFR* 000000B2H   DATA     BYTE      P3M0
*SFR* 000000B1H   DATA     BYTE      P3M1
*SFR* 000000C0H   DATA     BYTE      P4
*SFR* 000000C0H.0 DATA     BIT       P40
*SFR* 000000C0H.1 DATA     BIT       P41
*SFR* 000000C0H.2 DATA     BIT       P42
*SFR* 000000C0H.3 DATA     BIT       P43
*SFR* 000000C0H.4 DATA     BIT       P44
*SFR* 000000C0H.5 DATA     BIT       P45
*SFR* 000000C0H.6 DATA     BIT       P46
*SFR* 000000C0H.7 DATA     BIT       P47
*SFR* 000000B4H   DATA     BYTE      P4M0
*SFR* 000000B3H   DATA     BYTE      P4M1
*SFR* 000000C8H   DATA     BYTE      P5
LX51 LINKER/LOCATER V4.66.93.0                                                        05/08/2020  19:08:08  PAGE 13


*SFR* 000000C8H.0 DATA     BIT       P50
*SFR* 000000C8H.1 DATA     BIT       P51
*SFR* 000000C8H.2 DATA     BIT       P52
*SFR* 000000C8H.3 DATA     BIT       P53
*SFR* 000000C8H.4 DATA     BIT       P54
*SFR* 000000C8H.5 DATA     BIT       P55
*SFR* 000000C8H.6 DATA     BIT       P56
*SFR* 000000C8H.7 DATA     BIT       P57
*SFR* 000000CAH   DATA     BYTE      P5M0
*SFR* 000000C9H   DATA     BYTE      P5M1
*SFR* 000000E8H   DATA     BYTE      P6
*SFR* 000000E8H.0 DATA     BIT       P60
*SFR* 000000E8H.1 DATA     BIT       P61
*SFR* 000000E8H.2 DATA     BIT       P62
*SFR* 000000E8H.3 DATA     BIT       P63
*SFR* 000000E8H.4 DATA     BIT       P64
*SFR* 000000E8H.5 DATA     BIT       P65
*SFR* 000000E8H.6 DATA     BIT       P66
*SFR* 000000E8H.7 DATA     BIT       P67
*SFR* 000000CCH   DATA     BYTE      P6M0
*SFR* 000000CBH   DATA     BYTE      P6M1
*SFR* 000000F8H   DATA     BYTE      P7
*SFR* 000000F8H.0 DATA     BIT       P70
*SFR* 000000F8H.1 DATA     BIT       P71
*SFR* 000000F8H.2 DATA     BIT       P72
*SFR* 000000F8H.3 DATA     BIT       P73
*SFR* 000000F8H.4 DATA     BIT       P74
*SFR* 000000F8H.5 DATA     BIT       P75
*SFR* 000000F8H.6 DATA     BIT       P76
*SFR* 000000F8H.7 DATA     BIT       P77
*SFR* 000000E2H   DATA     BYTE      P7M0
*SFR* 000000E1H   DATA     BYTE      P7M1
*SFR* 000000A2H   DATA     BYTE      P_SW1
*SFR* 000000BAH   DATA     BYTE      P_SW2
*SFR* 000000B8H.5 DATA     BIT       PADC
*SFR* 000000F2H   DATA     BYTE      PCA_PWM0
*SFR* 000000F3H   DATA     BYTE      PCA_PWM1
*SFR* 000000F4H   DATA     BYTE      PCA_PWM2
*SFR* 000000F5H   DATA     BYTE      PCA_PWM3
*SFR* 00000087H   DATA     BYTE      PCON
*SFR* 000000B8H.6 DATA     BIT       PLVD
*SFR* 000000B8H.7 DATA     BIT       PPCA
      01001121H   CONST    ---       ProductKey
*SFR* 000000B8H.4 DATA     BIT       PS
*SFR* 000000D0H   DATA     BYTE      PSW
*SFR* 000000B8H.1 DATA     BIT       PT0
*SFR* 000000B8H.3 DATA     BIT       PT1
*SFR* 000000F1H   DATA     BYTE      PWMCFG
*SFR* 000000FEH   DATA     BYTE      PWMCR
*SFR* 000000F7H   DATA     BYTE      PWMFDCR
*SFR* 000000F6H   DATA     BYTE      PWMIF
*SFR* 000000B8H.0 DATA     BIT       PX0
*SFR* 000000B8H.2 DATA     BIT       PX1
*SFR* 00000098H.2 DATA     BIT       RB8
*SFR* 00000098H.4 DATA     BIT       REN
*SFR* 00000098H.0 DATA     BIT       RI
*SFR* 000000D0H.3 DATA     BIT       RS0
*SFR* 000000D0H.4 DATA     BIT       RS1
*SFR* 000000FFH   DATA     BYTE      RSTCFG
*SFR* 0000009BH   DATA     BYTE      S2BUF
*SFR* 0000009AH   DATA     BYTE      S2CON
*SFR* 000000ADH   DATA     BYTE      S3BUF
*SFR* 000000ACH   DATA     BYTE      S3CON
*SFR* 00000085H   DATA     BYTE      S4BUF
*SFR* 00000084H   DATA     BYTE      S4CON
LX51 LINKER/LOCATER V4.66.93.0                                                        05/08/2020  19:08:08  PAGE 14


*SFR* 000000A9H   DATA     BYTE      SADDR
*SFR* 000000B9H   DATA     BYTE      SADEN
*SFR* 00000099H   DATA     BYTE      SBUF
*SFR* 00000098H   DATA     BYTE      SCON
      01001224H   CONST    ---       Service_1
      01001233H   CONST    BYTE      Service_1_Len
      01001234H   CONST    ---       Service_2
      01001243H   CONST    BYTE      Service_2_Len
      01001244H   CONST    ---       Service_3
      0100124FH   CONST    BYTE      Service_3_Len
*SFR* 00000098H.7 DATA     BIT       SM0
*SFR* 00000098H.6 DATA     BIT       SM1
*SFR* 00000098H.5 DATA     BIT       SM2
*SFR* 00000081H   DATA     BYTE      SP
*SFR* 000000CEH   DATA     BYTE      SPCTL
*SFR* 000000CFH   DATA     BYTE      SPDAT
*SFR* 000000CDH   DATA     BYTE      SPSTAT
*SFR* 000000D6H   DATA     BYTE      T2H
*SFR* 000000D7H   DATA     BYTE      T2L
*SFR* 000000D4H   DATA     BYTE      T3H
*SFR* 000000D5H   DATA     BYTE      T3L
*SFR* 000000D2H   DATA     BYTE      T4H
*SFR* 000000D3H   DATA     BYTE      T4L
*SFR* 000000D1H   DATA     BYTE      T4T3M
*SFR* 000000AEH   DATA     BYTE      TA
*SFR* 00000098H.3 DATA     BIT       TB8
*SFR* 00000088H   DATA     BYTE      TCON
*SFR* 00000088H.5 DATA     BIT       TF0
*SFR* 00000088H.7 DATA     BIT       TF1
*SFR* 0000008CH   DATA     BYTE      TH0
*SFR* 0000008DH   DATA     BYTE      TH1
*SFR* 000000D6H   DATA     BYTE      TH2
*SFR* 000000D4H   DATA     BYTE      TH3
*SFR* 000000D2H   DATA     BYTE      TH4
*SFR* 00000098H.1 DATA     BIT       TI
*SFR* 0000008AH   DATA     BYTE      TL0
*SFR* 0000008BH   DATA     BYTE      TL1
*SFR* 000000D7H   DATA     BYTE      TL2
*SFR* 000000D5H   DATA     BYTE      TL3
*SFR* 000000D3H   DATA     BYTE      TL4
      01001315H   CODE     ---       TM0_ISR
*SFR* 00000089H   DATA     BYTE      TMOD
*SFR* 00000088H.4 DATA     BIT       TR0
*SFR* 00000088H.6 DATA     BIT       TR1
      01000017H   CODE     ---       UART1_ISR
      00000021H.3 BIT      BIT       uart1Busy
      01001692H   CODE     ---       UART2_ISR
      0200063DH   XDATA    ---       uart2Buffer
      00000021H.4 BIT      BIT       uart2Busy
      00000008H   DATA     WORD      uart2Idx1
      0000000AH   DATA     WORD      uart2Idx2
      010017B3H   CODE     ---       UART4_ISR
      02000895H   XDATA    ---       uart4Buffer
      00000021H.5 BIT      BIT       uart4Busy
      0000000CH   DATA     BYTE      uart4Idx1
      0000000DH   DATA     BYTE      uart4Idx2
*SFR* 000000BBH   DATA     BYTE      VOCTRL
*SFR* 000000C1H   DATA     BYTE      WDT_CONTR
      0100113AH   CONST    ---       WiFiPassword
      0100112DH   CONST    ---       WiFiSSID
*SFR* 000000ABH   DATA     BYTE      WKTCH
*SFR* 000000AAH   DATA     BYTE      WKTCL



LX51 LINKER/LOCATER V4.66.93.0                                                        05/08/2020  19:08:08  PAGE 15


LINKER CODE PACKING SYMBOLS OF MODULE:  .\Objects\STC8_AlibabaCloud (MAIN)


      VALUE       CLASS    TYPE      SYMBOL NAME
      ==========================================
      0100007DH   CODE     PART      ?L?COM0001
      01001F13H   CODE     PART      ?L?COM0002
      01001F13H   CODE     END       ?L?COM0003
      01001363H   CODE     PART      ?L?COM0004
      01001363H   CODE     END       ?L?COM0005
      01001363H   CODE     END       ?L?COM0006
      01001363H   CODE     END       ?L?COM0007
      0100259DH   CODE     PART      ?L?COM0008
      0100259DH   CODE     END       ?L?COM0009
      0100259DH   CODE     END       ?L?COM000A
      01002592H   CODE     PART      ?L?COM000B
      01002592H   CODE     END       ?L?COM000C
      0100171DH   CODE     PART      ?L?COM000D
      0100171DH   CODE     END       ?L?COM000E
      01001F35H   CODE     PART      ?L?COM000F
      01001F8FH   CODE     PART      ?L?COM0010
      01001F25H   CODE     PART      ?L?COM0011
      01001746H   CODE     PART      ?L?COM0012
      01001F0CH   CODE     PART      ?L?COM0013
      010025B2H   CODE     PART      ?L?COM0014
      010025B2H   CODE     END       ?L?COM0015
      010025C9H   CODE     PART      ?L?COM0016
      010025C9H   CODE     END       ?L?COM0017
      01001773H   CODE     PART      ?L?COM0018
      01001773H   CODE     END       ?L?COM0019
      010025E8H   CODE     PART      ?L?COM001A
      01002BAFH   CODE     BEGIN     ?L?COM001B
      01002BAFH   CODE     END       ?L?COM001C
      01002BAFH   CODE     END       ?L?COM001D
      01002ADAH   CODE     PART      ?L?COM001E
      01001930H   CODE     PART      ?L?COM001F
      01001930H   CODE     END       ?L?COM0020
      0100137DH   CODE     BEGIN     ?L?COM0021
      010025DAH   CODE     PART      ?L?COM0022
      010025DAH   CODE     END       ?L?COM0023
      010025DAH   CODE     END       ?L?COM0024
      01001F80H   CODE     PART      ?L?COM0025
      01001F80H   CODE     END       ?L?COM0026
      01001F72H   CODE     PART      ?L?COM0027
      01001F72H   CODE     END       ?L?COM0028
      0100003DH   CODE     PART      ?L?COM0029
      01001739H   CODE     PART      ?L?COM002A
      01001F58H   CODE     PART      ?L?COM002B
      01002D32H   CODE     PART      ?L?COM002C
      01002129H   CODE     PART      ?L?COM002D
      01001798H   CODE     PART      ?L?COM002E
      01002BDAH   CODE     PART      ?L?COM002F
      01002BDAH   CODE     END       ?L?COM0030
      01001766H   CODE     PART      ?L?COM0031
      01002646H   CODE     PART      ?L?COM0032
      01001F4FH   CODE     PART      ?L?COM0033
      01001F4FH   CODE     END       ?L?COM0034
      01001F4FH   CODE     END       ?L?COM0035
      01001F65H   CODE     PART      ?L?COM0036
      01002C3BH   CODE     PART      ?L?COM0037
      01002C3BH   CODE     END       ?L?COM0038
      0100182EH   CODE     PART      ?L?COM0039
      0100182EH   CODE     END       ?L?COM003A
      01002C4BH   CODE     PART      ?L?COM003B
      01001FF9H   CODE     PART      ?L?COM003C
LX51 LINKER/LOCATER V4.66.93.0                                                        05/08/2020  19:08:08  PAGE 16


      01001FEBH   CODE     PART      ?L?COM003D
      01002ABCH   CODE     PART      ?L?COM003E
      01002ABCH   CODE     END       ?L?COM003F
      01002D43H   CODE     PART      ?L?COM0040
      01002C43H   CODE     PART      ?L?COM0041
      01002AB3H   CODE     PART      ?L?COM0042
      010027B0H   CODE     BEGIN     ?L?COM0043
      01002862H   CODE     PART      ?L?COM0044
      01002D51H   CODE     PART      ?L?COM0045
      0100263EH   CODE     PART      ?L?COM0046
      0100193DH   CODE     PART      ?L?COM0047
      01002D5DH   CODE     PART      ?L?COM0048
      01002D66H   CODE     PART      ?L?COM0049
      01002D6FH   CODE     PART      ?L?COM004A
      01002AD1H   CODE     PART      ?L?COM004B
      0100175DH   CODE     PART      ?L?COM004C
      01002AC9H   CODE     PART      ?L?COM004D
      01001FF2H   CODE     PART      ?L?COM004E
      01002D78H   CODE     PART      ?L?COM004F
      01002D7FH   CODE     PART      ?L?COM0050
      01002D18H   CODE     PART      ?L?COM0051



SYMBOL TABLE OF MODULE:  .\Objects\STC8_AlibabaCloud (MAIN)

      VALUE       REP       CLASS    TYPE      SYMBOL NAME
      ====================================================
      ---         MODULE    ---      ---       MAIN
      01000003H   PUBLIC    CODE     ---       main
      000000D8H.2 SFRSYM    DATA     BIT       CCF2
      00000092H   SFRSYM    DATA     BYTE      P1M0
      00000093H   SFRSYM    DATA     BYTE      P0M1
      000000D8H.3 SFRSYM    DATA     BIT       CCF3
      00000096H   SFRSYM    DATA     BYTE      P2M0
      00000091H   SFRSYM    DATA     BYTE      P1M1
      00000080H   SFRSYM    DATA     BYTE      P0
      000000B2H   SFRSYM    DATA     BYTE      P3M0
      00000095H   SFRSYM    DATA     BYTE      P2M1
      00000090H   SFRSYM    DATA     BYTE      P1
      000000B4H   SFRSYM    DATA     BYTE      P4M0
      000000B1H   SFRSYM    DATA     BYTE      P3M1
      000000A0H   SFRSYM    DATA     BYTE      P2
      000000ABH   SFRSYM    DATA     BYTE      WKTCH
      000000CAH   SFRSYM    DATA     BYTE      P5M0
      000000B3H   SFRSYM    DATA     BYTE      P4M1
      000000B0H   SFRSYM    DATA     BYTE      P3
      000000CCH   SFRSYM    DATA     BYTE      P6M0
      000000C9H   SFRSYM    DATA     BYTE      P5M1
      000000C0H   SFRSYM    DATA     BYTE      P4
      000000D0H.6 SFRSYM    DATA     BIT       AC
      000000F6H   SFRSYM    DATA     BYTE      PWMIF
      000000C6H   SFRSYM    DATA     BYTE      ISP_TRIG
      000000E2H   SFRSYM    DATA     BYTE      P7M0
      000000CBH   SFRSYM    DATA     BYTE      P6M1
      000000C8H   SFRSYM    DATA     BYTE      P5
      000000A8H.7 SFRSYM    DATA     BIT       EA
      000000E1H   SFRSYM    DATA     BYTE      P7M1
      000000E8H   SFRSYM    DATA     BYTE      P6
      000000C0H.2 SFRSYM    DATA     BIT       LED1
      000000AAH   SFRSYM    DATA     BYTE      WKTCL
      000000F8H   SFRSYM    DATA     BYTE      P7
      000000C0H.3 SFRSYM    DATA     BIT       LED2
      000000CEH   SFRSYM    DATA     BYTE      SPCTL
      000000C0H.4 SFRSYM    DATA     BIT       LED3
LX51 LINKER/LOCATER V4.66.93.0                                                        05/08/2020  19:08:08  PAGE 17


      000000D8H.7 SFRSYM    DATA     BIT       CF
      000000FEH   SFRSYM    DATA     BYTE      PWMCR
      000000F9H   SFRSYM    DATA     BYTE      CH
      000000A2H   SFRSYM    DATA     BYTE      P_SW1
      000000BAH   SFRSYM    DATA     BYTE      P_SW2
      000000A8H.5 SFRSYM    DATA     BIT       EADC
      000000A8H   SFRSYM    DATA     BYTE      IE
      000000E5H   SFRSYM    DATA     BYTE      DPH1
      000000E9H   SFRSYM    DATA     BYTE      CL
      000000C5H   SFRSYM    DATA     BYTE      IAP_CMD
      000000FAH   SFRSYM    DATA     BYTE      CCAP0H
      000000B0H.2 SFRSYM    DATA     BIT       LCD1602_EN
      00000090H.0 SFRSYM    DATA     BIT       LED_RED
      000000FBH   SFRSYM    DATA     BYTE      CCAP1H
      000000E4H   SFRSYM    DATA     BYTE      DPL1
      000000FCH   SFRSYM    DATA     BYTE      CCAP2H
      000000FDH   SFRSYM    DATA     BYTE      CCAP3H
      000000BDH   SFRSYM    DATA     BYTE      ADC_RES
      000000B6H   SFRSYM    DATA     BYTE      IP2H
      000000EAH   SFRSYM    DATA     BYTE      CCAP0L
      000000D8H.6 SFRSYM    DATA     BIT       CR
      000000AEH   SFRSYM    DATA     BYTE      TA
      000000F7H   SFRSYM    DATA     BYTE      PWMFDCR
      000000EBH   SFRSYM    DATA     BYTE      CCAP1L
      000000DAH   SFRSYM    DATA     BYTE      CCAPM0
      000000ECH   SFRSYM    DATA     BYTE      CCAP2L
      000000DBH   SFRSYM    DATA     BYTE      CCAPM1
      0000008FH   SFRSYM    DATA     BYTE      INTCLKO
      000000EDH   SFRSYM    DATA     BYTE      CCAP3L
      000000DCH   SFRSYM    DATA     BYTE      CCAPM2
      000000A8H.4 SFRSYM    DATA     BIT       ES
      000000DDH   SFRSYM    DATA     BYTE      CCAPM3
      000000B8H.5 SFRSYM    DATA     BIT       PADC
      000000B8H   SFRSYM    DATA     BYTE      IP
      000000DEH   SFRSYM    DATA     BYTE      ADCCFG
      00000098H.0 SFRSYM    DATA     BIT       RI
      000000D0H.7 SFRSYM    DATA     BIT       CY
      00000098H.1 SFRSYM    DATA     BIT       TI
      000000C3H   SFRSYM    DATA     BYTE      IAP_ADDRH
      000000C0H.1 SFRSYM    DATA     BIT       DS18B20_DATA
      000000C5H   SFRSYM    DATA     BYTE      ISP_CMD
      000000B8H.4 SFRSYM    DATA     BIT       PS
      00000081H   SFRSYM    DATA     BYTE      SP
      000000A0H.7 SFRSYM    DATA     BIT       LCD1602_Busy
      000000B0H.5 SFRSYM    DATA     BIT       LCD1602_RS
      000000D9H   SFRSYM    DATA     BYTE      CMOD
      000000D8H   SFRSYM    DATA     BYTE      CCON
      000000C4H   SFRSYM    DATA     BYTE      IAP_ADDRL
      000000B8H.7 SFRSYM    DATA     BIT       PPCA
      000000D0H.2 SFRSYM    DATA     BIT       OV
      000000B0H.4 SFRSYM    DATA     BIT       LCD1602_RW
      000000E6H   SFRSYM    DATA     BYTE      CMPCR1
      00000090H.1 SFRSYM    DATA     BIT       LED_GREEN
      000000E7H   SFRSYM    DATA     BYTE      CMPCR2
      000000A8H.6 SFRSYM    DATA     BIT       ELVD
      00000080H.0 SFRSYM    DATA     BIT       P00
      000000BCH   SFRSYM    DATA     BYTE      ADC_CONTR
      00000099H   SFRSYM    DATA     BYTE      SBUF
      00000087H   SFRSYM    DATA     BYTE      PCON
      00000090H.0 SFRSYM    DATA     BIT       P10
      00000080H.1 SFRSYM    DATA     BIT       P01
      000000C3H   SFRSYM    DATA     BYTE      ISP_ADDRH
      000000A0H.0 SFRSYM    DATA     BIT       P20
      00000090H.1 SFRSYM    DATA     BIT       P11
      00000080H.2 SFRSYM    DATA     BIT       P02
LX51 LINKER/LOCATER V4.66.93.0                                                        05/08/2020  19:08:08  PAGE 18


      000000B0H.0 SFRSYM    DATA     BIT       P30
      000000A0H.1 SFRSYM    DATA     BIT       P21
      00000090H.2 SFRSYM    DATA     BIT       P12
      00000080H.3 SFRSYM    DATA     BIT       P03
      00000098H   SFRSYM    DATA     BYTE      SCON
      000000C0H.0 SFRSYM    DATA     BIT       P40
      000000B0H.1 SFRSYM    DATA     BIT       P31
      000000A0H.2 SFRSYM    DATA     BIT       P22
      00000090H.3 SFRSYM    DATA     BIT       P13
      00000080H.4 SFRSYM    DATA     BIT       P04
      00000089H   SFRSYM    DATA     BYTE      TMOD
      00000088H   SFRSYM    DATA     BYTE      TCON
      000000C8H.0 SFRSYM    DATA     BIT       P50
      000000C0H.1 SFRSYM    DATA     BIT       P41
      000000B0H.2 SFRSYM    DATA     BIT       P32
      000000A0H.3 SFRSYM    DATA     BIT       P23
      00000090H.4 SFRSYM    DATA     BIT       P14
      00000080H.5 SFRSYM    DATA     BIT       P05
      000000C4H   SFRSYM    DATA     BYTE      ISP_ADDRL
      000000E8H.0 SFRSYM    DATA     BIT       P60
      000000C8H.1 SFRSYM    DATA     BIT       P51
      000000C0H.2 SFRSYM    DATA     BIT       P42
      000000B0H.3 SFRSYM    DATA     BIT       P33
      000000A0H.4 SFRSYM    DATA     BIT       P24
      00000090H.5 SFRSYM    DATA     BIT       P15
      00000080H.6 SFRSYM    DATA     BIT       P06
      000000B8H.6 SFRSYM    DATA     BIT       PLVD
      000000F8H.0 SFRSYM    DATA     BIT       P70
      000000E8H.1 SFRSYM    DATA     BIT       P61
      000000C8H.2 SFRSYM    DATA     BIT       P52
      000000C0H.3 SFRSYM    DATA     BIT       P43
      000000B0H.4 SFRSYM    DATA     BIT       P34
      000000A0H.5 SFRSYM    DATA     BIT       P25
      00000090H.6 SFRSYM    DATA     BIT       P16
      00000080H.7 SFRSYM    DATA     BIT       P07
      000000F8H.1 SFRSYM    DATA     BIT       P71
      000000E8H.2 SFRSYM    DATA     BIT       P62
      000000C8H.3 SFRSYM    DATA     BIT       P53
      000000C0H.4 SFRSYM    DATA     BIT       P44
      000000B0H.5 SFRSYM    DATA     BIT       P35
      000000A0H.6 SFRSYM    DATA     BIT       P26
      00000090H.7 SFRSYM    DATA     BIT       P17
      000000F8H.2 SFRSYM    DATA     BIT       P72
      000000E8H.3 SFRSYM    DATA     BIT       P63
      000000C8H.4 SFRSYM    DATA     BIT       P54
      000000C0H.5 SFRSYM    DATA     BIT       P45
      000000B0H.6 SFRSYM    DATA     BIT       P36
      000000A0H.7 SFRSYM    DATA     BIT       P27
      000000F8H.3 SFRSYM    DATA     BIT       P73
      000000E8H.4 SFRSYM    DATA     BIT       P64
      000000C8H.5 SFRSYM    DATA     BIT       P55
      000000C0H.6 SFRSYM    DATA     BIT       P46
      000000B0H.7 SFRSYM    DATA     BIT       P37
      000000F8H.4 SFRSYM    DATA     BIT       P74
      000000E8H.5 SFRSYM    DATA     BIT       P65
      000000C8H.6 SFRSYM    DATA     BIT       P56
      000000C0H.7 SFRSYM    DATA     BIT       P47
      000000F8H.5 SFRSYM    DATA     BIT       P75
      000000E8H.6 SFRSYM    DATA     BIT       P66
      000000C8H.7 SFRSYM    DATA     BIT       P57
      000000F8H.6 SFRSYM    DATA     BIT       P76
      000000E8H.7 SFRSYM    DATA     BIT       P67
      00000088H.1 SFRSYM    DATA     BIT       IE0
      000000A1H   SFRSYM    DATA     BYTE      BUS_SPEED
      000000F8H.7 SFRSYM    DATA     BIT       P77
LX51 LINKER/LOCATER V4.66.93.0                                                        05/08/2020  19:08:08  PAGE 19


      00000088H.3 SFRSYM    DATA     BIT       IE1
      000000AFH   SFRSYM    DATA     BYTE      IE2
      0000008EH   SFRSYM    DATA     BYTE      AUXR
      000000F0H   SFRSYM    DATA     BYTE      B
      000000C7H   SFRSYM    DATA     BYTE      IAP_CONTR
      000000F1H   SFRSYM    DATA     BYTE      PWMCFG
      000000E0H   SFRSYM    DATA     BYTE      ACC
      000000A8H.1 SFRSYM    DATA     BIT       ET0
      00000088H.5 SFRSYM    DATA     BIT       TF0
      000000A8H.3 SFRSYM    DATA     BIT       ET1
      00000088H.7 SFRSYM    DATA     BIT       TF1
      000000B5H   SFRSYM    DATA     BYTE      IP2
      000000FFH   SFRSYM    DATA     BYTE      RSTCFG
      00000098H.2 SFRSYM    DATA     BIT       RB8
      0000008CH   SFRSYM    DATA     BYTE      TH0
      0000008DH   SFRSYM    DATA     BYTE      TH1
      00000088H.0 SFRSYM    DATA     BIT       IT0
      000000A8H.0 SFRSYM    DATA     BIT       EX0
      00000098H.3 SFRSYM    DATA     BIT       TB8
      000000D6H   SFRSYM    DATA     BYTE      TH2
      000000D6H   SFRSYM    DATA     BYTE      T2H
      00000088H.2 SFRSYM    DATA     BIT       IT1
      000000A8H.2 SFRSYM    DATA     BIT       EX1
      000000D4H   SFRSYM    DATA     BYTE      TH3
      000000D4H   SFRSYM    DATA     BYTE      T3H
      000000D0H.0 SFRSYM    DATA     BIT       P
      00000098H.7 SFRSYM    DATA     BIT       SM0
      000000D2H   SFRSYM    DATA     BYTE      TH4
      000000D2H   SFRSYM    DATA     BYTE      T4H
      0000008AH   SFRSYM    DATA     BYTE      TL0
      00000098H.6 SFRSYM    DATA     BIT       SM1
      0000008BH   SFRSYM    DATA     BYTE      TL1
      00000098H.5 SFRSYM    DATA     BIT       SM2
      000000D7H   SFRSYM    DATA     BYTE      TL2
      000000D7H   SFRSYM    DATA     BYTE      T2L
      000000D5H   SFRSYM    DATA     BYTE      TL3
      000000D5H   SFRSYM    DATA     BYTE      T3L
      000000D3H   SFRSYM    DATA     BYTE      TL4
      000000D3H   SFRSYM    DATA     BYTE      T4L
      000000B8H.1 SFRSYM    DATA     BIT       PT0
      000000C7H   SFRSYM    DATA     BYTE      ISP_CONTR
      000000B8H.3 SFRSYM    DATA     BIT       PT1
      000000D0H.3 SFRSYM    DATA     BIT       RS0
      000000C2H   SFRSYM    DATA     BYTE      IAP_DATA
      00000088H.4 SFRSYM    DATA     BIT       TR0
      000000D0H.4 SFRSYM    DATA     BIT       RS1
      00000088H.6 SFRSYM    DATA     BIT       TR1
      000000C1H   SFRSYM    DATA     BYTE      WDT_CONTR
      000000B8H.0 SFRSYM    DATA     BIT       PX0
      000000B8H.2 SFRSYM    DATA     BIT       PX1
      000000F2H   SFRSYM    DATA     BYTE      PCA_PWM0
      000000F3H   SFRSYM    DATA     BYTE      PCA_PWM1
      000000F4H   SFRSYM    DATA     BYTE      PCA_PWM2
      000000BBH   SFRSYM    DATA     BYTE      VOCTRL
      00000083H   SFRSYM    DATA     BYTE      DPH
      000000F5H   SFRSYM    DATA     BYTE      PCA_PWM3
      000000D1H   SFRSYM    DATA     BYTE      T4T3M
      00000080H.7 SFRSYM    DATA     BIT       LED_BLUE
      000000BEH   SFRSYM    DATA     BYTE      ADC_RESL
      00000082H   SFRSYM    DATA     BYTE      DPL
      000000CDH   SFRSYM    DATA     BYTE      SPSTAT
      000000B7H   SFRSYM    DATA     BYTE      IPH
      0000009BH   SFRSYM    DATA     BYTE      S2BUF
      000000ADH   SFRSYM    DATA     BYTE      S3BUF
      00000085H   SFRSYM    DATA     BYTE      S4BUF
LX51 LINKER/LOCATER V4.66.93.0                                                        05/08/2020  19:08:08  PAGE 20


      00000098H.4 SFRSYM    DATA     BIT       REN
      0000009AH   SFRSYM    DATA     BYTE      S2CON
      000000ACH   SFRSYM    DATA     BYTE      S3CON
      000000E3H   SFRSYM    DATA     BYTE      DPS
      000000C2H   SFRSYM    DATA     BYTE      ISP_DATA
      00000084H   SFRSYM    DATA     BYTE      S4CON
      000000EFH   SFRSYM    DATA     BYTE      AUXINTIF
      000000B9H   SFRSYM    DATA     BYTE      SADEN
      000000A9H   SFRSYM    DATA     BYTE      SADDR
      000000C6H   SFRSYM    DATA     BYTE      IAP_TRIG
      00000097H   SFRSYM    DATA     BYTE      AUXR2
      000000D0H.5 SFRSYM    DATA     BIT       F0
      000000D0H   SFRSYM    DATA     BYTE      PSW
      000000D8H.0 SFRSYM    DATA     BIT       CCF0
      000000D8H.1 SFRSYM    DATA     BIT       CCF1
      000000CFH   SFRSYM    DATA     BYTE      SPDAT
      00000094H   SFRSYM    DATA     BYTE      P0M0

      01000003H   BLOCK     CODE     ---       LVL=0
      01000003H   LINE      ---      ---       #3
      01000003H   LINE      ---      ---       #4
      01000003H   LINE      ---      ---       #5
      01000006H   LINE      ---      ---       #6
      01000006H   LINE      ---      ---       #7
      01000006H   LINE      ---      ---       #8
      01000009H   LINE      ---      ---       #9
      ---         BLOCKEND  ---      ---       LVL=0

      ---         MODULE    ---      ---       ISR
      010017B3H   PUBLIC    CODE     ---       UART4_ISR
      01001692H   PUBLIC    CODE     ---       UART2_ISR
      01000017H   PUBLIC    CODE     ---       UART1_ISR
      01001315H   PUBLIC    CODE     ---       TM0_ISR
      000000D8H.2 SFRSYM    DATA     BIT       CCF2
      00000092H   SFRSYM    DATA     BYTE      P1M0
      00000093H   SFRSYM    DATA     BYTE      P0M1
      000000D8H.3 SFRSYM    DATA     BIT       CCF3
      00000096H   SFRSYM    DATA     BYTE      P2M0
      00000091H   SFRSYM    DATA     BYTE      P1M1
      00000080H   SFRSYM    DATA     BYTE      P0
      000000B2H   SFRSYM    DATA     BYTE      P3M0
      00000095H   SFRSYM    DATA     BYTE      P2M1
      00000090H   SFRSYM    DATA     BYTE      P1
      000000B4H   SFRSYM    DATA     BYTE      P4M0
      000000B1H   SFRSYM    DATA     BYTE      P3M1
      000000A0H   SFRSYM    DATA     BYTE      P2
      000000ABH   SFRSYM    DATA     BYTE      WKTCH
      000000CAH   SFRSYM    DATA     BYTE      P5M0
      000000B3H   SFRSYM    DATA     BYTE      P4M1
      000000B0H   SFRSYM    DATA     BYTE      P3
      000000CCH   SFRSYM    DATA     BYTE      P6M0
      000000C9H   SFRSYM    DATA     BYTE      P5M1
      000000C0H   SFRSYM    DATA     BYTE      P4
      000000D0H.6 SFRSYM    DATA     BIT       AC
      000000F6H   SFRSYM    DATA     BYTE      PWMIF
      000000C6H   SFRSYM    DATA     BYTE      ISP_TRIG
      000000E2H   SFRSYM    DATA     BYTE      P7M0
      000000CBH   SFRSYM    DATA     BYTE      P6M1
      000000C8H   SFRSYM    DATA     BYTE      P5
      000000A8H.7 SFRSYM    DATA     BIT       EA
      000000E1H   SFRSYM    DATA     BYTE      P7M1
      000000E8H   SFRSYM    DATA     BYTE      P6
      000000C0H.2 SFRSYM    DATA     BIT       LED1
      000000AAH   SFRSYM    DATA     BYTE      WKTCL
      000000F8H   SFRSYM    DATA     BYTE      P7
LX51 LINKER/LOCATER V4.66.93.0                                                        05/08/2020  19:08:08  PAGE 21


      000000C0H.3 SFRSYM    DATA     BIT       LED2
      000000CEH   SFRSYM    DATA     BYTE      SPCTL
      000000C0H.4 SFRSYM    DATA     BIT       LED3
      000000D8H.7 SFRSYM    DATA     BIT       CF
      000000FEH   SFRSYM    DATA     BYTE      PWMCR
      000000F9H   SFRSYM    DATA     BYTE      CH
      000000A2H   SFRSYM    DATA     BYTE      P_SW1
      000000BAH   SFRSYM    DATA     BYTE      P_SW2
      000000A8H.5 SFRSYM    DATA     BIT       EADC
      000000A8H   SFRSYM    DATA     BYTE      IE
      000000E5H   SFRSYM    DATA     BYTE      DPH1
      000000E9H   SFRSYM    DATA     BYTE      CL
      000000C5H   SFRSYM    DATA     BYTE      IAP_CMD
      000000FAH   SFRSYM    DATA     BYTE      CCAP0H
      000000B0H.2 SFRSYM    DATA     BIT       LCD1602_EN
      00000090H.0 SFRSYM    DATA     BIT       LED_RED
      000000FBH   SFRSYM    DATA     BYTE      CCAP1H
      000000E4H   SFRSYM    DATA     BYTE      DPL1
      000000FCH   SFRSYM    DATA     BYTE      CCAP2H
      000000FDH   SFRSYM    DATA     BYTE      CCAP3H
      000000BDH   SFRSYM    DATA     BYTE      ADC_RES
      000000B6H   SFRSYM    DATA     BYTE      IP2H
      000000EAH   SFRSYM    DATA     BYTE      CCAP0L
      000000D8H.6 SFRSYM    DATA     BIT       CR
      000000AEH   SFRSYM    DATA     BYTE      TA
      000000F7H   SFRSYM    DATA     BYTE      PWMFDCR
      000000EBH   SFRSYM    DATA     BYTE      CCAP1L
      000000DAH   SFRSYM    DATA     BYTE      CCAPM0
      000000ECH   SFRSYM    DATA     BYTE      CCAP2L
      000000DBH   SFRSYM    DATA     BYTE      CCAPM1
      0000008FH   SFRSYM    DATA     BYTE      INTCLKO
      000000EDH   SFRSYM    DATA     BYTE      CCAP3L
      000000DCH   SFRSYM    DATA     BYTE      CCAPM2
      000000A8H.4 SFRSYM    DATA     BIT       ES
      000000DDH   SFRSYM    DATA     BYTE      CCAPM3
      000000B8H.5 SFRSYM    DATA     BIT       PADC
      000000B8H   SFRSYM    DATA     BYTE      IP
      000000DEH   SFRSYM    DATA     BYTE      ADCCFG
      00000098H.0 SFRSYM    DATA     BIT       RI
      000000D0H.7 SFRSYM    DATA     BIT       CY
      00000098H.1 SFRSYM    DATA     BIT       TI
      000000C3H   SFRSYM    DATA     BYTE      IAP_ADDRH
      000000C0H.1 SFRSYM    DATA     BIT       DS18B20_DATA
      000000C5H   SFRSYM    DATA     BYTE      ISP_CMD
      000000B8H.4 SFRSYM    DATA     BIT       PS
      00000081H   SFRSYM    DATA     BYTE      SP
      000000A0H.7 SFRSYM    DATA     BIT       LCD1602_Busy
      000000B0H.5 SFRSYM    DATA     BIT       LCD1602_RS
      000000D9H   SFRSYM    DATA     BYTE      CMOD
      000000D8H   SFRSYM    DATA     BYTE      CCON
      000000C4H   SFRSYM    DATA     BYTE      IAP_ADDRL
      000000B8H.7 SFRSYM    DATA     BIT       PPCA
      000000D0H.2 SFRSYM    DATA     BIT       OV
      000000B0H.4 SFRSYM    DATA     BIT       LCD1602_RW
      000000E6H   SFRSYM    DATA     BYTE      CMPCR1
      00000090H.1 SFRSYM    DATA     BIT       LED_GREEN
      000000E7H   SFRSYM    DATA     BYTE      CMPCR2
      000000A8H.6 SFRSYM    DATA     BIT       ELVD
      00000080H.0 SFRSYM    DATA     BIT       P00
      000000BCH   SFRSYM    DATA     BYTE      ADC_CONTR
      00000099H   SFRSYM    DATA     BYTE      SBUF
      00000087H   SFRSYM    DATA     BYTE      PCON
      00000090H.0 SFRSYM    DATA     BIT       P10
      00000080H.1 SFRSYM    DATA     BIT       P01
      000000C3H   SFRSYM    DATA     BYTE      ISP_ADDRH
LX51 LINKER/LOCATER V4.66.93.0                                                        05/08/2020  19:08:08  PAGE 22


      000000A0H.0 SFRSYM    DATA     BIT       P20
      00000090H.1 SFRSYM    DATA     BIT       P11
      00000080H.2 SFRSYM    DATA     BIT       P02
      000000B0H.0 SFRSYM    DATA     BIT       P30
      000000A0H.1 SFRSYM    DATA     BIT       P21
      00000090H.2 SFRSYM    DATA     BIT       P12
      00000080H.3 SFRSYM    DATA     BIT       P03
      00000098H   SFRSYM    DATA     BYTE      SCON
      000000C0H.0 SFRSYM    DATA     BIT       P40
      000000B0H.1 SFRSYM    DATA     BIT       P31
      000000A0H.2 SFRSYM    DATA     BIT       P22
      00000090H.3 SFRSYM    DATA     BIT       P13
      00000080H.4 SFRSYM    DATA     BIT       P04
      00000089H   SFRSYM    DATA     BYTE      TMOD
      00000088H   SFRSYM    DATA     BYTE      TCON
      000000C8H.0 SFRSYM    DATA     BIT       P50
      000000C0H.1 SFRSYM    DATA     BIT       P41
      000000B0H.2 SFRSYM    DATA     BIT       P32
      000000A0H.3 SFRSYM    DATA     BIT       P23
      00000090H.4 SFRSYM    DATA     BIT       P14
      00000080H.5 SFRSYM    DATA     BIT       P05
      000000C4H   SFRSYM    DATA     BYTE      ISP_ADDRL
      000000E8H.0 SFRSYM    DATA     BIT       P60
      000000C8H.1 SFRSYM    DATA     BIT       P51
      000000C0H.2 SFRSYM    DATA     BIT       P42
      000000B0H.3 SFRSYM    DATA     BIT       P33
      000000A0H.4 SFRSYM    DATA     BIT       P24
      00000090H.5 SFRSYM    DATA     BIT       P15
      00000080H.6 SFRSYM    DATA     BIT       P06
      000000B8H.6 SFRSYM    DATA     BIT       PLVD
      000000F8H.0 SFRSYM    DATA     BIT       P70
      000000E8H.1 SFRSYM    DATA     BIT       P61
      000000C8H.2 SFRSYM    DATA     BIT       P52
      000000C0H.3 SFRSYM    DATA     BIT       P43
      000000B0H.4 SFRSYM    DATA     BIT       P34
      000000A0H.5 SFRSYM    DATA     BIT       P25
      00000090H.6 SFRSYM    DATA     BIT       P16
      00000080H.7 SFRSYM    DATA     BIT       P07
      000000F8H.1 SFRSYM    DATA     BIT       P71
      000000E8H.2 SFRSYM    DATA     BIT       P62
      000000C8H.3 SFRSYM    DATA     BIT       P53
      000000C0H.4 SFRSYM    DATA     BIT       P44
      000000B0H.5 SFRSYM    DATA     BIT       P35
      000000A0H.6 SFRSYM    DATA     BIT       P26
      00000090H.7 SFRSYM    DATA     BIT       P17
      000000F8H.2 SFRSYM    DATA     BIT       P72
      000000E8H.3 SFRSYM    DATA     BIT       P63
      000000C8H.4 SFRSYM    DATA     BIT       P54
      000000C0H.5 SFRSYM    DATA     BIT       P45
      000000B0H.6 SFRSYM    DATA     BIT       P36
      000000A0H.7 SFRSYM    DATA     BIT       P27
      000000F8H.3 SFRSYM    DATA     BIT       P73
      000000E8H.4 SFRSYM    DATA     BIT       P64
      000000C8H.5 SFRSYM    DATA     BIT       P55
      000000C0H.6 SFRSYM    DATA     BIT       P46
      000000B0H.7 SFRSYM    DATA     BIT       P37
      000000F8H.4 SFRSYM    DATA     BIT       P74
      000000E8H.5 SFRSYM    DATA     BIT       P65
      000000C8H.6 SFRSYM    DATA     BIT       P56
      000000C0H.7 SFRSYM    DATA     BIT       P47
      000000F8H.5 SFRSYM    DATA     BIT       P75
      000000E8H.6 SFRSYM    DATA     BIT       P66
      000000C8H.7 SFRSYM    DATA     BIT       P57
      000000F8H.6 SFRSYM    DATA     BIT       P76
      000000E8H.7 SFRSYM    DATA     BIT       P67
LX51 LINKER/LOCATER V4.66.93.0                                                        05/08/2020  19:08:08  PAGE 23


      00000088H.1 SFRSYM    DATA     BIT       IE0
      000000A1H   SFRSYM    DATA     BYTE      BUS_SPEED
      000000F8H.7 SFRSYM    DATA     BIT       P77
      00000088H.3 SFRSYM    DATA     BIT       IE1
      000000AFH   SFRSYM    DATA     BYTE      IE2
      0000008EH   SFRSYM    DATA     BYTE      AUXR
      000000F0H   SFRSYM    DATA     BYTE      B
      000000C7H   SFRSYM    DATA     BYTE      IAP_CONTR
      000000F1H   SFRSYM    DATA     BYTE      PWMCFG
      000000E0H   SFRSYM    DATA     BYTE      ACC
      000000A8H.1 SFRSYM    DATA     BIT       ET0
      00000088H.5 SFRSYM    DATA     BIT       TF0
      000000A8H.3 SFRSYM    DATA     BIT       ET1
      00000088H.7 SFRSYM    DATA     BIT       TF1
      000000B5H   SFRSYM    DATA     BYTE      IP2
      000000FFH   SFRSYM    DATA     BYTE      RSTCFG
      00000098H.2 SFRSYM    DATA     BIT       RB8
      0000008CH   SFRSYM    DATA     BYTE      TH0
      0000008DH   SFRSYM    DATA     BYTE      TH1
      00000088H.0 SFRSYM    DATA     BIT       IT0
      000000A8H.0 SFRSYM    DATA     BIT       EX0
      00000098H.3 SFRSYM    DATA     BIT       TB8
      000000D6H   SFRSYM    DATA     BYTE      TH2
      000000D6H   SFRSYM    DATA     BYTE      T2H
      00000088H.2 SFRSYM    DATA     BIT       IT1
      000000A8H.2 SFRSYM    DATA     BIT       EX1
      000000D4H   SFRSYM    DATA     BYTE      TH3
      000000D4H   SFRSYM    DATA     BYTE      T3H
      000000D0H.0 SFRSYM    DATA     BIT       P
      00000098H.7 SFRSYM    DATA     BIT       SM0
      000000D2H   SFRSYM    DATA     BYTE      TH4
      000000D2H   SFRSYM    DATA     BYTE      T4H
      0000008AH   SFRSYM    DATA     BYTE      TL0
      00000098H.6 SFRSYM    DATA     BIT       SM1
      0000008BH   SFRSYM    DATA     BYTE      TL1
      00000098H.5 SFRSYM    DATA     BIT       SM2
      000000D7H   SFRSYM    DATA     BYTE      TL2
      000000D7H   SFRSYM    DATA     BYTE      T2L
      000000D5H   SFRSYM    DATA     BYTE      TL3
      000000D5H   SFRSYM    DATA     BYTE      T3L
      000000D3H   SFRSYM    DATA     BYTE      TL4
      000000D3H   SFRSYM    DATA     BYTE      T4L
      000000B8H.1 SFRSYM    DATA     BIT       PT0
      000000C7H   SFRSYM    DATA     BYTE      ISP_CONTR
      000000B8H.3 SFRSYM    DATA     BIT       PT1
      000000D0H.3 SFRSYM    DATA     BIT       RS0
      000000C2H   SFRSYM    DATA     BYTE      IAP_DATA
      00000088H.4 SFRSYM    DATA     BIT       TR0
      000000D0H.4 SFRSYM    DATA     BIT       RS1
      00000088H.6 SFRSYM    DATA     BIT       TR1
      000000C1H   SFRSYM    DATA     BYTE      WDT_CONTR
      000000B8H.0 SFRSYM    DATA     BIT       PX0
      000000B8H.2 SFRSYM    DATA     BIT       PX1
      000000F2H   SFRSYM    DATA     BYTE      PCA_PWM0
      000000F3H   SFRSYM    DATA     BYTE      PCA_PWM1
      000000F4H   SFRSYM    DATA     BYTE      PCA_PWM2
      000000BBH   SFRSYM    DATA     BYTE      VOCTRL
      00000083H   SFRSYM    DATA     BYTE      DPH
      000000F5H   SFRSYM    DATA     BYTE      PCA_PWM3
      000000D1H   SFRSYM    DATA     BYTE      T4T3M
      00000080H.7 SFRSYM    DATA     BIT       LED_BLUE
      000000BEH   SFRSYM    DATA     BYTE      ADC_RESL
      00000082H   SFRSYM    DATA     BYTE      DPL
      000000CDH   SFRSYM    DATA     BYTE      SPSTAT
      000000B7H   SFRSYM    DATA     BYTE      IPH
LX51 LINKER/LOCATER V4.66.93.0                                                        05/08/2020  19:08:08  PAGE 24


      0000009BH   SFRSYM    DATA     BYTE      S2BUF
      000000ADH   SFRSYM    DATA     BYTE      S3BUF
      00000085H   SFRSYM    DATA     BYTE      S4BUF
      00000098H.4 SFRSYM    DATA     BIT       REN
      0000009AH   SFRSYM    DATA     BYTE      S2CON
      000000ACH   SFRSYM    DATA     BYTE      S3CON
      000000E3H   SFRSYM    DATA     BYTE      DPS
      000000C2H   SFRSYM    DATA     BYTE      ISP_DATA
      00000084H   SFRSYM    DATA     BYTE      S4CON
      000000EFH   SFRSYM    DATA     BYTE      AUXINTIF
      000000B9H   SFRSYM    DATA     BYTE      SADEN
      000000A9H   SFRSYM    DATA     BYTE      SADDR
      000000C6H   SFRSYM    DATA     BYTE      IAP_TRIG
      00000097H   SFRSYM    DATA     BYTE      AUXR2
      000000D0H.5 SFRSYM    DATA     BIT       F0
      000000D0H   SFRSYM    DATA     BYTE      PSW
      000000D8H.0 SFRSYM    DATA     BIT       CCF0
      000000D8H.1 SFRSYM    DATA     BIT       CCF1
      000000CFH   SFRSYM    DATA     BYTE      SPDAT
      00000094H   SFRSYM    DATA     BYTE      P0M0

      01001315H   BLOCK     CODE     ---       LVL=0
      01001333H   LINE      ---      ---       #12
      01001333H   LINE      ---      ---       #14
      01001347H   LINE      ---      ---       #15
      ---         BLOCKEND  ---      ---       LVL=0

      01000017H   BLOCK     CODE     ---       LVL=0
      01000017H   LINE      ---      ---       #28
      01000017H   LINE      ---      ---       #30
      0100001AH   LINE      ---      ---       #31
      0100001EH   LINE      ---      ---       #32
      ---         BLOCKEND  ---      ---       LVL=0

      01001692H   BLOCK     CODE     ---       LVL=0
      010016A8H   LINE      ---      ---       #50
      010016A8H   LINE      ---      ---       #52
      010016ADH   LINE      ---      ---       #53
      010016ADH   BLOCK     CODE     NEAR LAB  LVL=1
      010016ADH   LINE      ---      ---       #54
      010016AFH   LINE      ---      ---       #55
      010016B2H   LINE      ---      ---       #56
      010016BBH   LINE      ---      ---       #57
      010016BBH   LINE      ---      ---       #58
      010016C1H   LINE      ---      ---       #59
      010016C3H   LINE      ---      ---       #60
      010016C5H   LINE      ---      ---       #61
      010016CDH   LINE      ---      ---       #62
      010016D1H   LINE      ---      ---       #64
      010016D3H   LINE      ---      ---       #65
      010016D6H   LINE      ---      ---       #66
      010016D6H   LINE      ---      ---       #67
      010016DAH   LINE      ---      ---       #69
      010016DAH   LINE      ---      ---       #70
      010016E9H   LINE      ---      ---       #71
      010016F2H   LINE      ---      ---       #72
      010016FAH   LINE      ---      ---       #74
      01001702H   LINE      ---      ---       #75
      00000020H.0 SYMBOL    BIT      BIT       isFull
      ---         BLOCKEND  CODE     ---       LVL=1
      01001704H   LINE      ---      ---       #77
      01001709H   LINE      ---      ---       #78
      01001709H   LINE      CODE     ---       #78

      010017B3H   BLOCK     CODE     ---       LVL=0
LX51 LINKER/LOCATER V4.66.93.0                                                        05/08/2020  19:08:08  PAGE 25


      010017CBH   LINE      ---      ---       #111
      010017CBH   LINE      ---      ---       #113
      010017D0H   LINE      ---      ---       #114
      010017D0H   BLOCK     CODE     NEAR LAB  LVL=1
      010017D0H   LINE      ---      ---       #115
      010017D2H   LINE      ---      ---       #116
      010017D5H   LINE      ---      ---       #117
      010017DAH   LINE      ---      ---       #118
      010017DAH   LINE      ---      ---       #119
      010017DEH   LINE      ---      ---       #120
      010017E0H   LINE      ---      ---       #121
      010017E2H   LINE      ---      ---       #122
      010017ECH   LINE      ---      ---       #123
      010017F0H   LINE      ---      ---       #125
      010017F2H   LINE      ---      ---       #126
      010017F5H   LINE      ---      ---       #127
      010017F5H   LINE      ---      ---       #128
      010017F9H   LINE      ---      ---       #130
      010017F9H   LINE      ---      ---       #131
      01001807H   LINE      ---      ---       #132
      0100180BH   LINE      ---      ---       #133
      0100180FH   LINE      ---      ---       #135
      01001811H   LINE      ---      ---       #136
      00000020H.1 SYMBOL    BIT      BIT       isFull
      ---         BLOCKEND  CODE     ---       LVL=1
      01001813H   LINE      ---      ---       #138
      01001818H   LINE      ---      ---       #139
      01001818H   LINE      CODE     ---       #139

      ---         MODULE    ---      ---       UART
      02000895H   PUBLIC    XDATA    ---       uart4Buffer
      0200063DH   PUBLIC    XDATA    ---       uart2Buffer
      0000000DH   PUBLIC    DATA     BYTE      uart4Idx2
      0000000CH   PUBLIC    DATA     BYTE      uart4Idx1
      0000000AH   PUBLIC    DATA     WORD      uart2Idx2
      00000008H   PUBLIC    DATA     WORD      uart2Idx1
      00000021H.5 PUBLIC    BIT      BIT       uart4Busy
      00000021H.4 PUBLIC    BIT      BIT       uart2Busy
      00000021H.3 PUBLIC    BIT      BIT       uart1Busy
      01002609H   PUBLIC    CODE     ---       _uart4_send8
      01002013H   PUBLIC    CODE     ---       _uart2_sendstr8
      01002008H   PUBLIC    CODE     ---       _uart2_send8
      000000D8H.2 SFRSYM    DATA     BIT       CCF2
      00000092H   SFRSYM    DATA     BYTE      P1M0
      00000093H   SFRSYM    DATA     BYTE      P0M1
      000000D8H.3 SFRSYM    DATA     BIT       CCF3
      00000096H   SFRSYM    DATA     BYTE      P2M0
      00000091H   SFRSYM    DATA     BYTE      P1M1
      00000080H   SFRSYM    DATA     BYTE      P0
      000000B2H   SFRSYM    DATA     BYTE      P3M0
      00000095H   SFRSYM    DATA     BYTE      P2M1
      00000090H   SFRSYM    DATA     BYTE      P1
      000000B4H   SFRSYM    DATA     BYTE      P4M0
      000000B1H   SFRSYM    DATA     BYTE      P3M1
      000000A0H   SFRSYM    DATA     BYTE      P2
      000000ABH   SFRSYM    DATA     BYTE      WKTCH
      000000CAH   SFRSYM    DATA     BYTE      P5M0
      000000B3H   SFRSYM    DATA     BYTE      P4M1
      000000B0H   SFRSYM    DATA     BYTE      P3
      000000CCH   SFRSYM    DATA     BYTE      P6M0
      000000C9H   SFRSYM    DATA     BYTE      P5M1
      000000C0H   SFRSYM    DATA     BYTE      P4
      000000D0H.6 SFRSYM    DATA     BIT       AC
      000000F6H   SFRSYM    DATA     BYTE      PWMIF
      000000C6H   SFRSYM    DATA     BYTE      ISP_TRIG
LX51 LINKER/LOCATER V4.66.93.0                                                        05/08/2020  19:08:08  PAGE 26


      000000E2H   SFRSYM    DATA     BYTE      P7M0
      000000CBH   SFRSYM    DATA     BYTE      P6M1
      000000C8H   SFRSYM    DATA     BYTE      P5
      000000A8H.7 SFRSYM    DATA     BIT       EA
      000000E1H   SFRSYM    DATA     BYTE      P7M1
      000000E8H   SFRSYM    DATA     BYTE      P6
      000000C0H.2 SFRSYM    DATA     BIT       LED1
      000000AAH   SFRSYM    DATA     BYTE      WKTCL
      000000F8H   SFRSYM    DATA     BYTE      P7
      000000C0H.3 SFRSYM    DATA     BIT       LED2
      000000CEH   SFRSYM    DATA     BYTE      SPCTL
      000000C0H.4 SFRSYM    DATA     BIT       LED3
      000000D8H.7 SFRSYM    DATA     BIT       CF
      000000FEH   SFRSYM    DATA     BYTE      PWMCR
      000000F9H   SFRSYM    DATA     BYTE      CH
      000000A2H   SFRSYM    DATA     BYTE      P_SW1
      000000BAH   SFRSYM    DATA     BYTE      P_SW2
      000000A8H.5 SFRSYM    DATA     BIT       EADC
      000000A8H   SFRSYM    DATA     BYTE      IE
      000000E5H   SFRSYM    DATA     BYTE      DPH1
      000000E9H   SFRSYM    DATA     BYTE      CL
      000000C5H   SFRSYM    DATA     BYTE      IAP_CMD
      000000FAH   SFRSYM    DATA     BYTE      CCAP0H
      000000B0H.2 SFRSYM    DATA     BIT       LCD1602_EN
      00000090H.0 SFRSYM    DATA     BIT       LED_RED
      000000FBH   SFRSYM    DATA     BYTE      CCAP1H
      000000E4H   SFRSYM    DATA     BYTE      DPL1
      000000FCH   SFRSYM    DATA     BYTE      CCAP2H
      000000FDH   SFRSYM    DATA     BYTE      CCAP3H
      000000BDH   SFRSYM    DATA     BYTE      ADC_RES
      000000B6H   SFRSYM    DATA     BYTE      IP2H
      000000EAH   SFRSYM    DATA     BYTE      CCAP0L
      000000D8H.6 SFRSYM    DATA     BIT       CR
      000000AEH   SFRSYM    DATA     BYTE      TA
      000000F7H   SFRSYM    DATA     BYTE      PWMFDCR
      000000EBH   SFRSYM    DATA     BYTE      CCAP1L
      000000DAH   SFRSYM    DATA     BYTE      CCAPM0
      000000ECH   SFRSYM    DATA     BYTE      CCAP2L
      000000DBH   SFRSYM    DATA     BYTE      CCAPM1
      0000008FH   SFRSYM    DATA     BYTE      INTCLKO
      000000EDH   SFRSYM    DATA     BYTE      CCAP3L
      000000DCH   SFRSYM    DATA     BYTE      CCAPM2
      000000A8H.4 SFRSYM    DATA     BIT       ES
      000000DDH   SFRSYM    DATA     BYTE      CCAPM3
      000000B8H.5 SFRSYM    DATA     BIT       PADC
      000000B8H   SFRSYM    DATA     BYTE      IP
      000000DEH   SFRSYM    DATA     BYTE      ADCCFG
      00000098H.0 SFRSYM    DATA     BIT       RI
      000000D0H.7 SFRSYM    DATA     BIT       CY
      00000098H.1 SFRSYM    DATA     BIT       TI
      000000C3H   SFRSYM    DATA     BYTE      IAP_ADDRH
      000000C0H.1 SFRSYM    DATA     BIT       DS18B20_DATA
      000000C5H   SFRSYM    DATA     BYTE      ISP_CMD
      000000B8H.4 SFRSYM    DATA     BIT       PS
      00000081H   SFRSYM    DATA     BYTE      SP
      000000A0H.7 SFRSYM    DATA     BIT       LCD1602_Busy
      000000B0H.5 SFRSYM    DATA     BIT       LCD1602_RS
      000000D9H   SFRSYM    DATA     BYTE      CMOD
      000000D8H   SFRSYM    DATA     BYTE      CCON
      000000C4H   SFRSYM    DATA     BYTE      IAP_ADDRL
      000000B8H.7 SFRSYM    DATA     BIT       PPCA
      000000D0H.2 SFRSYM    DATA     BIT       OV
      000000B0H.4 SFRSYM    DATA     BIT       LCD1602_RW
      000000E6H   SFRSYM    DATA     BYTE      CMPCR1
      00000090H.1 SFRSYM    DATA     BIT       LED_GREEN
LX51 LINKER/LOCATER V4.66.93.0                                                        05/08/2020  19:08:08  PAGE 27


      000000E7H   SFRSYM    DATA     BYTE      CMPCR2
      000000A8H.6 SFRSYM    DATA     BIT       ELVD
      00000080H.0 SFRSYM    DATA     BIT       P00
      000000BCH   SFRSYM    DATA     BYTE      ADC_CONTR
      00000099H   SFRSYM    DATA     BYTE      SBUF
      00000087H   SFRSYM    DATA     BYTE      PCON
      00000090H.0 SFRSYM    DATA     BIT       P10
      00000080H.1 SFRSYM    DATA     BIT       P01
      000000C3H   SFRSYM    DATA     BYTE      ISP_ADDRH
      000000A0H.0 SFRSYM    DATA     BIT       P20
      00000090H.1 SFRSYM    DATA     BIT       P11
      00000080H.2 SFRSYM    DATA     BIT       P02
      000000B0H.0 SFRSYM    DATA     BIT       P30
      000000A0H.1 SFRSYM    DATA     BIT       P21
      00000090H.2 SFRSYM    DATA     BIT       P12
      00000080H.3 SFRSYM    DATA     BIT       P03
      00000098H   SFRSYM    DATA     BYTE      SCON
      000000C0H.0 SFRSYM    DATA     BIT       P40
      000000B0H.1 SFRSYM    DATA     BIT       P31
      000000A0H.2 SFRSYM    DATA     BIT       P22
      00000090H.3 SFRSYM    DATA     BIT       P13
      00000080H.4 SFRSYM    DATA     BIT       P04
      00000089H   SFRSYM    DATA     BYTE      TMOD
      00000088H   SFRSYM    DATA     BYTE      TCON
      000000C8H.0 SFRSYM    DATA     BIT       P50
      000000C0H.1 SFRSYM    DATA     BIT       P41
      000000B0H.2 SFRSYM    DATA     BIT       P32
      000000A0H.3 SFRSYM    DATA     BIT       P23
      00000090H.4 SFRSYM    DATA     BIT       P14
      00000080H.5 SFRSYM    DATA     BIT       P05
      000000C4H   SFRSYM    DATA     BYTE      ISP_ADDRL
      000000E8H.0 SFRSYM    DATA     BIT       P60
      000000C8H.1 SFRSYM    DATA     BIT       P51
      000000C0H.2 SFRSYM    DATA     BIT       P42
      000000B0H.3 SFRSYM    DATA     BIT       P33
      000000A0H.4 SFRSYM    DATA     BIT       P24
      00000090H.5 SFRSYM    DATA     BIT       P15
      00000080H.6 SFRSYM    DATA     BIT       P06
      000000B8H.6 SFRSYM    DATA     BIT       PLVD
      000000F8H.0 SFRSYM    DATA     BIT       P70
      000000E8H.1 SFRSYM    DATA     BIT       P61
      000000C8H.2 SFRSYM    DATA     BIT       P52
      000000C0H.3 SFRSYM    DATA     BIT       P43
      000000B0H.4 SFRSYM    DATA     BIT       P34
      000000A0H.5 SFRSYM    DATA     BIT       P25
      00000090H.6 SFRSYM    DATA     BIT       P16
      00000080H.7 SFRSYM    DATA     BIT       P07
      000000F8H.1 SFRSYM    DATA     BIT       P71
      000000E8H.2 SFRSYM    DATA     BIT       P62
      000000C8H.3 SFRSYM    DATA     BIT       P53
      000000C0H.4 SFRSYM    DATA     BIT       P44
      000000B0H.5 SFRSYM    DATA     BIT       P35
      000000A0H.6 SFRSYM    DATA     BIT       P26
      00000090H.7 SFRSYM    DATA     BIT       P17
      000000F8H.2 SFRSYM    DATA     BIT       P72
      000000E8H.3 SFRSYM    DATA     BIT       P63
      000000C8H.4 SFRSYM    DATA     BIT       P54
      000000C0H.5 SFRSYM    DATA     BIT       P45
      000000B0H.6 SFRSYM    DATA     BIT       P36
      000000A0H.7 SFRSYM    DATA     BIT       P27
      000000F8H.3 SFRSYM    DATA     BIT       P73
      000000E8H.4 SFRSYM    DATA     BIT       P64
      000000C8H.5 SFRSYM    DATA     BIT       P55
      000000C0H.6 SFRSYM    DATA     BIT       P46
      000000B0H.7 SFRSYM    DATA     BIT       P37
LX51 LINKER/LOCATER V4.66.93.0                                                        05/08/2020  19:08:08  PAGE 28


      000000F8H.4 SFRSYM    DATA     BIT       P74
      000000E8H.5 SFRSYM    DATA     BIT       P65
      000000C8H.6 SFRSYM    DATA     BIT       P56
      000000C0H.7 SFRSYM    DATA     BIT       P47
      000000F8H.5 SFRSYM    DATA     BIT       P75
      000000E8H.6 SFRSYM    DATA     BIT       P66
      000000C8H.7 SFRSYM    DATA     BIT       P57
      000000F8H.6 SFRSYM    DATA     BIT       P76
      000000E8H.7 SFRSYM    DATA     BIT       P67
      00000088H.1 SFRSYM    DATA     BIT       IE0
      000000A1H   SFRSYM    DATA     BYTE      BUS_SPEED
      000000F8H.7 SFRSYM    DATA     BIT       P77
      00000088H.3 SFRSYM    DATA     BIT       IE1
      000000AFH   SFRSYM    DATA     BYTE      IE2
      0000008EH   SFRSYM    DATA     BYTE      AUXR
      000000F0H   SFRSYM    DATA     BYTE      B
      000000C7H   SFRSYM    DATA     BYTE      IAP_CONTR
      000000F1H   SFRSYM    DATA     BYTE      PWMCFG
      000000E0H   SFRSYM    DATA     BYTE      ACC
      000000A8H.1 SFRSYM    DATA     BIT       ET0
      00000088H.5 SFRSYM    DATA     BIT       TF0
      000000A8H.3 SFRSYM    DATA     BIT       ET1
      00000088H.7 SFRSYM    DATA     BIT       TF1
      000000B5H   SFRSYM    DATA     BYTE      IP2
      000000FFH   SFRSYM    DATA     BYTE      RSTCFG
      00000098H.2 SFRSYM    DATA     BIT       RB8
      0000008CH   SFRSYM    DATA     BYTE      TH0
      0000008DH   SFRSYM    DATA     BYTE      TH1
      00000088H.0 SFRSYM    DATA     BIT       IT0
      000000A8H.0 SFRSYM    DATA     BIT       EX0
      00000098H.3 SFRSYM    DATA     BIT       TB8
      000000D6H   SFRSYM    DATA     BYTE      TH2
      000000D6H   SFRSYM    DATA     BYTE      T2H
      00000088H.2 SFRSYM    DATA     BIT       IT1
      000000A8H.2 SFRSYM    DATA     BIT       EX1
      000000D4H   SFRSYM    DATA     BYTE      TH3
      000000D4H   SFRSYM    DATA     BYTE      T3H
      000000D0H.0 SFRSYM    DATA     BIT       P
      00000098H.7 SFRSYM    DATA     BIT       SM0
      000000D2H   SFRSYM    DATA     BYTE      TH4
      000000D2H   SFRSYM    DATA     BYTE      T4H
      0000008AH   SFRSYM    DATA     BYTE      TL0
      00000098H.6 SFRSYM    DATA     BIT       SM1
      0000008BH   SFRSYM    DATA     BYTE      TL1
      00000098H.5 SFRSYM    DATA     BIT       SM2
      000000D7H   SFRSYM    DATA     BYTE      TL2
      000000D7H   SFRSYM    DATA     BYTE      T2L
      000000D5H   SFRSYM    DATA     BYTE      TL3
      000000D5H   SFRSYM    DATA     BYTE      T3L
      000000D3H   SFRSYM    DATA     BYTE      TL4
      000000D3H   SFRSYM    DATA     BYTE      T4L
      000000B8H.1 SFRSYM    DATA     BIT       PT0
      000000C7H   SFRSYM    DATA     BYTE      ISP_CONTR
      000000B8H.3 SFRSYM    DATA     BIT       PT1
      000000D0H.3 SFRSYM    DATA     BIT       RS0
      000000C2H   SFRSYM    DATA     BYTE      IAP_DATA
      00000088H.4 SFRSYM    DATA     BIT       TR0
      000000D0H.4 SFRSYM    DATA     BIT       RS1
      00000088H.6 SFRSYM    DATA     BIT       TR1
      000000C1H   SFRSYM    DATA     BYTE      WDT_CONTR
      000000B8H.0 SFRSYM    DATA     BIT       PX0
      000000B8H.2 SFRSYM    DATA     BIT       PX1
      000000F2H   SFRSYM    DATA     BYTE      PCA_PWM0
      000000F3H   SFRSYM    DATA     BYTE      PCA_PWM1
      000000F4H   SFRSYM    DATA     BYTE      PCA_PWM2
LX51 LINKER/LOCATER V4.66.93.0                                                        05/08/2020  19:08:08  PAGE 29


      000000BBH   SFRSYM    DATA     BYTE      VOCTRL
      00000083H   SFRSYM    DATA     BYTE      DPH
      000000F5H   SFRSYM    DATA     BYTE      PCA_PWM3
      000000D1H   SFRSYM    DATA     BYTE      T4T3M
      00000080H.7 SFRSYM    DATA     BIT       LED_BLUE
      000000BEH   SFRSYM    DATA     BYTE      ADC_RESL
      00000082H   SFRSYM    DATA     BYTE      DPL
      000000CDH   SFRSYM    DATA     BYTE      SPSTAT
      000000B7H   SFRSYM    DATA     BYTE      IPH
      0000009BH   SFRSYM    DATA     BYTE      S2BUF
      000000ADH   SFRSYM    DATA     BYTE      S3BUF
      00000085H   SFRSYM    DATA     BYTE      S4BUF
      00000098H.4 SFRSYM    DATA     BIT       REN
      0000009AH   SFRSYM    DATA     BYTE      S2CON
      000000ACH   SFRSYM    DATA     BYTE      S3CON
      000000E3H   SFRSYM    DATA     BYTE      DPS
      000000C2H   SFRSYM    DATA     BYTE      ISP_DATA
      00000084H   SFRSYM    DATA     BYTE      S4CON
      000000EFH   SFRSYM    DATA     BYTE      AUXINTIF
      000000B9H   SFRSYM    DATA     BYTE      SADEN
      000000A9H   SFRSYM    DATA     BYTE      SADDR
      000000C6H   SFRSYM    DATA     BYTE      IAP_TRIG
      00000097H   SFRSYM    DATA     BYTE      AUXR2
      000000D0H.5 SFRSYM    DATA     BIT       F0
      000000D0H   SFRSYM    DATA     BYTE      PSW
      000000D8H.0 SFRSYM    DATA     BIT       CCF0
      000000D8H.1 SFRSYM    DATA     BIT       CCF1
      000000CFH   SFRSYM    DATA     BYTE      SPDAT
      00000094H   SFRSYM    DATA     BYTE      P0M0

      01002008H   BLOCK     CODE     ---       LVL=0
      01002008H   LINE      ---      ---       #29
      01002008H   LINE      ---      ---       #30
      01002008H   LINE      ---      ---       #31
      0100200BH   LINE      ---      ---       #32
      0100200BH   LINE      ---      ---       #33
      0100200DH   LINE      ---      ---       #34
      0100200FH   LINE      ---      ---       #35
      01002012H   LINE      ---      ---       #36
      01002012H   LINE      ---      ---       #37
      00000007H   SYMBOL    DATA     BYTE      dat
      ---         BLOCKEND  ---      ---       LVL=0

      01002013H   BLOCK     CODE     ---       LVL=0
      01002013H   LINE      ---      ---       #38
      01002019H   LINE      ---      ---       #39
      01002019H   LINE      ---      ---       #40
      01002024H   LINE      ---      ---       #41
      01002036H   LINE      ---      ---       #42
      00000025H   SYMBOL    DATA     ---       p
      ---         BLOCKEND  ---      ---       LVL=0

      01002609H   BLOCK     CODE     ---       LVL=0
      01002609H   LINE      ---      ---       #44
      01002609H   LINE      ---      ---       #45
      01002609H   LINE      ---      ---       #46
      0100260CH   LINE      ---      ---       #47
      0100260CH   LINE      ---      ---       #48
      0100260EH   LINE      ---      ---       #49
      01002610H   LINE      ---      ---       #50
      01002613H   LINE      ---      ---       #51
      01002613H   LINE      ---      ---       #52
      00000007H   SYMBOL    DATA     BYTE      dat
      ---         BLOCKEND  ---      ---       LVL=0

LX51 LINKER/LOCATER V4.66.93.0                                                        05/08/2020  19:08:08  PAGE 30


      ---         MODULE    ---      ---       INIT
      010028D9H   PUBLIC    CODE     ---       Init_interrupt
      01002895H   PUBLIC    CODE     ---       _Init_wkt
      0100286FH   PUBLIC    CODE     ---       Init_uart4
      01002838H   PUBLIC    CODE     ---       Init_uart2
      01002827H   PUBLIC    CODE     ---       Init_timer0
      01002802H   PUBLIC    CODE     ---       Init_io
      010027F8H   PUBLIC    CODE     ---       Init_rst
      01002653H   PUBLIC    CODE     ---       Init
      000000D8H.2 SFRSYM    DATA     BIT       CCF2
      00000092H   SFRSYM    DATA     BYTE      P1M0
      00000093H   SFRSYM    DATA     BYTE      P0M1
      000000D8H.3 SFRSYM    DATA     BIT       CCF3
      00000096H   SFRSYM    DATA     BYTE      P2M0
      00000091H   SFRSYM    DATA     BYTE      P1M1
      00000080H   SFRSYM    DATA     BYTE      P0
      000000B2H   SFRSYM    DATA     BYTE      P3M0
      00000095H   SFRSYM    DATA     BYTE      P2M1
      00000090H   SFRSYM    DATA     BYTE      P1
      000000B4H   SFRSYM    DATA     BYTE      P4M0
      000000B1H   SFRSYM    DATA     BYTE      P3M1
      000000A0H   SFRSYM    DATA     BYTE      P2
      000000ABH   SFRSYM    DATA     BYTE      WKTCH
      000000CAH   SFRSYM    DATA     BYTE      P5M0
      000000B3H   SFRSYM    DATA     BYTE      P4M1
      000000B0H   SFRSYM    DATA     BYTE      P3
      000000CCH   SFRSYM    DATA     BYTE      P6M0
      000000C9H   SFRSYM    DATA     BYTE      P5M1
      000000C0H   SFRSYM    DATA     BYTE      P4
      000000D0H.6 SFRSYM    DATA     BIT       AC
      000000F6H   SFRSYM    DATA     BYTE      PWMIF
      000000C6H   SFRSYM    DATA     BYTE      ISP_TRIG
      000000E2H   SFRSYM    DATA     BYTE      P7M0
      000000CBH   SFRSYM    DATA     BYTE      P6M1
      000000C8H   SFRSYM    DATA     BYTE      P5
      000000A8H.7 SFRSYM    DATA     BIT       EA
      000000E1H   SFRSYM    DATA     BYTE      P7M1
      000000E8H   SFRSYM    DATA     BYTE      P6
      000000C0H.2 SFRSYM    DATA     BIT       LED1
      000000AAH   SFRSYM    DATA     BYTE      WKTCL
      000000F8H   SFRSYM    DATA     BYTE      P7
      000000C0H.3 SFRSYM    DATA     BIT       LED2
      000000CEH   SFRSYM    DATA     BYTE      SPCTL
      000000C0H.4 SFRSYM    DATA     BIT       LED3
      000000D8H.7 SFRSYM    DATA     BIT       CF
      000000FEH   SFRSYM    DATA     BYTE      PWMCR
      000000F9H   SFRSYM    DATA     BYTE      CH
      000000A2H   SFRSYM    DATA     BYTE      P_SW1
      000000BAH   SFRSYM    DATA     BYTE      P_SW2
      000000A8H.5 SFRSYM    DATA     BIT       EADC
      000000A8H   SFRSYM    DATA     BYTE      IE
      000000E5H   SFRSYM    DATA     BYTE      DPH1
      000000E9H   SFRSYM    DATA     BYTE      CL
      000000C5H   SFRSYM    DATA     BYTE      IAP_CMD
      000000FAH   SFRSYM    DATA     BYTE      CCAP0H
      000000B0H.2 SFRSYM    DATA     BIT       LCD1602_EN
      00000090H.0 SFRSYM    DATA     BIT       LED_RED
      000000FBH   SFRSYM    DATA     BYTE      CCAP1H
      000000E4H   SFRSYM    DATA     BYTE      DPL1
      000000FCH   SFRSYM    DATA     BYTE      CCAP2H
      000000FDH   SFRSYM    DATA     BYTE      CCAP3H
      000000BDH   SFRSYM    DATA     BYTE      ADC_RES
      000000B6H   SFRSYM    DATA     BYTE      IP2H
      000000EAH   SFRSYM    DATA     BYTE      CCAP0L
      000000D8H.6 SFRSYM    DATA     BIT       CR
LX51 LINKER/LOCATER V4.66.93.0                                                        05/08/2020  19:08:08  PAGE 31


      000000AEH   SFRSYM    DATA     BYTE      TA
      000000F7H   SFRSYM    DATA     BYTE      PWMFDCR
      000000EBH   SFRSYM    DATA     BYTE      CCAP1L
      000000DAH   SFRSYM    DATA     BYTE      CCAPM0
      000000ECH   SFRSYM    DATA     BYTE      CCAP2L
      000000DBH   SFRSYM    DATA     BYTE      CCAPM1
      0000008FH   SFRSYM    DATA     BYTE      INTCLKO
      000000EDH   SFRSYM    DATA     BYTE      CCAP3L
      000000DCH   SFRSYM    DATA     BYTE      CCAPM2
      000000A8H.4 SFRSYM    DATA     BIT       ES
      000000DDH   SFRSYM    DATA     BYTE      CCAPM3
      000000B8H.5 SFRSYM    DATA     BIT       PADC
      000000B8H   SFRSYM    DATA     BYTE      IP
      000000DEH   SFRSYM    DATA     BYTE      ADCCFG
      00000098H.0 SFRSYM    DATA     BIT       RI
      000000D0H.7 SFRSYM    DATA     BIT       CY
      00000098H.1 SFRSYM    DATA     BIT       TI
      000000C3H   SFRSYM    DATA     BYTE      IAP_ADDRH
      000000C0H.1 SFRSYM    DATA     BIT       DS18B20_DATA
      000000C5H   SFRSYM    DATA     BYTE      ISP_CMD
      000000B8H.4 SFRSYM    DATA     BIT       PS
      00000081H   SFRSYM    DATA     BYTE      SP
      000000A0H.7 SFRSYM    DATA     BIT       LCD1602_Busy
      000000B0H.5 SFRSYM    DATA     BIT       LCD1602_RS
      000000D9H   SFRSYM    DATA     BYTE      CMOD
      000000D8H   SFRSYM    DATA     BYTE      CCON
      000000C4H   SFRSYM    DATA     BYTE      IAP_ADDRL
      000000B8H.7 SFRSYM    DATA     BIT       PPCA
      000000D0H.2 SFRSYM    DATA     BIT       OV
      000000B0H.4 SFRSYM    DATA     BIT       LCD1602_RW
      000000E6H   SFRSYM    DATA     BYTE      CMPCR1
      00000090H.1 SFRSYM    DATA     BIT       LED_GREEN
      000000E7H   SFRSYM    DATA     BYTE      CMPCR2
      000000A8H.6 SFRSYM    DATA     BIT       ELVD
      00000080H.0 SFRSYM    DATA     BIT       P00
      000000BCH   SFRSYM    DATA     BYTE      ADC_CONTR
      00000099H   SFRSYM    DATA     BYTE      SBUF
      00000087H   SFRSYM    DATA     BYTE      PCON
      00000090H.0 SFRSYM    DATA     BIT       P10
      00000080H.1 SFRSYM    DATA     BIT       P01
      000000C3H   SFRSYM    DATA     BYTE      ISP_ADDRH
      000000A0H.0 SFRSYM    DATA     BIT       P20
      00000090H.1 SFRSYM    DATA     BIT       P11
      00000080H.2 SFRSYM    DATA     BIT       P02
      000000B0H.0 SFRSYM    DATA     BIT       P30
      000000A0H.1 SFRSYM    DATA     BIT       P21
      00000090H.2 SFRSYM    DATA     BIT       P12
      00000080H.3 SFRSYM    DATA     BIT       P03
      00000098H   SFRSYM    DATA     BYTE      SCON
      000000C0H.0 SFRSYM    DATA     BIT       P40
      000000B0H.1 SFRSYM    DATA     BIT       P31
      000000A0H.2 SFRSYM    DATA     BIT       P22
      00000090H.3 SFRSYM    DATA     BIT       P13
      00000080H.4 SFRSYM    DATA     BIT       P04
      00000089H   SFRSYM    DATA     BYTE      TMOD
      00000088H   SFRSYM    DATA     BYTE      TCON
      000000C8H.0 SFRSYM    DATA     BIT       P50
      000000C0H.1 SFRSYM    DATA     BIT       P41
      000000B0H.2 SFRSYM    DATA     BIT       P32
      000000A0H.3 SFRSYM    DATA     BIT       P23
      00000090H.4 SFRSYM    DATA     BIT       P14
      00000080H.5 SFRSYM    DATA     BIT       P05
      000000C4H   SFRSYM    DATA     BYTE      ISP_ADDRL
      000000E8H.0 SFRSYM    DATA     BIT       P60
      000000C8H.1 SFRSYM    DATA     BIT       P51
LX51 LINKER/LOCATER V4.66.93.0                                                        05/08/2020  19:08:08  PAGE 32


      000000C0H.2 SFRSYM    DATA     BIT       P42
      000000B0H.3 SFRSYM    DATA     BIT       P33
      000000A0H.4 SFRSYM    DATA     BIT       P24
      00000090H.5 SFRSYM    DATA     BIT       P15
      00000080H.6 SFRSYM    DATA     BIT       P06
      000000B8H.6 SFRSYM    DATA     BIT       PLVD
      000000F8H.0 SFRSYM    DATA     BIT       P70
      000000E8H.1 SFRSYM    DATA     BIT       P61
      000000C8H.2 SFRSYM    DATA     BIT       P52
      000000C0H.3 SFRSYM    DATA     BIT       P43
      000000B0H.4 SFRSYM    DATA     BIT       P34
      000000A0H.5 SFRSYM    DATA     BIT       P25
      00000090H.6 SFRSYM    DATA     BIT       P16
      00000080H.7 SFRSYM    DATA     BIT       P07
      000000F8H.1 SFRSYM    DATA     BIT       P71
      000000E8H.2 SFRSYM    DATA     BIT       P62
      000000C8H.3 SFRSYM    DATA     BIT       P53
      000000C0H.4 SFRSYM    DATA     BIT       P44
      000000B0H.5 SFRSYM    DATA     BIT       P35
      000000A0H.6 SFRSYM    DATA     BIT       P26
      00000090H.7 SFRSYM    DATA     BIT       P17
      000000F8H.2 SFRSYM    DATA     BIT       P72
      000000E8H.3 SFRSYM    DATA     BIT       P63
      000000C8H.4 SFRSYM    DATA     BIT       P54
      000000C0H.5 SFRSYM    DATA     BIT       P45
      000000B0H.6 SFRSYM    DATA     BIT       P36
      000000A0H.7 SFRSYM    DATA     BIT       P27
      000000F8H.3 SFRSYM    DATA     BIT       P73
      000000E8H.4 SFRSYM    DATA     BIT       P64
      000000C8H.5 SFRSYM    DATA     BIT       P55
      000000C0H.6 SFRSYM    DATA     BIT       P46
      000000B0H.7 SFRSYM    DATA     BIT       P37
      000000F8H.4 SFRSYM    DATA     BIT       P74
      000000E8H.5 SFRSYM    DATA     BIT       P65
      000000C8H.6 SFRSYM    DATA     BIT       P56
      000000C0H.7 SFRSYM    DATA     BIT       P47
      000000F8H.5 SFRSYM    DATA     BIT       P75
      000000E8H.6 SFRSYM    DATA     BIT       P66
      000000C8H.7 SFRSYM    DATA     BIT       P57
      000000F8H.6 SFRSYM    DATA     BIT       P76
      000000E8H.7 SFRSYM    DATA     BIT       P67
      00000088H.1 SFRSYM    DATA     BIT       IE0
      000000A1H   SFRSYM    DATA     BYTE      BUS_SPEED
      000000F8H.7 SFRSYM    DATA     BIT       P77
      00000088H.3 SFRSYM    DATA     BIT       IE1
      000000AFH   SFRSYM    DATA     BYTE      IE2
      0000008EH   SFRSYM    DATA     BYTE      AUXR
      000000F0H   SFRSYM    DATA     BYTE      B
      000000C7H   SFRSYM    DATA     BYTE      IAP_CONTR
      000000F1H   SFRSYM    DATA     BYTE      PWMCFG
      000000E0H   SFRSYM    DATA     BYTE      ACC
      000000A8H.1 SFRSYM    DATA     BIT       ET0
      00000088H.5 SFRSYM    DATA     BIT       TF0
      000000A8H.3 SFRSYM    DATA     BIT       ET1
      00000088H.7 SFRSYM    DATA     BIT       TF1
      000000B5H   SFRSYM    DATA     BYTE      IP2
      000000FFH   SFRSYM    DATA     BYTE      RSTCFG
      00000098H.2 SFRSYM    DATA     BIT       RB8
      0000008CH   SFRSYM    DATA     BYTE      TH0
      0000008DH   SFRSYM    DATA     BYTE      TH1
      00000088H.0 SFRSYM    DATA     BIT       IT0
      000000A8H.0 SFRSYM    DATA     BIT       EX0
      00000098H.3 SFRSYM    DATA     BIT       TB8
      000000D6H   SFRSYM    DATA     BYTE      TH2
      000000D6H   SFRSYM    DATA     BYTE      T2H
LX51 LINKER/LOCATER V4.66.93.0                                                        05/08/2020  19:08:08  PAGE 33


      00000088H.2 SFRSYM    DATA     BIT       IT1
      000000A8H.2 SFRSYM    DATA     BIT       EX1
      000000D4H   SFRSYM    DATA     BYTE      TH3
      000000D4H   SFRSYM    DATA     BYTE      T3H
      000000D0H.0 SFRSYM    DATA     BIT       P
      00000098H.7 SFRSYM    DATA     BIT       SM0
      000000D2H   SFRSYM    DATA     BYTE      TH4
      000000D2H   SFRSYM    DATA     BYTE      T4H
      0000008AH   SFRSYM    DATA     BYTE      TL0
      00000098H.6 SFRSYM    DATA     BIT       SM1
      0000008BH   SFRSYM    DATA     BYTE      TL1
      00000098H.5 SFRSYM    DATA     BIT       SM2
      000000D7H   SFRSYM    DATA     BYTE      TL2
      000000D7H   SFRSYM    DATA     BYTE      T2L
      000000D5H   SFRSYM    DATA     BYTE      TL3
      000000D5H   SFRSYM    DATA     BYTE      T3L
      000000D3H   SFRSYM    DATA     BYTE      TL4
      000000D3H   SFRSYM    DATA     BYTE      T4L
      000000B8H.1 SFRSYM    DATA     BIT       PT0
      000000C7H   SFRSYM    DATA     BYTE      ISP_CONTR
      000000B8H.3 SFRSYM    DATA     BIT       PT1
      000000D0H.3 SFRSYM    DATA     BIT       RS0
      000000C2H   SFRSYM    DATA     BYTE      IAP_DATA
      00000088H.4 SFRSYM    DATA     BIT       TR0
      000000D0H.4 SFRSYM    DATA     BIT       RS1
      00000088H.6 SFRSYM    DATA     BIT       TR1
      000000C1H   SFRSYM    DATA     BYTE      WDT_CONTR
      000000B8H.0 SFRSYM    DATA     BIT       PX0
      000000B8H.2 SFRSYM    DATA     BIT       PX1
      000000F2H   SFRSYM    DATA     BYTE      PCA_PWM0
      000000F3H   SFRSYM    DATA     BYTE      PCA_PWM1
      000000F4H   SFRSYM    DATA     BYTE      PCA_PWM2
      000000BBH   SFRSYM    DATA     BYTE      VOCTRL
      00000083H   SFRSYM    DATA     BYTE      DPH
      000000F5H   SFRSYM    DATA     BYTE      PCA_PWM3
      000000D1H   SFRSYM    DATA     BYTE      T4T3M
      00000080H.7 SFRSYM    DATA     BIT       LED_BLUE
      000000BEH   SFRSYM    DATA     BYTE      ADC_RESL
      00000082H   SFRSYM    DATA     BYTE      DPL
      000000CDH   SFRSYM    DATA     BYTE      SPSTAT
      000000B7H   SFRSYM    DATA     BYTE      IPH
      0000009BH   SFRSYM    DATA     BYTE      S2BUF
      000000ADH   SFRSYM    DATA     BYTE      S3BUF
      00000085H   SFRSYM    DATA     BYTE      S4BUF
      00000098H.4 SFRSYM    DATA     BIT       REN
      0000009AH   SFRSYM    DATA     BYTE      S2CON
      000000ACH   SFRSYM    DATA     BYTE      S3CON
      000000E3H   SFRSYM    DATA     BYTE      DPS
      000000C2H   SFRSYM    DATA     BYTE      ISP_DATA
      00000084H   SFRSYM    DATA     BYTE      S4CON
      000000EFH   SFRSYM    DATA     BYTE      AUXINTIF
      000000B9H   SFRSYM    DATA     BYTE      SADEN
      000000A9H   SFRSYM    DATA     BYTE      SADDR
      000000C6H   SFRSYM    DATA     BYTE      IAP_TRIG
      00000097H   SFRSYM    DATA     BYTE      AUXR2
      000000D0H.5 SFRSYM    DATA     BIT       F0
      000000D0H   SFRSYM    DATA     BYTE      PSW
      000000D8H.0 SFRSYM    DATA     BIT       CCF0
      000000D8H.1 SFRSYM    DATA     BIT       CCF1
      000000CFH   SFRSYM    DATA     BYTE      SPDAT
      00000094H   SFRSYM    DATA     BYTE      P0M0
      01002827H   SYMBOL    CODE     ---       Init_timer0
      01002895H   SYMBOL    CODE     ---       _Init_wkt
      01002802H   SYMBOL    CODE     ---       Init_io
      010027F8H   SYMBOL    CODE     ---       Init_rst
LX51 LINKER/LOCATER V4.66.93.0                                                        05/08/2020  19:08:08  PAGE 34


      01002838H   SYMBOL    CODE     ---       Init_uart2
      0100286FH   SYMBOL    CODE     ---       Init_uart4
      010028D9H   SYMBOL    CODE     ---       Init_interrupt

      01002653H   BLOCK     CODE     ---       LVL=0
      01002653H   LINE      ---      ---       #13
      01002653H   LINE      ---      ---       #14
      01002653H   LINE      ---      ---       #16
      01002655H   LINE      ---      ---       #17
      01002658H   LINE      ---      ---       #18
      0100265BH   LINE      ---      ---       #22
      0100265EH   LINE      ---      ---       #23
      01002661H   LINE      ---      ---       #24
      0100266EH   LINE      ---      ---       #25
      01002671H   LINE      ---      ---       #30
      01002674H   LINE      ---      ---       #31
      01002676H   LINE      ---      ---       #32
      01002678H   LINE      ---      ---       #33
      ---         BLOCKEND  ---      ---       LVL=0

      010027F8H   BLOCK     CODE     ---       LVL=0
      010027F8H   LINE      ---      ---       #39
      010027F8H   LINE      ---      ---       #40
      010027F8H   LINE      ---      ---       #42
      010027FBH   LINE      ---      ---       #45
      010027FEH   LINE      ---      ---       #46
      01002801H   LINE      ---      ---       #47
      ---         BLOCKEND  ---      ---       LVL=0

      01002802H   BLOCK     CODE     ---       LVL=0
      01002802H   LINE      ---      ---       #48
      01002802H   LINE      ---      ---       #49
      01002802H   LINE      ---      ---       #51
      01002808H   LINE      ---      ---       #52
      0100280EH   LINE      ---      ---       #54
      01002814H   LINE      ---      ---       #55
      0100281AH   LINE      ---      ---       #57
      01002820H   LINE      ---      ---       #58
      01002826H   LINE      ---      ---       #59
      ---         BLOCKEND  ---      ---       LVL=0

      01002827H   BLOCK     CODE     ---       LVL=0
      01002827H   LINE      ---      ---       #60
      01002827H   LINE      ---      ---       #61
      01002827H   LINE      ---      ---       #62
      0100282AH   LINE      ---      ---       #63
      0100282DH   LINE      ---      ---       #64
      01002830H   LINE      ---      ---       #65
      01002833H   LINE      ---      ---       #66
      01002835H   LINE      ---      ---       #67
      01002837H   LINE      ---      ---       #68
      ---         BLOCKEND  ---      ---       LVL=0

      01002838H   BLOCK     CODE     ---       LVL=0
      01002838H   LINE      ---      ---       #80
      01002838H   LINE      ---      ---       #81
      01002838H   BLOCK     CODE     NEAR LAB  LVL=1
      01002838H   LINE      ---      ---       #83
      01002843H   LINE      ---      ---       #84
      01002846H   LINE      ---      ---       #85
      0100284CH   LINE      ---      ---       #86
      01002850H   LINE      ---      ---       #88
      01002853H   LINE      ---      ---       #90
      01002855H   LINE      ---      ---       #91
      0100285EH   LINE      ---      ---       #92
LX51 LINKER/LOCATER V4.66.93.0                                                        05/08/2020  19:08:08  PAGE 35


      01002861H   LINE      ---      ---       #93
      00000022H   SYMBOL    DATA     DWORD     BTL
      ---         BLOCKEND  CODE     ---       LVL=1
      ---         BLOCKEND  CODE     ---       LVL=0

      0100286FH   BLOCK     CODE     ---       LVL=0
      0100286FH   LINE      ---      ---       #94
      0100286FH   LINE      ---      ---       #95
      0100286FH   BLOCK     CODE     NEAR LAB  LVL=1
      0100286FH   LINE      ---      ---       #97
      0100287AH   LINE      ---      ---       #98
      0100287DH   LINE      ---      ---       #99
      01002883H   LINE      ---      ---       #100
      01002887H   LINE      ---      ---       #102
      0100288AH   LINE      ---      ---       #104
      0100288CH   LINE      ---      ---       #105
      01002891H   LINE      ---      ---       #106
      01002894H   LINE      ---      ---       #107
      00000022H   SYMBOL    DATA     DWORD     BTL
      ---         BLOCKEND  CODE     ---       LVL=1
      ---         BLOCKEND  CODE     ---       LVL=0

      01002895H   BLOCK     CODE     ---       LVL=0
      01002895H   LINE      ---      ---       #108
      0100289DH   LINE      ---      ---       #109
      00000022H   SYMBOL    DATA     FLOAT     ms
      00000020H.2 SYMBOL    BIT      BIT       en
      0100289DH   BLOCK     CODE     NEAR LAB  LVL=1
      0100289DH   LINE      ---      ---       #111
      010028A0H   LINE      ---      ---       #113
      010028C5H   LINE      ---      ---       #114
      010028CAH   LINE      ---      ---       #115
      010028D0H   LINE      ---      ---       #116
      010028D5H   LINE      ---      ---       #117
      010028D8H   LINE      ---      ---       #118
      02000000H   SYMBOL    PDATA    WORD      T
      ---         BLOCKEND  CODE     ---       LVL=1
      ---         BLOCKEND  CODE     ---       LVL=0

      010028D9H   BLOCK     CODE     ---       LVL=0
      010028D9H   LINE      ---      ---       #119
      010028D9H   LINE      ---      ---       #120
      010028D9H   LINE      ---      ---       #121
      010028DBH   LINE      ---      ---       #122
      010028DDH   LINE      ---      ---       #123
      010028E3H   LINE      ---      ---       #124
      010028E6H   LINE      ---      ---       #126
      010028EBH   LINE      ---      ---       #127
      010028F0H   LINE      ---      ---       #128
      010028F6H   LINE      ---      ---       #130
      010028F8H   LINE      ---      ---       #131
      ---         BLOCKEND  ---      ---       LVL=0

      ---         MODULE    ---      ---       DELAY
      01002CD2H   PUBLIC    CODE     ---       Delay765ms
      01002CC3H   PUBLIC    CODE     ---       Delay385ms
      01002CB6H   PUBLIC    CODE     ---       Delay200ms
      01002CA9H   PUBLIC    CODE     ---       Delay100ms
      01002CA0H   PUBLIC    CODE     ---       Delay1ms
      01002C6FH   PUBLIC    CODE     ---       Delay485us
      01002C78H   PUBLIC    CODE     ---       Delay130us
      01002C64H   PUBLIC    CODE     ---       Delay60us
      01002C82H   PUBLIC    CODE     ---       Delay40us
      010028F9H   PUBLIC    CODE     ---       Delay10us
      010027F2H   PUBLIC    CODE     ---       Delay1us
LX51 LINKER/LOCATER V4.66.93.0                                                        05/08/2020  19:08:08  PAGE 36


      000000D8H.2 SFRSYM    DATA     BIT       CCF2
      00000092H   SFRSYM    DATA     BYTE      P1M0
      00000093H   SFRSYM    DATA     BYTE      P0M1
      000000D8H.3 SFRSYM    DATA     BIT       CCF3
      00000096H   SFRSYM    DATA     BYTE      P2M0
      00000091H   SFRSYM    DATA     BYTE      P1M1
      00000080H   SFRSYM    DATA     BYTE      P0
      000000B2H   SFRSYM    DATA     BYTE      P3M0
      00000095H   SFRSYM    DATA     BYTE      P2M1
      00000090H   SFRSYM    DATA     BYTE      P1
      000000B4H   SFRSYM    DATA     BYTE      P4M0
      000000B1H   SFRSYM    DATA     BYTE      P3M1
      000000A0H   SFRSYM    DATA     BYTE      P2
      000000ABH   SFRSYM    DATA     BYTE      WKTCH
      000000CAH   SFRSYM    DATA     BYTE      P5M0
      000000B3H   SFRSYM    DATA     BYTE      P4M1
      000000B0H   SFRSYM    DATA     BYTE      P3
      000000CCH   SFRSYM    DATA     BYTE      P6M0
      000000C9H   SFRSYM    DATA     BYTE      P5M1
      000000C0H   SFRSYM    DATA     BYTE      P4
      000000D0H.6 SFRSYM    DATA     BIT       AC
      000000F6H   SFRSYM    DATA     BYTE      PWMIF
      000000C6H   SFRSYM    DATA     BYTE      ISP_TRIG
      000000E2H   SFRSYM    DATA     BYTE      P7M0
      000000CBH   SFRSYM    DATA     BYTE      P6M1
      000000C8H   SFRSYM    DATA     BYTE      P5
      000000A8H.7 SFRSYM    DATA     BIT       EA
      000000E1H   SFRSYM    DATA     BYTE      P7M1
      000000E8H   SFRSYM    DATA     BYTE      P6
      000000C0H.2 SFRSYM    DATA     BIT       LED1
      000000AAH   SFRSYM    DATA     BYTE      WKTCL
      000000F8H   SFRSYM    DATA     BYTE      P7
      000000C0H.3 SFRSYM    DATA     BIT       LED2
      000000CEH   SFRSYM    DATA     BYTE      SPCTL
      000000C0H.4 SFRSYM    DATA     BIT       LED3
      000000D8H.7 SFRSYM    DATA     BIT       CF
      000000FEH   SFRSYM    DATA     BYTE      PWMCR
      000000F9H   SFRSYM    DATA     BYTE      CH
      000000A2H   SFRSYM    DATA     BYTE      P_SW1
      000000BAH   SFRSYM    DATA     BYTE      P_SW2
      000000A8H.5 SFRSYM    DATA     BIT       EADC
      000000A8H   SFRSYM    DATA     BYTE      IE
      000000E5H   SFRSYM    DATA     BYTE      DPH1
      000000E9H   SFRSYM    DATA     BYTE      CL
      000000C5H   SFRSYM    DATA     BYTE      IAP_CMD
      000000FAH   SFRSYM    DATA     BYTE      CCAP0H
      000000B0H.2 SFRSYM    DATA     BIT       LCD1602_EN
      00000090H.0 SFRSYM    DATA     BIT       LED_RED
      000000FBH   SFRSYM    DATA     BYTE      CCAP1H
      000000E4H   SFRSYM    DATA     BYTE      DPL1
      000000FCH   SFRSYM    DATA     BYTE      CCAP2H
      000000FDH   SFRSYM    DATA     BYTE      CCAP3H
      000000BDH   SFRSYM    DATA     BYTE      ADC_RES
      000000B6H   SFRSYM    DATA     BYTE      IP2H
      000000EAH   SFRSYM    DATA     BYTE      CCAP0L
      000000D8H.6 SFRSYM    DATA     BIT       CR
      000000AEH   SFRSYM    DATA     BYTE      TA
      000000F7H   SFRSYM    DATA     BYTE      PWMFDCR
      000000EBH   SFRSYM    DATA     BYTE      CCAP1L
      000000DAH   SFRSYM    DATA     BYTE      CCAPM0
      000000ECH   SFRSYM    DATA     BYTE      CCAP2L
      000000DBH   SFRSYM    DATA     BYTE      CCAPM1
      0000008FH   SFRSYM    DATA     BYTE      INTCLKO
      000000EDH   SFRSYM    DATA     BYTE      CCAP3L
      000000DCH   SFRSYM    DATA     BYTE      CCAPM2
LX51 LINKER/LOCATER V4.66.93.0                                                        05/08/2020  19:08:08  PAGE 37


      000000A8H.4 SFRSYM    DATA     BIT       ES
      000000DDH   SFRSYM    DATA     BYTE      CCAPM3
      000000B8H.5 SFRSYM    DATA     BIT       PADC
      000000B8H   SFRSYM    DATA     BYTE      IP
      000000DEH   SFRSYM    DATA     BYTE      ADCCFG
      00000098H.0 SFRSYM    DATA     BIT       RI
      000000D0H.7 SFRSYM    DATA     BIT       CY
      00000098H.1 SFRSYM    DATA     BIT       TI
      000000C3H   SFRSYM    DATA     BYTE      IAP_ADDRH
      000000C0H.1 SFRSYM    DATA     BIT       DS18B20_DATA
      000000C5H   SFRSYM    DATA     BYTE      ISP_CMD
      000000B8H.4 SFRSYM    DATA     BIT       PS
      00000081H   SFRSYM    DATA     BYTE      SP
      000000A0H.7 SFRSYM    DATA     BIT       LCD1602_Busy
      000000B0H.5 SFRSYM    DATA     BIT       LCD1602_RS
      000000D9H   SFRSYM    DATA     BYTE      CMOD
      000000D8H   SFRSYM    DATA     BYTE      CCON
      000000C4H   SFRSYM    DATA     BYTE      IAP_ADDRL
      000000B8H.7 SFRSYM    DATA     BIT       PPCA
      000000D0H.2 SFRSYM    DATA     BIT       OV
      000000B0H.4 SFRSYM    DATA     BIT       LCD1602_RW
      000000E6H   SFRSYM    DATA     BYTE      CMPCR1
      00000090H.1 SFRSYM    DATA     BIT       LED_GREEN
      000000E7H   SFRSYM    DATA     BYTE      CMPCR2
      000000A8H.6 SFRSYM    DATA     BIT       ELVD
      00000080H.0 SFRSYM    DATA     BIT       P00
      000000BCH   SFRSYM    DATA     BYTE      ADC_CONTR
      00000099H   SFRSYM    DATA     BYTE      SBUF
      00000087H   SFRSYM    DATA     BYTE      PCON
      00000090H.0 SFRSYM    DATA     BIT       P10
      00000080H.1 SFRSYM    DATA     BIT       P01
      000000C3H   SFRSYM    DATA     BYTE      ISP_ADDRH
      000000A0H.0 SFRSYM    DATA     BIT       P20
      00000090H.1 SFRSYM    DATA     BIT       P11
      00000080H.2 SFRSYM    DATA     BIT       P02
      000000B0H.0 SFRSYM    DATA     BIT       P30
      000000A0H.1 SFRSYM    DATA     BIT       P21
      00000090H.2 SFRSYM    DATA     BIT       P12
      00000080H.3 SFRSYM    DATA     BIT       P03
      00000098H   SFRSYM    DATA     BYTE      SCON
      000000C0H.0 SFRSYM    DATA     BIT       P40
      000000B0H.1 SFRSYM    DATA     BIT       P31
      000000A0H.2 SFRSYM    DATA     BIT       P22
      00000090H.3 SFRSYM    DATA     BIT       P13
      00000080H.4 SFRSYM    DATA     BIT       P04
      00000089H   SFRSYM    DATA     BYTE      TMOD
      00000088H   SFRSYM    DATA     BYTE      TCON
      000000C8H.0 SFRSYM    DATA     BIT       P50
      000000C0H.1 SFRSYM    DATA     BIT       P41
      000000B0H.2 SFRSYM    DATA     BIT       P32
      000000A0H.3 SFRSYM    DATA     BIT       P23
      00000090H.4 SFRSYM    DATA     BIT       P14
      00000080H.5 SFRSYM    DATA     BIT       P05
      000000C4H   SFRSYM    DATA     BYTE      ISP_ADDRL
      000000E8H.0 SFRSYM    DATA     BIT       P60
      000000C8H.1 SFRSYM    DATA     BIT       P51
      000000C0H.2 SFRSYM    DATA     BIT       P42
      000000B0H.3 SFRSYM    DATA     BIT       P33
      000000A0H.4 SFRSYM    DATA     BIT       P24
      00000090H.5 SFRSYM    DATA     BIT       P15
      00000080H.6 SFRSYM    DATA     BIT       P06
      000000B8H.6 SFRSYM    DATA     BIT       PLVD
      000000F8H.0 SFRSYM    DATA     BIT       P70
      000000E8H.1 SFRSYM    DATA     BIT       P61
      000000C8H.2 SFRSYM    DATA     BIT       P52
LX51 LINKER/LOCATER V4.66.93.0                                                        05/08/2020  19:08:08  PAGE 38


      000000C0H.3 SFRSYM    DATA     BIT       P43
      000000B0H.4 SFRSYM    DATA     BIT       P34
      000000A0H.5 SFRSYM    DATA     BIT       P25
      00000090H.6 SFRSYM    DATA     BIT       P16
      00000080H.7 SFRSYM    DATA     BIT       P07
      000000F8H.1 SFRSYM    DATA     BIT       P71
      000000E8H.2 SFRSYM    DATA     BIT       P62
      000000C8H.3 SFRSYM    DATA     BIT       P53
      000000C0H.4 SFRSYM    DATA     BIT       P44
      000000B0H.5 SFRSYM    DATA     BIT       P35
      000000A0H.6 SFRSYM    DATA     BIT       P26
      00000090H.7 SFRSYM    DATA     BIT       P17
      000000F8H.2 SFRSYM    DATA     BIT       P72
      000000E8H.3 SFRSYM    DATA     BIT       P63
      000000C8H.4 SFRSYM    DATA     BIT       P54
      000000C0H.5 SFRSYM    DATA     BIT       P45
      000000B0H.6 SFRSYM    DATA     BIT       P36
      000000A0H.7 SFRSYM    DATA     BIT       P27
      000000F8H.3 SFRSYM    DATA     BIT       P73
      000000E8H.4 SFRSYM    DATA     BIT       P64
      000000C8H.5 SFRSYM    DATA     BIT       P55
      000000C0H.6 SFRSYM    DATA     BIT       P46
      000000B0H.7 SFRSYM    DATA     BIT       P37
      000000F8H.4 SFRSYM    DATA     BIT       P74
      000000E8H.5 SFRSYM    DATA     BIT       P65
      000000C8H.6 SFRSYM    DATA     BIT       P56
      000000C0H.7 SFRSYM    DATA     BIT       P47
      000000F8H.5 SFRSYM    DATA     BIT       P75
      000000E8H.6 SFRSYM    DATA     BIT       P66
      000000C8H.7 SFRSYM    DATA     BIT       P57
      000000F8H.6 SFRSYM    DATA     BIT       P76
      000000E8H.7 SFRSYM    DATA     BIT       P67
      00000088H.1 SFRSYM    DATA     BIT       IE0
      000000A1H   SFRSYM    DATA     BYTE      BUS_SPEED
      000000F8H.7 SFRSYM    DATA     BIT       P77
      00000088H.3 SFRSYM    DATA     BIT       IE1
      000000AFH   SFRSYM    DATA     BYTE      IE2
      0000008EH   SFRSYM    DATA     BYTE      AUXR
      000000F0H   SFRSYM    DATA     BYTE      B
      000000C7H   SFRSYM    DATA     BYTE      IAP_CONTR
      000000F1H   SFRSYM    DATA     BYTE      PWMCFG
      000000E0H   SFRSYM    DATA     BYTE      ACC
      000000A8H.1 SFRSYM    DATA     BIT       ET0
      00000088H.5 SFRSYM    DATA     BIT       TF0
      000000A8H.3 SFRSYM    DATA     BIT       ET1
      00000088H.7 SFRSYM    DATA     BIT       TF1
      000000B5H   SFRSYM    DATA     BYTE      IP2
      000000FFH   SFRSYM    DATA     BYTE      RSTCFG
      00000098H.2 SFRSYM    DATA     BIT       RB8
      0000008CH   SFRSYM    DATA     BYTE      TH0
      0000008DH   SFRSYM    DATA     BYTE      TH1
      00000088H.0 SFRSYM    DATA     BIT       IT0
      000000A8H.0 SFRSYM    DATA     BIT       EX0
      00000098H.3 SFRSYM    DATA     BIT       TB8
      000000D6H   SFRSYM    DATA     BYTE      TH2
      000000D6H   SFRSYM    DATA     BYTE      T2H
      00000088H.2 SFRSYM    DATA     BIT       IT1
      000000A8H.2 SFRSYM    DATA     BIT       EX1
      000000D4H   SFRSYM    DATA     BYTE      TH3
      000000D4H   SFRSYM    DATA     BYTE      T3H
      000000D0H.0 SFRSYM    DATA     BIT       P
      00000098H.7 SFRSYM    DATA     BIT       SM0
      000000D2H   SFRSYM    DATA     BYTE      TH4
      000000D2H   SFRSYM    DATA     BYTE      T4H
      0000008AH   SFRSYM    DATA     BYTE      TL0
LX51 LINKER/LOCATER V4.66.93.0                                                        05/08/2020  19:08:08  PAGE 39


      00000098H.6 SFRSYM    DATA     BIT       SM1
      0000008BH   SFRSYM    DATA     BYTE      TL1
      00000098H.5 SFRSYM    DATA     BIT       SM2
      000000D7H   SFRSYM    DATA     BYTE      TL2
      000000D7H   SFRSYM    DATA     BYTE      T2L
      000000D5H   SFRSYM    DATA     BYTE      TL3
      000000D5H   SFRSYM    DATA     BYTE      T3L
      000000D3H   SFRSYM    DATA     BYTE      TL4
      000000D3H   SFRSYM    DATA     BYTE      T4L
      000000B8H.1 SFRSYM    DATA     BIT       PT0
      000000C7H   SFRSYM    DATA     BYTE      ISP_CONTR
      000000B8H.3 SFRSYM    DATA     BIT       PT1
      000000D0H.3 SFRSYM    DATA     BIT       RS0
      000000C2H   SFRSYM    DATA     BYTE      IAP_DATA
      00000088H.4 SFRSYM    DATA     BIT       TR0
      000000D0H.4 SFRSYM    DATA     BIT       RS1
      00000088H.6 SFRSYM    DATA     BIT       TR1
      000000C1H   SFRSYM    DATA     BYTE      WDT_CONTR
      000000B8H.0 SFRSYM    DATA     BIT       PX0
      000000B8H.2 SFRSYM    DATA     BIT       PX1
      000000F2H   SFRSYM    DATA     BYTE      PCA_PWM0
      000000F3H   SFRSYM    DATA     BYTE      PCA_PWM1
      000000F4H   SFRSYM    DATA     BYTE      PCA_PWM2
      000000BBH   SFRSYM    DATA     BYTE      VOCTRL
      00000083H   SFRSYM    DATA     BYTE      DPH
      000000F5H   SFRSYM    DATA     BYTE      PCA_PWM3
      000000D1H   SFRSYM    DATA     BYTE      T4T3M
      00000080H.7 SFRSYM    DATA     BIT       LED_BLUE
      000000BEH   SFRSYM    DATA     BYTE      ADC_RESL
      00000082H   SFRSYM    DATA     BYTE      DPL
      000000CDH   SFRSYM    DATA     BYTE      SPSTAT
      000000B7H   SFRSYM    DATA     BYTE      IPH
      0000009BH   SFRSYM    DATA     BYTE      S2BUF
      000000ADH   SFRSYM    DATA     BYTE      S3BUF
      00000085H   SFRSYM    DATA     BYTE      S4BUF
      00000098H.4 SFRSYM    DATA     BIT       REN
      0000009AH   SFRSYM    DATA     BYTE      S2CON
      000000ACH   SFRSYM    DATA     BYTE      S3CON
      000000E3H   SFRSYM    DATA     BYTE      DPS
      000000C2H   SFRSYM    DATA     BYTE      ISP_DATA
      00000084H   SFRSYM    DATA     BYTE      S4CON
      000000EFH   SFRSYM    DATA     BYTE      AUXINTIF
      000000B9H   SFRSYM    DATA     BYTE      SADEN
      000000A9H   SFRSYM    DATA     BYTE      SADDR
      000000C6H   SFRSYM    DATA     BYTE      IAP_TRIG
      00000097H   SFRSYM    DATA     BYTE      AUXR2
      000000D0H.5 SFRSYM    DATA     BIT       F0
      000000D0H   SFRSYM    DATA     BYTE      PSW
      000000D8H.0 SFRSYM    DATA     BIT       CCF0
      000000D8H.1 SFRSYM    DATA     BIT       CCF1
      000000CFH   SFRSYM    DATA     BYTE      SPDAT
      00000094H   SFRSYM    DATA     BYTE      P0M0

      010027F2H   BLOCK     CODE     ---       LVL=0
      010027F2H   LINE      ---      ---       #22496
      010027F2H   BLOCK     CODE     NEAR LAB  LVL=1
      00000007H   SYMBOL    DATA     BYTE      i
      ---         BLOCKEND  CODE     ---       LVL=1
      ---         BLOCKEND  CODE     ---       LVL=0

      010028F9H   BLOCK     CODE     ---       LVL=0
      010028F9H   LINE      ---      ---       #22523
      010028F9H   BLOCK     CODE     NEAR LAB  LVL=1
      00000007H   SYMBOL    DATA     BYTE      i
      ---         BLOCKEND  CODE     ---       LVL=1
LX51 LINKER/LOCATER V4.66.93.0                                                        05/08/2020  19:08:08  PAGE 40


      ---         BLOCKEND  CODE     ---       LVL=0

      01002C82H   BLOCK     CODE     ---       LVL=0
      01002C82H   LINE      ---      ---       #22613
      01002C82H   BLOCK     CODE     NEAR LAB  LVL=1
      00000007H   SYMBOL    DATA     BYTE      i
      00000006H   SYMBOL    DATA     BYTE      j
      ---         BLOCKEND  CODE     ---       LVL=1
      ---         BLOCKEND  CODE     ---       LVL=0
      00000007H   SYMBOL    DATA     BYTE      i
      00000006H   SYMBOL    DATA     BYTE      j

      01002C64H   BLOCK     CODE     ---       LVL=0
      01002C64H   LINE      ---      ---       #22673
      01002C64H   BLOCK     CODE     NEAR LAB  LVL=1
      00000007H   SYMBOL    DATA     BYTE      i
      00000006H   SYMBOL    DATA     BYTE      j
      ---         BLOCKEND  CODE     ---       LVL=1
      ---         BLOCKEND  CODE     ---       LVL=0

      01002C78H   BLOCK     CODE     ---       LVL=0
      01002C78H   LINE      ---      ---       #22883
      01002C78H   BLOCK     CODE     NEAR LAB  LVL=1
      00000007H   SYMBOL    DATA     BYTE      i
      00000006H   SYMBOL    DATA     BYTE      j
      ---         BLOCKEND  CODE     ---       LVL=1
      ---         BLOCKEND  CODE     ---       LVL=0

      01002C6FH   BLOCK     CODE     ---       LVL=0
      01002C6FH   LINE      ---      ---       #23948
      01002C6FH   BLOCK     CODE     NEAR LAB  LVL=1
      00000007H   SYMBOL    DATA     BYTE      i
      00000006H   SYMBOL    DATA     BYTE      j
      ---         BLOCKEND  CODE     ---       LVL=1
      ---         BLOCKEND  CODE     ---       LVL=0

      01002CA0H   BLOCK     CODE     ---       LVL=0
      01002CA0H   LINE      ---      ---       #25493
      01002CA0H   BLOCK     CODE     NEAR LAB  LVL=1
      00000007H   SYMBOL    DATA     BYTE      i
      00000006H   SYMBOL    DATA     BYTE      j
      ---         BLOCKEND  CODE     ---       LVL=1
      ---         BLOCKEND  CODE     ---       LVL=0

      01002CA9H   BLOCK     CODE     ---       LVL=0
      01002CA9H   LINE      ---      ---       #25790
      01002CA9H   BLOCK     CODE     NEAR LAB  LVL=1
      00000007H   SYMBOL    DATA     BYTE      i
      00000006H   SYMBOL    DATA     BYTE      j
      00000005H   SYMBOL    DATA     BYTE      k
      ---         BLOCKEND  CODE     ---       LVL=1
      ---         BLOCKEND  CODE     ---       LVL=0

      01002CB6H   BLOCK     CODE     ---       LVL=0
      01002CB6H   LINE      ---      ---       #26090
      01002CB6H   BLOCK     CODE     NEAR LAB  LVL=1
      00000007H   SYMBOL    DATA     BYTE      i
      00000006H   SYMBOL    DATA     BYTE      j
      00000005H   SYMBOL    DATA     BYTE      k
      ---         BLOCKEND  CODE     ---       LVL=1
      ---         BLOCKEND  CODE     ---       LVL=0

      01002CC3H   BLOCK     CODE     ---       LVL=0
      01002CC3H   LINE      ---      ---       #26645
      01002CC3H   BLOCK     CODE     NEAR LAB  LVL=1
LX51 LINKER/LOCATER V4.66.93.0                                                        05/08/2020  19:08:08  PAGE 41


      00000007H   SYMBOL    DATA     BYTE      i
      00000006H   SYMBOL    DATA     BYTE      j
      00000005H   SYMBOL    DATA     BYTE      k
      ---         BLOCKEND  CODE     ---       LVL=1
      ---         BLOCKEND  CODE     ---       LVL=0

      01002CD2H   BLOCK     CODE     ---       LVL=0
      01002CD2H   LINE      ---      ---       #27785
      01002CD2H   BLOCK     CODE     NEAR LAB  LVL=1
      00000007H   SYMBOL    DATA     BYTE      i
      00000006H   SYMBOL    DATA     BYTE      j
      00000005H   SYMBOL    DATA     BYTE      k
      ---         BLOCKEND  CODE     ---       LVL=1
      ---         BLOCKEND  CODE     ---       LVL=0

      ---         MODULE    ---      ---       EEPROM
      01002BE5H   PUBLIC    CODE     ---       _EEPROMErase
      01002BC3H   PUBLIC    CODE     ---       _EEPROMWrite
      01002BFAH   PUBLIC    CODE     ---       _EEPROMRead_MOVEC
      000000D8H.2 SFRSYM    DATA     BIT       CCF2
      00000092H   SFRSYM    DATA     BYTE      P1M0
      00000093H   SFRSYM    DATA     BYTE      P0M1
      000000D8H.3 SFRSYM    DATA     BIT       CCF3
      00000096H   SFRSYM    DATA     BYTE      P2M0
      00000091H   SFRSYM    DATA     BYTE      P1M1
      00000080H   SFRSYM    DATA     BYTE      P0
      000000B2H   SFRSYM    DATA     BYTE      P3M0
      00000095H   SFRSYM    DATA     BYTE      P2M1
      00000090H   SFRSYM    DATA     BYTE      P1
      000000B4H   SFRSYM    DATA     BYTE      P4M0
      000000B1H   SFRSYM    DATA     BYTE      P3M1
      000000A0H   SFRSYM    DATA     BYTE      P2
      000000ABH   SFRSYM    DATA     BYTE      WKTCH
      000000CAH   SFRSYM    DATA     BYTE      P5M0
      000000B3H   SFRSYM    DATA     BYTE      P4M1
      000000B0H   SFRSYM    DATA     BYTE      P3
      000000CCH   SFRSYM    DATA     BYTE      P6M0
      000000C9H   SFRSYM    DATA     BYTE      P5M1
      000000C0H   SFRSYM    DATA     BYTE      P4
      000000D0H.6 SFRSYM    DATA     BIT       AC
      000000F6H   SFRSYM    DATA     BYTE      PWMIF
      000000C6H   SFRSYM    DATA     BYTE      ISP_TRIG
      000000E2H   SFRSYM    DATA     BYTE      P7M0
      000000CBH   SFRSYM    DATA     BYTE      P6M1
      000000C8H   SFRSYM    DATA     BYTE      P5
      000000A8H.7 SFRSYM    DATA     BIT       EA
      000000E1H   SFRSYM    DATA     BYTE      P7M1
      000000E8H   SFRSYM    DATA     BYTE      P6
      000000C0H.2 SFRSYM    DATA     BIT       LED1
      000000AAH   SFRSYM    DATA     BYTE      WKTCL
      000000F8H   SFRSYM    DATA     BYTE      P7
      000000C0H.3 SFRSYM    DATA     BIT       LED2
      000000CEH   SFRSYM    DATA     BYTE      SPCTL
      000000C0H.4 SFRSYM    DATA     BIT       LED3
      000000D8H.7 SFRSYM    DATA     BIT       CF
      000000FEH   SFRSYM    DATA     BYTE      PWMCR
      000000F9H   SFRSYM    DATA     BYTE      CH
      000000A2H   SFRSYM    DATA     BYTE      P_SW1
      000000BAH   SFRSYM    DATA     BYTE      P_SW2
      000000A8H.5 SFRSYM    DATA     BIT       EADC
      000000A8H   SFRSYM    DATA     BYTE      IE
      000000E5H   SFRSYM    DATA     BYTE      DPH1
      000000E9H   SFRSYM    DATA     BYTE      CL
      000000C5H   SFRSYM    DATA     BYTE      IAP_CMD
      000000FAH   SFRSYM    DATA     BYTE      CCAP0H
LX51 LINKER/LOCATER V4.66.93.0                                                        05/08/2020  19:08:08  PAGE 42


      000000B0H.2 SFRSYM    DATA     BIT       LCD1602_EN
      00000090H.0 SFRSYM    DATA     BIT       LED_RED
      000000FBH   SFRSYM    DATA     BYTE      CCAP1H
      000000E4H   SFRSYM    DATA     BYTE      DPL1
      000000FCH   SFRSYM    DATA     BYTE      CCAP2H
      000000FDH   SFRSYM    DATA     BYTE      CCAP3H
      000000BDH   SFRSYM    DATA     BYTE      ADC_RES
      000000B6H   SFRSYM    DATA     BYTE      IP2H
      000000EAH   SFRSYM    DATA     BYTE      CCAP0L
      000000D8H.6 SFRSYM    DATA     BIT       CR
      000000AEH   SFRSYM    DATA     BYTE      TA
      000000F7H   SFRSYM    DATA     BYTE      PWMFDCR
      000000EBH   SFRSYM    DATA     BYTE      CCAP1L
      000000DAH   SFRSYM    DATA     BYTE      CCAPM0
      000000ECH   SFRSYM    DATA     BYTE      CCAP2L
      000000DBH   SFRSYM    DATA     BYTE      CCAPM1
      0000008FH   SFRSYM    DATA     BYTE      INTCLKO
      000000EDH   SFRSYM    DATA     BYTE      CCAP3L
      000000DCH   SFRSYM    DATA     BYTE      CCAPM2
      000000A8H.4 SFRSYM    DATA     BIT       ES
      000000DDH   SFRSYM    DATA     BYTE      CCAPM3
      000000B8H.5 SFRSYM    DATA     BIT       PADC
      000000B8H   SFRSYM    DATA     BYTE      IP
      000000DEH   SFRSYM    DATA     BYTE      ADCCFG
      00000098H.0 SFRSYM    DATA     BIT       RI
      000000D0H.7 SFRSYM    DATA     BIT       CY
      00000098H.1 SFRSYM    DATA     BIT       TI
      000000C3H   SFRSYM    DATA     BYTE      IAP_ADDRH
      000000C0H.1 SFRSYM    DATA     BIT       DS18B20_DATA
      000000C5H   SFRSYM    DATA     BYTE      ISP_CMD
      000000B8H.4 SFRSYM    DATA     BIT       PS
      00000081H   SFRSYM    DATA     BYTE      SP
      000000A0H.7 SFRSYM    DATA     BIT       LCD1602_Busy
      000000B0H.5 SFRSYM    DATA     BIT       LCD1602_RS
      000000D9H   SFRSYM    DATA     BYTE      CMOD
      000000D8H   SFRSYM    DATA     BYTE      CCON
      000000C4H   SFRSYM    DATA     BYTE      IAP_ADDRL
      000000B8H.7 SFRSYM    DATA     BIT       PPCA
      000000D0H.2 SFRSYM    DATA     BIT       OV
      000000B0H.4 SFRSYM    DATA     BIT       LCD1602_RW
      000000E6H   SFRSYM    DATA     BYTE      CMPCR1
      00000090H.1 SFRSYM    DATA     BIT       LED_GREEN
      000000E7H   SFRSYM    DATA     BYTE      CMPCR2
      000000A8H.6 SFRSYM    DATA     BIT       ELVD
      00000080H.0 SFRSYM    DATA     BIT       P00
      000000BCH   SFRSYM    DATA     BYTE      ADC_CONTR
      00000099H   SFRSYM    DATA     BYTE      SBUF
      00000087H   SFRSYM    DATA     BYTE      PCON
      00000090H.0 SFRSYM    DATA     BIT       P10
      00000080H.1 SFRSYM    DATA     BIT       P01
      000000C3H   SFRSYM    DATA     BYTE      ISP_ADDRH
      000000A0H.0 SFRSYM    DATA     BIT       P20
      00000090H.1 SFRSYM    DATA     BIT       P11
      00000080H.2 SFRSYM    DATA     BIT       P02
      000000B0H.0 SFRSYM    DATA     BIT       P30
      000000A0H.1 SFRSYM    DATA     BIT       P21
      00000090H.2 SFRSYM    DATA     BIT       P12
      00000080H.3 SFRSYM    DATA     BIT       P03
      00000098H   SFRSYM    DATA     BYTE      SCON
      000000C0H.0 SFRSYM    DATA     BIT       P40
      000000B0H.1 SFRSYM    DATA     BIT       P31
      000000A0H.2 SFRSYM    DATA     BIT       P22
      00000090H.3 SFRSYM    DATA     BIT       P13
      00000080H.4 SFRSYM    DATA     BIT       P04
      00000089H   SFRSYM    DATA     BYTE      TMOD
LX51 LINKER/LOCATER V4.66.93.0                                                        05/08/2020  19:08:08  PAGE 43


      00000088H   SFRSYM    DATA     BYTE      TCON
      000000C8H.0 SFRSYM    DATA     BIT       P50
      000000C0H.1 SFRSYM    DATA     BIT       P41
      000000B0H.2 SFRSYM    DATA     BIT       P32
      000000A0H.3 SFRSYM    DATA     BIT       P23
      00000090H.4 SFRSYM    DATA     BIT       P14
      00000080H.5 SFRSYM    DATA     BIT       P05
      000000C4H   SFRSYM    DATA     BYTE      ISP_ADDRL
      000000E8H.0 SFRSYM    DATA     BIT       P60
      000000C8H.1 SFRSYM    DATA     BIT       P51
      000000C0H.2 SFRSYM    DATA     BIT       P42
      000000B0H.3 SFRSYM    DATA     BIT       P33
      000000A0H.4 SFRSYM    DATA     BIT       P24
      00000090H.5 SFRSYM    DATA     BIT       P15
      00000080H.6 SFRSYM    DATA     BIT       P06
      000000B8H.6 SFRSYM    DATA     BIT       PLVD
      000000F8H.0 SFRSYM    DATA     BIT       P70
      000000E8H.1 SFRSYM    DATA     BIT       P61
      000000C8H.2 SFRSYM    DATA     BIT       P52
      000000C0H.3 SFRSYM    DATA     BIT       P43
      000000B0H.4 SFRSYM    DATA     BIT       P34
      000000A0H.5 SFRSYM    DATA     BIT       P25
      00000090H.6 SFRSYM    DATA     BIT       P16
      00000080H.7 SFRSYM    DATA     BIT       P07
      000000F8H.1 SFRSYM    DATA     BIT       P71
      000000E8H.2 SFRSYM    DATA     BIT       P62
      000000C8H.3 SFRSYM    DATA     BIT       P53
      000000C0H.4 SFRSYM    DATA     BIT       P44
      000000B0H.5 SFRSYM    DATA     BIT       P35
      000000A0H.6 SFRSYM    DATA     BIT       P26
      00000090H.7 SFRSYM    DATA     BIT       P17
      000000F8H.2 SFRSYM    DATA     BIT       P72
      000000E8H.3 SFRSYM    DATA     BIT       P63
      000000C8H.4 SFRSYM    DATA     BIT       P54
      000000C0H.5 SFRSYM    DATA     BIT       P45
      000000B0H.6 SFRSYM    DATA     BIT       P36
      000000A0H.7 SFRSYM    DATA     BIT       P27
      000000F8H.3 SFRSYM    DATA     BIT       P73
      000000E8H.4 SFRSYM    DATA     BIT       P64
      000000C8H.5 SFRSYM    DATA     BIT       P55
      000000C0H.6 SFRSYM    DATA     BIT       P46
      000000B0H.7 SFRSYM    DATA     BIT       P37
      000000F8H.4 SFRSYM    DATA     BIT       P74
      000000E8H.5 SFRSYM    DATA     BIT       P65
      000000C8H.6 SFRSYM    DATA     BIT       P56
      000000C0H.7 SFRSYM    DATA     BIT       P47
      000000F8H.5 SFRSYM    DATA     BIT       P75
      000000E8H.6 SFRSYM    DATA     BIT       P66
      000000C8H.7 SFRSYM    DATA     BIT       P57
      000000F8H.6 SFRSYM    DATA     BIT       P76
      000000E8H.7 SFRSYM    DATA     BIT       P67
      00000088H.1 SFRSYM    DATA     BIT       IE0
      000000A1H   SFRSYM    DATA     BYTE      BUS_SPEED
      000000F8H.7 SFRSYM    DATA     BIT       P77
      00000088H.3 SFRSYM    DATA     BIT       IE1
      000000AFH   SFRSYM    DATA     BYTE      IE2
      0000008EH   SFRSYM    DATA     BYTE      AUXR
      000000F0H   SFRSYM    DATA     BYTE      B
      000000C7H   SFRSYM    DATA     BYTE      IAP_CONTR
      000000F1H   SFRSYM    DATA     BYTE      PWMCFG
      000000E0H   SFRSYM    DATA     BYTE      ACC
      000000A8H.1 SFRSYM    DATA     BIT       ET0
      00000088H.5 SFRSYM    DATA     BIT       TF0
      000000A8H.3 SFRSYM    DATA     BIT       ET1
      00000088H.7 SFRSYM    DATA     BIT       TF1
LX51 LINKER/LOCATER V4.66.93.0                                                        05/08/2020  19:08:08  PAGE 44


      000000B5H   SFRSYM    DATA     BYTE      IP2
      000000FFH   SFRSYM    DATA     BYTE      RSTCFG
      00000098H.2 SFRSYM    DATA     BIT       RB8
      0000008CH   SFRSYM    DATA     BYTE      TH0
      0000008DH   SFRSYM    DATA     BYTE      TH1
      00000088H.0 SFRSYM    DATA     BIT       IT0
      000000A8H.0 SFRSYM    DATA     BIT       EX0
      00000098H.3 SFRSYM    DATA     BIT       TB8
      000000D6H   SFRSYM    DATA     BYTE      TH2
      000000D6H   SFRSYM    DATA     BYTE      T2H
      00000088H.2 SFRSYM    DATA     BIT       IT1
      000000A8H.2 SFRSYM    DATA     BIT       EX1
      000000D4H   SFRSYM    DATA     BYTE      TH3
      000000D4H   SFRSYM    DATA     BYTE      T3H
      000000D0H.0 SFRSYM    DATA     BIT       P
      00000098H.7 SFRSYM    DATA     BIT       SM0
      000000D2H   SFRSYM    DATA     BYTE      TH4
      000000D2H   SFRSYM    DATA     BYTE      T4H
      0000008AH   SFRSYM    DATA     BYTE      TL0
      00000098H.6 SFRSYM    DATA     BIT       SM1
      0000008BH   SFRSYM    DATA     BYTE      TL1
      00000098H.5 SFRSYM    DATA     BIT       SM2
      000000D7H   SFRSYM    DATA     BYTE      TL2
      000000D7H   SFRSYM    DATA     BYTE      T2L
      000000D5H   SFRSYM    DATA     BYTE      TL3
      000000D5H   SFRSYM    DATA     BYTE      T3L
      000000D3H   SFRSYM    DATA     BYTE      TL4
      000000D3H   SFRSYM    DATA     BYTE      T4L
      000000B8H.1 SFRSYM    DATA     BIT       PT0
      000000C7H   SFRSYM    DATA     BYTE      ISP_CONTR
      000000B8H.3 SFRSYM    DATA     BIT       PT1
      000000D0H.3 SFRSYM    DATA     BIT       RS0
      000000C2H   SFRSYM    DATA     BYTE      IAP_DATA
      00000088H.4 SFRSYM    DATA     BIT       TR0
      000000D0H.4 SFRSYM    DATA     BIT       RS1
      00000088H.6 SFRSYM    DATA     BIT       TR1
      000000C1H   SFRSYM    DATA     BYTE      WDT_CONTR
      000000B8H.0 SFRSYM    DATA     BIT       PX0
      000000B8H.2 SFRSYM    DATA     BIT       PX1
      000000F2H   SFRSYM    DATA     BYTE      PCA_PWM0
      000000F3H   SFRSYM    DATA     BYTE      PCA_PWM1
      000000F4H   SFRSYM    DATA     BYTE      PCA_PWM2
      000000BBH   SFRSYM    DATA     BYTE      VOCTRL
      00000083H   SFRSYM    DATA     BYTE      DPH
      000000F5H   SFRSYM    DATA     BYTE      PCA_PWM3
      000000D1H   SFRSYM    DATA     BYTE      T4T3M
      00000080H.7 SFRSYM    DATA     BIT       LED_BLUE
      000000BEH   SFRSYM    DATA     BYTE      ADC_RESL
      00000082H   SFRSYM    DATA     BYTE      DPL
      000000CDH   SFRSYM    DATA     BYTE      SPSTAT
      000000B7H   SFRSYM    DATA     BYTE      IPH
      0000009BH   SFRSYM    DATA     BYTE      S2BUF
      000000ADH   SFRSYM    DATA     BYTE      S3BUF
      00000085H   SFRSYM    DATA     BYTE      S4BUF
      00000098H.4 SFRSYM    DATA     BIT       REN
      0000009AH   SFRSYM    DATA     BYTE      S2CON
      000000ACH   SFRSYM    DATA     BYTE      S3CON
      000000E3H   SFRSYM    DATA     BYTE      DPS
      000000C2H   SFRSYM    DATA     BYTE      ISP_DATA
      00000084H   SFRSYM    DATA     BYTE      S4CON
      000000EFH   SFRSYM    DATA     BYTE      AUXINTIF
      000000B9H   SFRSYM    DATA     BYTE      SADEN
      000000A9H   SFRSYM    DATA     BYTE      SADDR
      000000C6H   SFRSYM    DATA     BYTE      IAP_TRIG
      00000097H   SFRSYM    DATA     BYTE      AUXR2
LX51 LINKER/LOCATER V4.66.93.0                                                        05/08/2020  19:08:08  PAGE 45


      000000D0H.5 SFRSYM    DATA     BIT       F0
      000000D0H   SFRSYM    DATA     BYTE      PSW
      000000D8H.0 SFRSYM    DATA     BIT       CCF0
      000000D8H.1 SFRSYM    DATA     BIT       CCF1
      000000CFH   SFRSYM    DATA     BYTE      SPDAT
      00000094H   SFRSYM    DATA     BYTE      P0M0

      01002BFAH   BLOCK     CODE     ---       LVL=0
      01002BFAH   LINE      ---      ---       #3
      01002BFEH   LINE      ---      ---       #4
      01002BFEH   LINE      ---      ---       #5
      01002C09H   LINE      ---      ---       #6
      01002C0CH   LINE      ---      ---       #7
      00000082H   SYMBOL    DATA     WORD      addr
      ---         BLOCKEND  ---      ---       LVL=0
      00000006H   SYMBOL    DATA     WORD      addr
      00000007H   SYMBOL    DATA     BYTE      dat

      01002BAFH   BLOCK     CODE     ---       LVL=0
      01002BC3H   LINE      ---      ---       #19
      01002BC3H   LINE      ---      ---       #20
      01002BC3H   LINE      ---      ---       #21
      01002BC6H   LINE      ---      ---       #22
      01002BC9H   LINE      ---      ---       #23
      01002BCDH   LINE      ---      ---       #24
      01002BCFH   LINE      ---      ---       #25
      01002BD6H   LINE      ---      ---       #26
      01002BD9H   LINE      ---      ---       #27
      01002BAFH   SYMBOL    CODE     NEAR LAB  ?L?COM001B
      00000006H   SYMBOL    DATA     WORD      addr
      00000005H   SYMBOL    DATA     BYTE      dat
      ---         BLOCKEND  ---      ---       LVL=0

      01002BE5H   BLOCK     CODE     ---       LVL=0
      01002BE5H   LINE      ---      ---       #28
      01002BE5H   LINE      ---      ---       #29
      01002BE5H   LINE      ---      ---       #30
      01002BE8H   LINE      ---      ---       #31
      01002BEBH   LINE      ---      ---       #32
      01002BEFH   LINE      ---      ---       #33
      01002BF6H   LINE      ---      ---       #34
      01002BF9H   LINE      ---      ---       #35
      00000006H   SYMBOL    DATA     WORD      addr
      ---         BLOCKEND  ---      ---       LVL=0

      ---         MODULE    ---      ---       DS18B20
      020008C1H   PUBLIC    XDATA    ---       DS18B20ST
      0100002DH   PUBLIC    CONST    ---       DS18B20ReTransfrom
      01000025H   PUBLIC    CONST    ---       DS18B20ConvertTMaxTime
      01002928H   PUBLIC    CODE     ---       DS18B20GetTemperature
      01002C55H   PUBLIC    CODE     ---       DS18B20ConvertTemperature
      010026EBH   PUBLIC    CODE     ---       DS18B20STInit
      000000D8H.2 SFRSYM    DATA     BIT       CCF2
      00000092H   SFRSYM    DATA     BYTE      P1M0
      00000093H   SFRSYM    DATA     BYTE      P0M1
      000000D8H.3 SFRSYM    DATA     BIT       CCF3
      00000096H   SFRSYM    DATA     BYTE      P2M0
      00000091H   SFRSYM    DATA     BYTE      P1M1
      00000080H   SFRSYM    DATA     BYTE      P0
      000000B2H   SFRSYM    DATA     BYTE      P3M0
      00000095H   SFRSYM    DATA     BYTE      P2M1
      00000090H   SFRSYM    DATA     BYTE      P1
      000000B4H   SFRSYM    DATA     BYTE      P4M0
      000000B1H   SFRSYM    DATA     BYTE      P3M1
      000000A0H   SFRSYM    DATA     BYTE      P2
LX51 LINKER/LOCATER V4.66.93.0                                                        05/08/2020  19:08:08  PAGE 46


      000000ABH   SFRSYM    DATA     BYTE      WKTCH
      000000CAH   SFRSYM    DATA     BYTE      P5M0
      000000B3H   SFRSYM    DATA     BYTE      P4M1
      000000B0H   SFRSYM    DATA     BYTE      P3
      000000CCH   SFRSYM    DATA     BYTE      P6M0
      000000C9H   SFRSYM    DATA     BYTE      P5M1
      000000C0H   SFRSYM    DATA     BYTE      P4
      000000D0H.6 SFRSYM    DATA     BIT       AC
      000000F6H   SFRSYM    DATA     BYTE      PWMIF
      000000C6H   SFRSYM    DATA     BYTE      ISP_TRIG
      000000E2H   SFRSYM    DATA     BYTE      P7M0
      000000CBH   SFRSYM    DATA     BYTE      P6M1
      000000C8H   SFRSYM    DATA     BYTE      P5
      000000A8H.7 SFRSYM    DATA     BIT       EA
      000000E1H   SFRSYM    DATA     BYTE      P7M1
      000000E8H   SFRSYM    DATA     BYTE      P6
      000000C0H.2 SFRSYM    DATA     BIT       LED1
      000000AAH   SFRSYM    DATA     BYTE      WKTCL
      000000F8H   SFRSYM    DATA     BYTE      P7
      000000C0H.3 SFRSYM    DATA     BIT       LED2
      000000CEH   SFRSYM    DATA     BYTE      SPCTL
      000000C0H.4 SFRSYM    DATA     BIT       LED3
      000000D8H.7 SFRSYM    DATA     BIT       CF
      000000FEH   SFRSYM    DATA     BYTE      PWMCR
      000000F9H   SFRSYM    DATA     BYTE      CH
      000000A2H   SFRSYM    DATA     BYTE      P_SW1
      000000BAH   SFRSYM    DATA     BYTE      P_SW2
      000000A8H.5 SFRSYM    DATA     BIT       EADC
      000000A8H   SFRSYM    DATA     BYTE      IE
      000000E5H   SFRSYM    DATA     BYTE      DPH1
      000000E9H   SFRSYM    DATA     BYTE      CL
      000000C5H   SFRSYM    DATA     BYTE      IAP_CMD
      000000FAH   SFRSYM    DATA     BYTE      CCAP0H
      000000B0H.2 SFRSYM    DATA     BIT       LCD1602_EN
      00000090H.0 SFRSYM    DATA     BIT       LED_RED
      000000FBH   SFRSYM    DATA     BYTE      CCAP1H
      000000E4H   SFRSYM    DATA     BYTE      DPL1
      000000FCH   SFRSYM    DATA     BYTE      CCAP2H
      000000FDH   SFRSYM    DATA     BYTE      CCAP3H
      000000BDH   SFRSYM    DATA     BYTE      ADC_RES
      000000B6H   SFRSYM    DATA     BYTE      IP2H
      000000EAH   SFRSYM    DATA     BYTE      CCAP0L
      000000D8H.6 SFRSYM    DATA     BIT       CR
      000000AEH   SFRSYM    DATA     BYTE      TA
      000000F7H   SFRSYM    DATA     BYTE      PWMFDCR
      000000EBH   SFRSYM    DATA     BYTE      CCAP1L
      000000DAH   SFRSYM    DATA     BYTE      CCAPM0
      000000ECH   SFRSYM    DATA     BYTE      CCAP2L
      000000DBH   SFRSYM    DATA     BYTE      CCAPM1
      0000008FH   SFRSYM    DATA     BYTE      INTCLKO
      000000EDH   SFRSYM    DATA     BYTE      CCAP3L
      000000DCH   SFRSYM    DATA     BYTE      CCAPM2
      000000A8H.4 SFRSYM    DATA     BIT       ES
      000000DDH   SFRSYM    DATA     BYTE      CCAPM3
      000000B8H.5 SFRSYM    DATA     BIT       PADC
      000000B8H   SFRSYM    DATA     BYTE      IP
      000000DEH   SFRSYM    DATA     BYTE      ADCCFG
      00000098H.0 SFRSYM    DATA     BIT       RI
      000000D0H.7 SFRSYM    DATA     BIT       CY
      00000098H.1 SFRSYM    DATA     BIT       TI
      000000C3H   SFRSYM    DATA     BYTE      IAP_ADDRH
      000000C0H.1 SFRSYM    DATA     BIT       DS18B20_DATA
      000000C5H   SFRSYM    DATA     BYTE      ISP_CMD
      000000B8H.4 SFRSYM    DATA     BIT       PS
      00000081H   SFRSYM    DATA     BYTE      SP
LX51 LINKER/LOCATER V4.66.93.0                                                        05/08/2020  19:08:08  PAGE 47


      000000A0H.7 SFRSYM    DATA     BIT       LCD1602_Busy
      000000B0H.5 SFRSYM    DATA     BIT       LCD1602_RS
      000000D9H   SFRSYM    DATA     BYTE      CMOD
      000000D8H   SFRSYM    DATA     BYTE      CCON
      000000C4H   SFRSYM    DATA     BYTE      IAP_ADDRL
      000000B8H.7 SFRSYM    DATA     BIT       PPCA
      000000D0H.2 SFRSYM    DATA     BIT       OV
      000000B0H.4 SFRSYM    DATA     BIT       LCD1602_RW
      000000E6H   SFRSYM    DATA     BYTE      CMPCR1
      00000090H.1 SFRSYM    DATA     BIT       LED_GREEN
      000000E7H   SFRSYM    DATA     BYTE      CMPCR2
      000000A8H.6 SFRSYM    DATA     BIT       ELVD
      00000080H.0 SFRSYM    DATA     BIT       P00
      000000BCH   SFRSYM    DATA     BYTE      ADC_CONTR
      00000099H   SFRSYM    DATA     BYTE      SBUF
      00000087H   SFRSYM    DATA     BYTE      PCON
      00000090H.0 SFRSYM    DATA     BIT       P10
      00000080H.1 SFRSYM    DATA     BIT       P01
      000000C3H   SFRSYM    DATA     BYTE      ISP_ADDRH
      000000A0H.0 SFRSYM    DATA     BIT       P20
      00000090H.1 SFRSYM    DATA     BIT       P11
      00000080H.2 SFRSYM    DATA     BIT       P02
      000000B0H.0 SFRSYM    DATA     BIT       P30
      000000A0H.1 SFRSYM    DATA     BIT       P21
      00000090H.2 SFRSYM    DATA     BIT       P12
      00000080H.3 SFRSYM    DATA     BIT       P03
      00000098H   SFRSYM    DATA     BYTE      SCON
      000000C0H.0 SFRSYM    DATA     BIT       P40
      000000B0H.1 SFRSYM    DATA     BIT       P31
      000000A0H.2 SFRSYM    DATA     BIT       P22
      00000090H.3 SFRSYM    DATA     BIT       P13
      00000080H.4 SFRSYM    DATA     BIT       P04
      00000089H   SFRSYM    DATA     BYTE      TMOD
      00000088H   SFRSYM    DATA     BYTE      TCON
      000000C8H.0 SFRSYM    DATA     BIT       P50
      000000C0H.1 SFRSYM    DATA     BIT       P41
      000000B0H.2 SFRSYM    DATA     BIT       P32
      000000A0H.3 SFRSYM    DATA     BIT       P23
      00000090H.4 SFRSYM    DATA     BIT       P14
      00000080H.5 SFRSYM    DATA     BIT       P05
      000000C4H   SFRSYM    DATA     BYTE      ISP_ADDRL
      000000E8H.0 SFRSYM    DATA     BIT       P60
      000000C8H.1 SFRSYM    DATA     BIT       P51
      000000C0H.2 SFRSYM    DATA     BIT       P42
      000000B0H.3 SFRSYM    DATA     BIT       P33
      000000A0H.4 SFRSYM    DATA     BIT       P24
      00000090H.5 SFRSYM    DATA     BIT       P15
      00000080H.6 SFRSYM    DATA     BIT       P06
      000000B8H.6 SFRSYM    DATA     BIT       PLVD
      000000F8H.0 SFRSYM    DATA     BIT       P70
      000000E8H.1 SFRSYM    DATA     BIT       P61
      000000C8H.2 SFRSYM    DATA     BIT       P52
      000000C0H.3 SFRSYM    DATA     BIT       P43
      000000B0H.4 SFRSYM    DATA     BIT       P34
      000000A0H.5 SFRSYM    DATA     BIT       P25
      00000090H.6 SFRSYM    DATA     BIT       P16
      00000080H.7 SFRSYM    DATA     BIT       P07
      000000F8H.1 SFRSYM    DATA     BIT       P71
      000000E8H.2 SFRSYM    DATA     BIT       P62
      000000C8H.3 SFRSYM    DATA     BIT       P53
      000000C0H.4 SFRSYM    DATA     BIT       P44
      000000B0H.5 SFRSYM    DATA     BIT       P35
      000000A0H.6 SFRSYM    DATA     BIT       P26
      00000090H.7 SFRSYM    DATA     BIT       P17
      000000F8H.2 SFRSYM    DATA     BIT       P72
LX51 LINKER/LOCATER V4.66.93.0                                                        05/08/2020  19:08:08  PAGE 48


      000000E8H.3 SFRSYM    DATA     BIT       P63
      000000C8H.4 SFRSYM    DATA     BIT       P54
      000000C0H.5 SFRSYM    DATA     BIT       P45
      000000B0H.6 SFRSYM    DATA     BIT       P36
      000000A0H.7 SFRSYM    DATA     BIT       P27
      000000F8H.3 SFRSYM    DATA     BIT       P73
      000000E8H.4 SFRSYM    DATA     BIT       P64
      000000C8H.5 SFRSYM    DATA     BIT       P55
      000000C0H.6 SFRSYM    DATA     BIT       P46
      000000B0H.7 SFRSYM    DATA     BIT       P37
      000000F8H.4 SFRSYM    DATA     BIT       P74
      000000E8H.5 SFRSYM    DATA     BIT       P65
      000000C8H.6 SFRSYM    DATA     BIT       P56
      000000C0H.7 SFRSYM    DATA     BIT       P47
      000000F8H.5 SFRSYM    DATA     BIT       P75
      000000E8H.6 SFRSYM    DATA     BIT       P66
      000000C8H.7 SFRSYM    DATA     BIT       P57
      000000F8H.6 SFRSYM    DATA     BIT       P76
      000000E8H.7 SFRSYM    DATA     BIT       P67
      00000088H.1 SFRSYM    DATA     BIT       IE0
      000000A1H   SFRSYM    DATA     BYTE      BUS_SPEED
      000000F8H.7 SFRSYM    DATA     BIT       P77
      00000088H.3 SFRSYM    DATA     BIT       IE1
      000000AFH   SFRSYM    DATA     BYTE      IE2
      0000008EH   SFRSYM    DATA     BYTE      AUXR
      000000F0H   SFRSYM    DATA     BYTE      B
      000000C7H   SFRSYM    DATA     BYTE      IAP_CONTR
      000000F1H   SFRSYM    DATA     BYTE      PWMCFG
      000000E0H   SFRSYM    DATA     BYTE      ACC
      000000A8H.1 SFRSYM    DATA     BIT       ET0
      00000088H.5 SFRSYM    DATA     BIT       TF0
      000000A8H.3 SFRSYM    DATA     BIT       ET1
      00000088H.7 SFRSYM    DATA     BIT       TF1
      000000B5H   SFRSYM    DATA     BYTE      IP2
      000000FFH   SFRSYM    DATA     BYTE      RSTCFG
      00000098H.2 SFRSYM    DATA     BIT       RB8
      0000008CH   SFRSYM    DATA     BYTE      TH0
      0000008DH   SFRSYM    DATA     BYTE      TH1
      00000088H.0 SFRSYM    DATA     BIT       IT0
      000000A8H.0 SFRSYM    DATA     BIT       EX0
      00000098H.3 SFRSYM    DATA     BIT       TB8
      000000D6H   SFRSYM    DATA     BYTE      TH2
      000000D6H   SFRSYM    DATA     BYTE      T2H
      00000088H.2 SFRSYM    DATA     BIT       IT1
      000000A8H.2 SFRSYM    DATA     BIT       EX1
      000000D4H   SFRSYM    DATA     BYTE      TH3
      000000D4H   SFRSYM    DATA     BYTE      T3H
      000000D0H.0 SFRSYM    DATA     BIT       P
      00000098H.7 SFRSYM    DATA     BIT       SM0
      000000D2H   SFRSYM    DATA     BYTE      TH4
      000000D2H   SFRSYM    DATA     BYTE      T4H
      0000008AH   SFRSYM    DATA     BYTE      TL0
      00000098H.6 SFRSYM    DATA     BIT       SM1
      0000008BH   SFRSYM    DATA     BYTE      TL1
      00000098H.5 SFRSYM    DATA     BIT       SM2
      000000D7H   SFRSYM    DATA     BYTE      TL2
      000000D7H   SFRSYM    DATA     BYTE      T2L
      000000D5H   SFRSYM    DATA     BYTE      TL3
      000000D5H   SFRSYM    DATA     BYTE      T3L
      000000D3H   SFRSYM    DATA     BYTE      TL4
      000000D3H   SFRSYM    DATA     BYTE      T4L
      000000B8H.1 SFRSYM    DATA     BIT       PT0
      000000C7H   SFRSYM    DATA     BYTE      ISP_CONTR
      000000B8H.3 SFRSYM    DATA     BIT       PT1
      000000D0H.3 SFRSYM    DATA     BIT       RS0
LX51 LINKER/LOCATER V4.66.93.0                                                        05/08/2020  19:08:08  PAGE 49


      000000C2H   SFRSYM    DATA     BYTE      IAP_DATA
      00000088H.4 SFRSYM    DATA     BIT       TR0
      000000D0H.4 SFRSYM    DATA     BIT       RS1
      00000088H.6 SFRSYM    DATA     BIT       TR1
      000000C1H   SFRSYM    DATA     BYTE      WDT_CONTR
      000000B8H.0 SFRSYM    DATA     BIT       PX0
      000000B8H.2 SFRSYM    DATA     BIT       PX1
      000000F2H   SFRSYM    DATA     BYTE      PCA_PWM0
      000000F3H   SFRSYM    DATA     BYTE      PCA_PWM1
      000000F4H   SFRSYM    DATA     BYTE      PCA_PWM2
      000000BBH   SFRSYM    DATA     BYTE      VOCTRL
      00000083H   SFRSYM    DATA     BYTE      DPH
      000000F5H   SFRSYM    DATA     BYTE      PCA_PWM3
      000000D1H   SFRSYM    DATA     BYTE      T4T3M
      00000080H.7 SFRSYM    DATA     BIT       LED_BLUE
      000000BEH   SFRSYM    DATA     BYTE      ADC_RESL
      00000082H   SFRSYM    DATA     BYTE      DPL
      000000CDH   SFRSYM    DATA     BYTE      SPSTAT
      000000B7H   SFRSYM    DATA     BYTE      IPH
      0000009BH   SFRSYM    DATA     BYTE      S2BUF
      000000ADH   SFRSYM    DATA     BYTE      S3BUF
      00000085H   SFRSYM    DATA     BYTE      S4BUF
      00000098H.4 SFRSYM    DATA     BIT       REN
      0000009AH   SFRSYM    DATA     BYTE      S2CON
      000000ACH   SFRSYM    DATA     BYTE      S3CON
      000000E3H   SFRSYM    DATA     BYTE      DPS
      000000C2H   SFRSYM    DATA     BYTE      ISP_DATA
      00000084H   SFRSYM    DATA     BYTE      S4CON
      000000EFH   SFRSYM    DATA     BYTE      AUXINTIF
      000000B9H   SFRSYM    DATA     BYTE      SADEN
      000000A9H   SFRSYM    DATA     BYTE      SADDR
      000000C6H   SFRSYM    DATA     BYTE      IAP_TRIG
      00000097H   SFRSYM    DATA     BYTE      AUXR2
      000000D0H.5 SFRSYM    DATA     BIT       F0
      000000D0H   SFRSYM    DATA     BYTE      PSW
      000000D8H.0 SFRSYM    DATA     BIT       CCF0
      000000D8H.1 SFRSYM    DATA     BIT       CCF1
      000000CFH   SFRSYM    DATA     BYTE      SPDAT
      00000094H   SFRSYM    DATA     BYTE      P0M0
      010027B0H   SYMBOL    CODE     ---       DS18B20ReadByte
      01002900H   SYMBOL    CODE     ---       DS18B20Init
      01002A87H   SYMBOL    CODE     ---       _DS18B20WriteByte

      010026EBH   BLOCK     CODE     ---       LVL=0
      010026EBH   LINE      ---      ---       #11
      010026EBH   LINE      ---      ---       #12
      010026EBH   BLOCK     CODE     NEAR LAB  LVL=1
      010026EBH   LINE      ---      ---       #14
      010026FAH   LINE      ---      ---       #15
      010026FFH   LINE      ---      ---       #16
      010026FFH   LINE      ---      ---       #17
      01002703H   LINE      ---      ---       #20
      0100270BH   LINE      ---      ---       #21
      0100270DH   LINE      ---      ---       #22
      0100271BH   LINE      ---      ---       #23
      01002750H   LINE      ---      ---       #25
      01002783H   LINE      ---      ---       #27
      01002788H   LINE      ---      ---       #28
      01002788H   LINE      ---      ---       #32
      01002798H   LINE      ---      ---       #33
      01002798H   LINE      ---      ---       #34
      01002798H   LINE      ---      ---       #35
      0100279BH   LINE      ---      ---       #36
      0100279DH   LINE      ---      ---       #37
      0100279DH   LINE      ---      ---       #38
LX51 LINKER/LOCATER V4.66.93.0                                                        05/08/2020  19:08:08  PAGE 50


      010027A0H   LINE      ---      ---       #39
      010027A2H   LINE      ---      ---       #40
      010027A2H   LINE      ---      ---       #41
      010027A5H   LINE      ---      ---       #42
      010027A7H   LINE      ---      ---       #43
      010027A7H   LINE      ---      ---       #44
      010027AAH   LINE      ---      ---       #45
      010027AAH   LINE      ---      ---       #46
      010027AAH   LINE      ---      ---       #47
      010027AFH   LINE      ---      ---       #48
      010027AFH   LINE      ---      ---       #58
      00000007H   SYMBOL    DATA     BYTE      Temp
      00000022H   SYMBOL    DATA     BYTE      TH
      00000023H   SYMBOL    DATA     BYTE      TL
      ---         BLOCKEND  CODE     ---       LVL=1
      ---         BLOCKEND  CODE     ---       LVL=0

      01002C55H   BLOCK     CODE     ---       LVL=0
      01002C55H   LINE      ---      ---       #74
      01002C55H   LINE      ---      ---       #75
      01002C55H   LINE      ---      ---       #76
      01002C59H   LINE      ---      ---       #77
      01002C5AH   LINE      ---      ---       #78
      01002C5EH   LINE      ---      ---       #79
      01002C62H   LINE      ---      ---       #80
      01002C63H   LINE      ---      ---       #81
      ---         BLOCKEND  ---      ---       LVL=0

      01002928H   BLOCK     CODE     ---       LVL=0
      01002928H   LINE      ---      ---       #82
      01002928H   LINE      ---      ---       #83
      01002928H   BLOCK     CODE     NEAR LAB  LVL=1
      01002928H   LINE      ---      ---       #85
      01002931H   LINE      ---      ---       #86
      01002954H   LINE      ---      ---       #87
      01002958H   LINE      ---      ---       #88
      01002959H   LINE      ---      ---       #89
      01002967H   LINE      ---      ---       #92
      01002981H   LINE      ---      ---       #93
      0100299DH   LINE      ---      ---       #94
      010029ABH   LINE      ---      ---       #95
      010029ABH   LINE      ---      ---       #96
      010029BBH   LINE      ---      ---       #97
      010029CDH   LINE      ---      ---       #98
      010029CFH   LINE      ---      ---       #100
      010029DFH   LINE      ---      ---       #101
      010029FCH   LINE      ---      ---       #102
      010029FCH   LINE      ---      ---       #103
      01002A0DH   LINE      ---      ---       #104
      01002A12H   LINE      ---      ---       #106
      01002A29H   LINE      ---      ---       #107
      01002A31H   LINE      ---      ---       #108
      01002A43H   LINE      ---      ---       #109
      01002A4FH   LINE      ---      ---       #110
      01002A5DH   LINE      ---      ---       #111
      01002A65H   LINE      ---      ---       #112
      01002A7DH   LINE      ---      ---       #113
      01002A85H   LINE      ---      ---       #114
      01002A85H   LINE      ---      ---       #115
      01002A86H   LINE      ---      ---       #116
      02000000H   SYMBOL    PDATA    BYTE      H
      02000001H   SYMBOL    PDATA    BYTE      L
      02000002H   SYMBOL    PDATA    WORD      T
      02000004H   SYMBOL    PDATA    WORD      Base
      ---         BLOCKEND  CODE     ---       LVL=1
LX51 LINKER/LOCATER V4.66.93.0                                                        05/08/2020  19:08:08  PAGE 51


      ---         BLOCKEND  CODE     ---       LVL=0

      01002900H   BLOCK     CODE     ---       LVL=0
      01002900H   LINE      ---      ---       #118
      01002900H   LINE      ---      ---       #119
      01002900H   BLOCK     CODE     NEAR LAB  LVL=1
      01002900H   LINE      ---      ---       #120
      01002905H   LINE      ---      ---       #121
      0100290BH   LINE      ---      ---       #122
      0100290FH   LINE      ---      ---       #124
      0100290FH   LINE      ---      ---       #125
      01002911H   LINE      ---      ---       #126
      0100291BH   LINE      ---      ---       #127
      01002920H   LINE      ---      ---       #128
      01002920H   LINE      ---      ---       #132
      01002922H   LINE      ---      ---       #133
      01002922H   LINE      ---      ---       #134
      01002924H   LINE      ---      ---       #135
      01002926H   LINE      ---      ---       #136
      01002927H   LINE      ---      ---       #137
      02000006H   SYMBOL    PDATA    BYTE      i
      ---         BLOCKEND  CODE     ---       LVL=1
      ---         BLOCKEND  CODE     ---       LVL=0

      01002A87H   BLOCK     CODE     ---       LVL=0
      01002A87H   LINE      ---      ---       #138
      01002A89H   LINE      ---      ---       #139
      00000024H   SYMBOL    DATA     BYTE      Byte
      01002A89H   BLOCK     CODE     NEAR LAB  LVL=1
      01002A89H   LINE      ---      ---       #141
      01002A94H   LINE      ---      ---       #142
      01002A94H   LINE      ---      ---       #143
      01002A96H   LINE      ---      ---       #144
      01002A99H   LINE      ---      ---       #145
      01002A9EH   LINE      ---      ---       #146
      01002AA0H   LINE      ---      ---       #147
      01002AA2H   LINE      ---      ---       #148
      01002AA5H   LINE      ---      ---       #149
      01002AB2H   LINE      ---      ---       #150
      02000006H   SYMBOL    PDATA    BYTE      i
      ---         BLOCKEND  CODE     ---       LVL=1
      ---         BLOCKEND  CODE     ---       LVL=0

      010027B0H   BLOCK     CODE     ---       LVL=0
      010027BAH   LINE      ---      ---       #151
      010027BAH   LINE      ---      ---       #152
      010027B0H   SYMBOL    CODE     NEAR LAB  ?L?COM0043
      010027BAH   BLOCK     CODE     NEAR LAB  LVL=1
      010027BAH   LINE      ---      ---       #154
      010027BCH   LINE      ---      ---       #155
      010027BFH   LINE      ---      ---       #156
      010027CCH   LINE      ---      ---       #157
      010027CCH   LINE      ---      ---       #158
      010027D2H   LINE      ---      ---       #159
      010027D4H   LINE      ---      ---       #160
      010027D6H   LINE      ---      ---       #161
      010027D8H   LINE      ---      ---       #162
      010027DAH   LINE      ---      ---       #163
      010027DDH   LINE      ---      ---       #164
      010027E3H   LINE      ---      ---       #165
      010027E6H   LINE      ---      ---       #166
      010027EDH   LINE      ---      ---       #167
      010027F1H   LINE      ---      ---       #168
      02000006H   SYMBOL    PDATA    BYTE      i
      02000007H   SYMBOL    PDATA    BYTE      re
LX51 LINKER/LOCATER V4.66.93.0                                                        05/08/2020  19:08:08  PAGE 52


      ---         BLOCKEND  CODE     ---       LVL=1
      ---         BLOCKEND  CODE     ---       LVL=0

      ---         MODULE    ---      ---       GY_25
      020008BBH   PUBLIC    XDATA    ---       GY_25ST
      0100183BH   PUBLIC    CODE     ---       GY_25GetAzimuth
      010025FAH   PUBLIC    CODE     ---       _GY_25SetCmd
      01002614H   PUBLIC    CODE     ---       GY_25Init
      000000D8H.2 SFRSYM    DATA     BIT       CCF2
      00000092H   SFRSYM    DATA     BYTE      P1M0
      00000093H   SFRSYM    DATA     BYTE      P0M1
      000000D8H.3 SFRSYM    DATA     BIT       CCF3
      00000096H   SFRSYM    DATA     BYTE      P2M0
      00000091H   SFRSYM    DATA     BYTE      P1M1
      00000080H   SFRSYM    DATA     BYTE      P0
      000000B2H   SFRSYM    DATA     BYTE      P3M0
      00000095H   SFRSYM    DATA     BYTE      P2M1
      00000090H   SFRSYM    DATA     BYTE      P1
      000000B4H   SFRSYM    DATA     BYTE      P4M0
      000000B1H   SFRSYM    DATA     BYTE      P3M1
      000000A0H   SFRSYM    DATA     BYTE      P2
      000000ABH   SFRSYM    DATA     BYTE      WKTCH
      000000CAH   SFRSYM    DATA     BYTE      P5M0
      000000B3H   SFRSYM    DATA     BYTE      P4M1
      000000B0H   SFRSYM    DATA     BYTE      P3
      000000CCH   SFRSYM    DATA     BYTE      P6M0
      000000C9H   SFRSYM    DATA     BYTE      P5M1
      000000C0H   SFRSYM    DATA     BYTE      P4
      000000D0H.6 SFRSYM    DATA     BIT       AC
      000000F6H   SFRSYM    DATA     BYTE      PWMIF
      000000C6H   SFRSYM    DATA     BYTE      ISP_TRIG
      000000E2H   SFRSYM    DATA     BYTE      P7M0
      000000CBH   SFRSYM    DATA     BYTE      P6M1
      000000C8H   SFRSYM    DATA     BYTE      P5
      000000A8H.7 SFRSYM    DATA     BIT       EA
      000000E1H   SFRSYM    DATA     BYTE      P7M1
      000000E8H   SFRSYM    DATA     BYTE      P6
      000000C0H.2 SFRSYM    DATA     BIT       LED1
      000000AAH   SFRSYM    DATA     BYTE      WKTCL
      000000F8H   SFRSYM    DATA     BYTE      P7
      000000C0H.3 SFRSYM    DATA     BIT       LED2
      000000CEH   SFRSYM    DATA     BYTE      SPCTL
      000000C0H.4 SFRSYM    DATA     BIT       LED3
      000000D8H.7 SFRSYM    DATA     BIT       CF
      000000FEH   SFRSYM    DATA     BYTE      PWMCR
      000000F9H   SFRSYM    DATA     BYTE      CH
      000000A2H   SFRSYM    DATA     BYTE      P_SW1
      000000BAH   SFRSYM    DATA     BYTE      P_SW2
      000000A8H.5 SFRSYM    DATA     BIT       EADC
      000000A8H   SFRSYM    DATA     BYTE      IE
      000000E5H   SFRSYM    DATA     BYTE      DPH1
      000000E9H   SFRSYM    DATA     BYTE      CL
      000000C5H   SFRSYM    DATA     BYTE      IAP_CMD
      000000FAH   SFRSYM    DATA     BYTE      CCAP0H
      000000B0H.2 SFRSYM    DATA     BIT       LCD1602_EN
      00000090H.0 SFRSYM    DATA     BIT       LED_RED
      000000FBH   SFRSYM    DATA     BYTE      CCAP1H
      000000E4H   SFRSYM    DATA     BYTE      DPL1
      000000FCH   SFRSYM    DATA     BYTE      CCAP2H
      000000FDH   SFRSYM    DATA     BYTE      CCAP3H
      000000BDH   SFRSYM    DATA     BYTE      ADC_RES
      000000B6H   SFRSYM    DATA     BYTE      IP2H
      000000EAH   SFRSYM    DATA     BYTE      CCAP0L
      000000D8H.6 SFRSYM    DATA     BIT       CR
      000000AEH   SFRSYM    DATA     BYTE      TA
LX51 LINKER/LOCATER V4.66.93.0                                                        05/08/2020  19:08:08  PAGE 53


      000000F7H   SFRSYM    DATA     BYTE      PWMFDCR
      000000EBH   SFRSYM    DATA     BYTE      CCAP1L
      000000DAH   SFRSYM    DATA     BYTE      CCAPM0
      000000ECH   SFRSYM    DATA     BYTE      CCAP2L
      000000DBH   SFRSYM    DATA     BYTE      CCAPM1
      0000008FH   SFRSYM    DATA     BYTE      INTCLKO
      000000EDH   SFRSYM    DATA     BYTE      CCAP3L
      000000DCH   SFRSYM    DATA     BYTE      CCAPM2
      000000A8H.4 SFRSYM    DATA     BIT       ES
      000000DDH   SFRSYM    DATA     BYTE      CCAPM3
      000000B8H.5 SFRSYM    DATA     BIT       PADC
      000000B8H   SFRSYM    DATA     BYTE      IP
      000000DEH   SFRSYM    DATA     BYTE      ADCCFG
      00000098H.0 SFRSYM    DATA     BIT       RI
      000000D0H.7 SFRSYM    DATA     BIT       CY
      00000098H.1 SFRSYM    DATA     BIT       TI
      000000C3H   SFRSYM    DATA     BYTE      IAP_ADDRH
      000000C0H.1 SFRSYM    DATA     BIT       DS18B20_DATA
      000000C5H   SFRSYM    DATA     BYTE      ISP_CMD
      000000B8H.4 SFRSYM    DATA     BIT       PS
      00000081H   SFRSYM    DATA     BYTE      SP
      000000A0H.7 SFRSYM    DATA     BIT       LCD1602_Busy
      000000B0H.5 SFRSYM    DATA     BIT       LCD1602_RS
      000000D9H   SFRSYM    DATA     BYTE      CMOD
      000000D8H   SFRSYM    DATA     BYTE      CCON
      000000C4H   SFRSYM    DATA     BYTE      IAP_ADDRL
      000000B8H.7 SFRSYM    DATA     BIT       PPCA
      000000D0H.2 SFRSYM    DATA     BIT       OV
      000000B0H.4 SFRSYM    DATA     BIT       LCD1602_RW
      000000E6H   SFRSYM    DATA     BYTE      CMPCR1
      00000090H.1 SFRSYM    DATA     BIT       LED_GREEN
      000000E7H   SFRSYM    DATA     BYTE      CMPCR2
      000000A8H.6 SFRSYM    DATA     BIT       ELVD
      00000080H.0 SFRSYM    DATA     BIT       P00
      000000BCH   SFRSYM    DATA     BYTE      ADC_CONTR
      00000099H   SFRSYM    DATA     BYTE      SBUF
      00000087H   SFRSYM    DATA     BYTE      PCON
      00000090H.0 SFRSYM    DATA     BIT       P10
      00000080H.1 SFRSYM    DATA     BIT       P01
      000000C3H   SFRSYM    DATA     BYTE      ISP_ADDRH
      000000A0H.0 SFRSYM    DATA     BIT       P20
      00000090H.1 SFRSYM    DATA     BIT       P11
      00000080H.2 SFRSYM    DATA     BIT       P02
      000000B0H.0 SFRSYM    DATA     BIT       P30
      000000A0H.1 SFRSYM    DATA     BIT       P21
      00000090H.2 SFRSYM    DATA     BIT       P12
      00000080H.3 SFRSYM    DATA     BIT       P03
      00000098H   SFRSYM    DATA     BYTE      SCON
      000000C0H.0 SFRSYM    DATA     BIT       P40
      000000B0H.1 SFRSYM    DATA     BIT       P31
      000000A0H.2 SFRSYM    DATA     BIT       P22
      00000090H.3 SFRSYM    DATA     BIT       P13
      00000080H.4 SFRSYM    DATA     BIT       P04
      00000089H   SFRSYM    DATA     BYTE      TMOD
      00000088H   SFRSYM    DATA     BYTE      TCON
      000000C8H.0 SFRSYM    DATA     BIT       P50
      000000C0H.1 SFRSYM    DATA     BIT       P41
      000000B0H.2 SFRSYM    DATA     BIT       P32
      000000A0H.3 SFRSYM    DATA     BIT       P23
      00000090H.4 SFRSYM    DATA     BIT       P14
      00000080H.5 SFRSYM    DATA     BIT       P05
      000000C4H   SFRSYM    DATA     BYTE      ISP_ADDRL
      000000E8H.0 SFRSYM    DATA     BIT       P60
      000000C8H.1 SFRSYM    DATA     BIT       P51
      000000C0H.2 SFRSYM    DATA     BIT       P42
LX51 LINKER/LOCATER V4.66.93.0                                                        05/08/2020  19:08:08  PAGE 54


      000000B0H.3 SFRSYM    DATA     BIT       P33
      000000A0H.4 SFRSYM    DATA     BIT       P24
      00000090H.5 SFRSYM    DATA     BIT       P15
      00000080H.6 SFRSYM    DATA     BIT       P06
      000000B8H.6 SFRSYM    DATA     BIT       PLVD
      000000F8H.0 SFRSYM    DATA     BIT       P70
      000000E8H.1 SFRSYM    DATA     BIT       P61
      000000C8H.2 SFRSYM    DATA     BIT       P52
      000000C0H.3 SFRSYM    DATA     BIT       P43
      000000B0H.4 SFRSYM    DATA     BIT       P34
      000000A0H.5 SFRSYM    DATA     BIT       P25
      00000090H.6 SFRSYM    DATA     BIT       P16
      00000080H.7 SFRSYM    DATA     BIT       P07
      000000F8H.1 SFRSYM    DATA     BIT       P71
      000000E8H.2 SFRSYM    DATA     BIT       P62
      000000C8H.3 SFRSYM    DATA     BIT       P53
      000000C0H.4 SFRSYM    DATA     BIT       P44
      000000B0H.5 SFRSYM    DATA     BIT       P35
      000000A0H.6 SFRSYM    DATA     BIT       P26
      00000090H.7 SFRSYM    DATA     BIT       P17
      000000F8H.2 SFRSYM    DATA     BIT       P72
      000000E8H.3 SFRSYM    DATA     BIT       P63
      000000C8H.4 SFRSYM    DATA     BIT       P54
      000000C0H.5 SFRSYM    DATA     BIT       P45
      000000B0H.6 SFRSYM    DATA     BIT       P36
      000000A0H.7 SFRSYM    DATA     BIT       P27
      000000F8H.3 SFRSYM    DATA     BIT       P73
      000000E8H.4 SFRSYM    DATA     BIT       P64
      000000C8H.5 SFRSYM    DATA     BIT       P55
      000000C0H.6 SFRSYM    DATA     BIT       P46
      000000B0H.7 SFRSYM    DATA     BIT       P37
      000000F8H.4 SFRSYM    DATA     BIT       P74
      000000E8H.5 SFRSYM    DATA     BIT       P65
      000000C8H.6 SFRSYM    DATA     BIT       P56
      000000C0H.7 SFRSYM    DATA     BIT       P47
      000000F8H.5 SFRSYM    DATA     BIT       P75
      000000E8H.6 SFRSYM    DATA     BIT       P66
      000000C8H.7 SFRSYM    DATA     BIT       P57
      000000F8H.6 SFRSYM    DATA     BIT       P76
      000000E8H.7 SFRSYM    DATA     BIT       P67
      00000088H.1 SFRSYM    DATA     BIT       IE0
      000000A1H   SFRSYM    DATA     BYTE      BUS_SPEED
      000000F8H.7 SFRSYM    DATA     BIT       P77
      00000088H.3 SFRSYM    DATA     BIT       IE1
      000000AFH   SFRSYM    DATA     BYTE      IE2
      0000008EH   SFRSYM    DATA     BYTE      AUXR
      000000F0H   SFRSYM    DATA     BYTE      B
      000000C7H   SFRSYM    DATA     BYTE      IAP_CONTR
      000000F1H   SFRSYM    DATA     BYTE      PWMCFG
      000000E0H   SFRSYM    DATA     BYTE      ACC
      000000A8H.1 SFRSYM    DATA     BIT       ET0
      00000088H.5 SFRSYM    DATA     BIT       TF0
      000000A8H.3 SFRSYM    DATA     BIT       ET1
      00000088H.7 SFRSYM    DATA     BIT       TF1
      000000B5H   SFRSYM    DATA     BYTE      IP2
      000000FFH   SFRSYM    DATA     BYTE      RSTCFG
      00000098H.2 SFRSYM    DATA     BIT       RB8
      0000008CH   SFRSYM    DATA     BYTE      TH0
      0000008DH   SFRSYM    DATA     BYTE      TH1
      00000088H.0 SFRSYM    DATA     BIT       IT0
      000000A8H.0 SFRSYM    DATA     BIT       EX0
      00000098H.3 SFRSYM    DATA     BIT       TB8
      000000D6H   SFRSYM    DATA     BYTE      TH2
      000000D6H   SFRSYM    DATA     BYTE      T2H
      00000088H.2 SFRSYM    DATA     BIT       IT1
LX51 LINKER/LOCATER V4.66.93.0                                                        05/08/2020  19:08:08  PAGE 55


      000000A8H.2 SFRSYM    DATA     BIT       EX1
      000000D4H   SFRSYM    DATA     BYTE      TH3
      000000D4H   SFRSYM    DATA     BYTE      T3H
      000000D0H.0 SFRSYM    DATA     BIT       P
      00000098H.7 SFRSYM    DATA     BIT       SM0
      000000D2H   SFRSYM    DATA     BYTE      TH4
      000000D2H   SFRSYM    DATA     BYTE      T4H
      0000008AH   SFRSYM    DATA     BYTE      TL0
      00000098H.6 SFRSYM    DATA     BIT       SM1
      0000008BH   SFRSYM    DATA     BYTE      TL1
      00000098H.5 SFRSYM    DATA     BIT       SM2
      000000D7H   SFRSYM    DATA     BYTE      TL2
      000000D7H   SFRSYM    DATA     BYTE      T2L
      000000D5H   SFRSYM    DATA     BYTE      TL3
      000000D5H   SFRSYM    DATA     BYTE      T3L
      000000D3H   SFRSYM    DATA     BYTE      TL4
      000000D3H   SFRSYM    DATA     BYTE      T4L
      000000B8H.1 SFRSYM    DATA     BIT       PT0
      000000C7H   SFRSYM    DATA     BYTE      ISP_CONTR
      000000B8H.3 SFRSYM    DATA     BIT       PT1
      000000D0H.3 SFRSYM    DATA     BIT       RS0
      000000C2H   SFRSYM    DATA     BYTE      IAP_DATA
      00000088H.4 SFRSYM    DATA     BIT       TR0
      000000D0H.4 SFRSYM    DATA     BIT       RS1
      00000088H.6 SFRSYM    DATA     BIT       TR1
      000000C1H   SFRSYM    DATA     BYTE      WDT_CONTR
      000000B8H.0 SFRSYM    DATA     BIT       PX0
      000000B8H.2 SFRSYM    DATA     BIT       PX1
      000000F2H   SFRSYM    DATA     BYTE      PCA_PWM0
      000000F3H   SFRSYM    DATA     BYTE      PCA_PWM1
      000000F4H   SFRSYM    DATA     BYTE      PCA_PWM2
      000000BBH   SFRSYM    DATA     BYTE      VOCTRL
      00000083H   SFRSYM    DATA     BYTE      DPH
      000000F5H   SFRSYM    DATA     BYTE      PCA_PWM3
      000000D1H   SFRSYM    DATA     BYTE      T4T3M
      00000080H.7 SFRSYM    DATA     BIT       LED_BLUE
      000000BEH   SFRSYM    DATA     BYTE      ADC_RESL
      00000082H   SFRSYM    DATA     BYTE      DPL
      000000CDH   SFRSYM    DATA     BYTE      SPSTAT
      000000B7H   SFRSYM    DATA     BYTE      IPH
      0000009BH   SFRSYM    DATA     BYTE      S2BUF
      000000ADH   SFRSYM    DATA     BYTE      S3BUF
      00000085H   SFRSYM    DATA     BYTE      S4BUF
      00000098H.4 SFRSYM    DATA     BIT       REN
      0000009AH   SFRSYM    DATA     BYTE      S2CON
      000000ACH   SFRSYM    DATA     BYTE      S3CON
      000000E3H   SFRSYM    DATA     BYTE      DPS
      000000C2H   SFRSYM    DATA     BYTE      ISP_DATA
      00000084H   SFRSYM    DATA     BYTE      S4CON
      000000EFH   SFRSYM    DATA     BYTE      AUXINTIF
      000000B9H   SFRSYM    DATA     BYTE      SADEN
      000000A9H   SFRSYM    DATA     BYTE      SADDR
      000000C6H   SFRSYM    DATA     BYTE      IAP_TRIG
      00000097H   SFRSYM    DATA     BYTE      AUXR2
      000000D0H.5 SFRSYM    DATA     BIT       F0
      000000D0H   SFRSYM    DATA     BYTE      PSW
      000000D8H.0 SFRSYM    DATA     BIT       CCF0
      000000D8H.1 SFRSYM    DATA     BIT       CCF1
      000000CFH   SFRSYM    DATA     BYTE      SPDAT
      00000094H   SFRSYM    DATA     BYTE      P0M0

      01002614H   BLOCK     CODE     ---       LVL=0
      01002614H   LINE      ---      ---       #5
      01002614H   LINE      ---      ---       #6
      01002614H   LINE      ---      ---       #7
LX51 LINKER/LOCATER V4.66.93.0                                                        05/08/2020  19:08:08  PAGE 56


      01002623H   LINE      ---      ---       #8
      01002626H   LINE      ---      ---       #9
      01002629H   LINE      ---      ---       #10
      0100262DH   LINE      ---      ---       #11
      01002631H   LINE      ---      ---       #12
      01002635H   LINE      ---      ---       #13
      01002638H   LINE      ---      ---       #14
      0100263DH   LINE      ---      ---       #15
      0100263DH   LINE      ---      ---       #19
      ---         BLOCKEND  ---      ---       LVL=0

      010025FAH   BLOCK     CODE     ---       LVL=0
      010025FAH   LINE      ---      ---       #20
      010025FCH   LINE      ---      ---       #21
      010025FCH   LINE      ---      ---       #22
      01002600H   LINE      ---      ---       #23
      01002604H   LINE      ---      ---       #24
      01002607H   LINE      ---      ---       #25
      01002608H   LINE      ---      ---       #26
      00000029H   SYMBOL    DATA     BYTE      Cmd
      ---         BLOCKEND  ---      ---       LVL=0

      0100183BH   BLOCK     CODE     ---       LVL=0
      0100183BH   LINE      ---      ---       #27
      0100183BH   LINE      ---      ---       #28
      0100183BH   BLOCK     CODE     NEAR LAB  LVL=1
      0100183BH   LINE      ---      ---       #31
      0100183FH   LINE      ---      ---       #32
      01001845H   LINE      ---      ---       #33
      01001845H   LINE      ---      ---       #34
      0100186CH   LINE      ---      ---       #35
      0100186CH   LINE      ---      ---       #36
      0100186CH   LINE      ---      ---       #37
      01001872H   LINE      ---      ---       #38
      01001872H   LINE      ---      ---       #39
      01001874H   LINE      ---      ---       #40
      01001874H   LINE      ---      ---       #41
      01001885H   LINE      ---      ---       #43
      01001885H   LINE      ---      ---       #44
      01001887H   LINE      ---      ---       #45
      01001887H   LINE      ---      ---       #46
      01001898H   LINE      ---      ---       #48
      01001898H   LINE      ---      ---       #49
      0100189AH   LINE      ---      ---       #50
      0100189AH   LINE      ---      ---       #51
      010018B1H   LINE      ---      ---       #53
      010018B1H   LINE      ---      ---       #54
      010018B3H   LINE      ---      ---       #55
      010018B3H   LINE      ---      ---       #56
      010018B9H   LINE      ---      ---       #57
      010018BEH   LINE      ---      ---       #58
      010018BEH   LINE      ---      ---       #59
      010018BEH   LINE      ---      ---       #60
      010018C3H   LINE      ---      ---       #61
      010018C6H   LINE      ---      ---       #63
      010018C7H   LINE      ---      ---       #64
      010018C9H   LINE      ---      ---       #65
      010018D2H   LINE      ---      ---       #66
      0200002CH   SYMBOL    PDATA    BYTE      State
      020008B5H   SYMBOL    XDATA    WORD      HeadAngle
      020008B7H   SYMBOL    XDATA    WORD      PitchAngle
      020008B9H   SYMBOL    XDATA    WORD      RollAngle
      00000005H   SYMBOL    DATA     BYTE      idx1
      00000004H   SYMBOL    DATA     BYTE      idx2
      010018D2H   BLOCK     CODE     NEAR LAB  LVL=2
LX51 LINKER/LOCATER V4.66.93.0                                                        05/08/2020  19:08:08  PAGE 57


      010018D2H   LINE      ---      ---       #67
      010018D4H   LINE      ---      ---       #68
      010018D5H   LINE      ---      ---       #69
      010018D8H   LINE      ---      ---       #70
      010018ECH   LINE      ---      ---       #71
      010018F1H   LINE      ---      ---       #72
      01001905H   LINE      ---      ---       #73
      0100190AH   LINE      ---      ---       #74
      0100191EH   LINE      ---      ---       #75
      01001923H   LINE      ---      ---       #76
      01001926H   LINE      ---      ---       #77
      0100192CH   LINE      ---      ---       #78
      0100192EH   LINE      ---      ---       #79
      00000020H.2 SYMBOL    BIT      BIT       isp
      ---         BLOCKEND  CODE     ---       LVL=2
      0100192EH   LINE      ---      ---       #80
      0100192EH   LINE      ---      ---       #81
      0100192FH   LINE      ---      ---       #82
      0100192FH   LINE      CODE     ---       #82
      ---         BLOCKEND  CODE     ---       LVL=0

      ---         MODULE    ---      ---       LCD1602
      01000075H   PUBLIC    CONST    ---       LCD1602Word_Heart
      0100006DH   PUBLIC    CONST    ---       LCD1602Word_Temperature
      00000020H.4 PUBLIC    BIT      BIT       ?_LCD1602WriteCmdOrData?BIT
      010026D8H   PUBLIC    CODE     ---       _LCD1602WriteCmdOrData
      01002D10H   PUBLIC    CODE     ---       _LCD1602SetDDRAM
      00000020H.3 PUBLIC    BIT      BIT       ?_LCD1602WriteLine?BIT
      01002CDFH   PUBLIC    CODE     ---       _LCD1602WriteLine
      0100267BH   PUBLIC    CODE     ---       LCD1602Init
      000000D8H.2 SFRSYM    DATA     BIT       CCF2
      00000092H   SFRSYM    DATA     BYTE      P1M0
      00000093H   SFRSYM    DATA     BYTE      P0M1
      000000D8H.3 SFRSYM    DATA     BIT       CCF3
      00000096H   SFRSYM    DATA     BYTE      P2M0
      00000091H   SFRSYM    DATA     BYTE      P1M1
      00000080H   SFRSYM    DATA     BYTE      P0
      000000B2H   SFRSYM    DATA     BYTE      P3M0
      00000095H   SFRSYM    DATA     BYTE      P2M1
      00000090H   SFRSYM    DATA     BYTE      P1
      000000B4H   SFRSYM    DATA     BYTE      P4M0
      000000B1H   SFRSYM    DATA     BYTE      P3M1
      000000A0H   SFRSYM    DATA     BYTE      P2
      000000ABH   SFRSYM    DATA     BYTE      WKTCH
      000000CAH   SFRSYM    DATA     BYTE      P5M0
      000000B3H   SFRSYM    DATA     BYTE      P4M1
      000000B0H   SFRSYM    DATA     BYTE      P3
      000000CCH   SFRSYM    DATA     BYTE      P6M0
      000000C9H   SFRSYM    DATA     BYTE      P5M1
      000000C0H   SFRSYM    DATA     BYTE      P4
      000000D0H.6 SFRSYM    DATA     BIT       AC
      000000F6H   SFRSYM    DATA     BYTE      PWMIF
      000000C6H   SFRSYM    DATA     BYTE      ISP_TRIG
      000000E2H   SFRSYM    DATA     BYTE      P7M0
      000000CBH   SFRSYM    DATA     BYTE      P6M1
      000000C8H   SFRSYM    DATA     BYTE      P5
      000000A8H.7 SFRSYM    DATA     BIT       EA
      000000E1H   SFRSYM    DATA     BYTE      P7M1
      000000E8H   SFRSYM    DATA     BYTE      P6
      000000C0H.2 SFRSYM    DATA     BIT       LED1
      000000AAH   SFRSYM    DATA     BYTE      WKTCL
      000000F8H   SFRSYM    DATA     BYTE      P7
      000000C0H.3 SFRSYM    DATA     BIT       LED2
      000000CEH   SFRSYM    DATA     BYTE      SPCTL
      000000C0H.4 SFRSYM    DATA     BIT       LED3
LX51 LINKER/LOCATER V4.66.93.0                                                        05/08/2020  19:08:08  PAGE 58


      000000D8H.7 SFRSYM    DATA     BIT       CF
      000000FEH   SFRSYM    DATA     BYTE      PWMCR
      000000F9H   SFRSYM    DATA     BYTE      CH
      000000A2H   SFRSYM    DATA     BYTE      P_SW1
      000000BAH   SFRSYM    DATA     BYTE      P_SW2
      000000A8H.5 SFRSYM    DATA     BIT       EADC
      000000A8H   SFRSYM    DATA     BYTE      IE
      000000E5H   SFRSYM    DATA     BYTE      DPH1
      000000E9H   SFRSYM    DATA     BYTE      CL
      000000C5H   SFRSYM    DATA     BYTE      IAP_CMD
      000000FAH   SFRSYM    DATA     BYTE      CCAP0H
      000000B0H.2 SFRSYM    DATA     BIT       LCD1602_EN
      00000090H.0 SFRSYM    DATA     BIT       LED_RED
      000000FBH   SFRSYM    DATA     BYTE      CCAP1H
      000000E4H   SFRSYM    DATA     BYTE      DPL1
      000000FCH   SFRSYM    DATA     BYTE      CCAP2H
      000000FDH   SFRSYM    DATA     BYTE      CCAP3H
      000000BDH   SFRSYM    DATA     BYTE      ADC_RES
      000000B6H   SFRSYM    DATA     BYTE      IP2H
      000000EAH   SFRSYM    DATA     BYTE      CCAP0L
      000000D8H.6 SFRSYM    DATA     BIT       CR
      000000AEH   SFRSYM    DATA     BYTE      TA
      000000F7H   SFRSYM    DATA     BYTE      PWMFDCR
      000000EBH   SFRSYM    DATA     BYTE      CCAP1L
      000000DAH   SFRSYM    DATA     BYTE      CCAPM0
      000000ECH   SFRSYM    DATA     BYTE      CCAP2L
      000000DBH   SFRSYM    DATA     BYTE      CCAPM1
      0000008FH   SFRSYM    DATA     BYTE      INTCLKO
      000000EDH   SFRSYM    DATA     BYTE      CCAP3L
      000000DCH   SFRSYM    DATA     BYTE      CCAPM2
      000000A8H.4 SFRSYM    DATA     BIT       ES
      000000DDH   SFRSYM    DATA     BYTE      CCAPM3
      000000B8H.5 SFRSYM    DATA     BIT       PADC
      000000B8H   SFRSYM    DATA     BYTE      IP
      000000DEH   SFRSYM    DATA     BYTE      ADCCFG
      00000098H.0 SFRSYM    DATA     BIT       RI
      000000D0H.7 SFRSYM    DATA     BIT       CY
      00000098H.1 SFRSYM    DATA     BIT       TI
      000000C3H   SFRSYM    DATA     BYTE      IAP_ADDRH
      000000C0H.1 SFRSYM    DATA     BIT       DS18B20_DATA
      000000C5H   SFRSYM    DATA     BYTE      ISP_CMD
      000000B8H.4 SFRSYM    DATA     BIT       PS
      00000081H   SFRSYM    DATA     BYTE      SP
      000000A0H.7 SFRSYM    DATA     BIT       LCD1602_Busy
      000000B0H.5 SFRSYM    DATA     BIT       LCD1602_RS
      000000D9H   SFRSYM    DATA     BYTE      CMOD
      000000D8H   SFRSYM    DATA     BYTE      CCON
      000000C4H   SFRSYM    DATA     BYTE      IAP_ADDRL
      000000B8H.7 SFRSYM    DATA     BIT       PPCA
      000000D0H.2 SFRSYM    DATA     BIT       OV
      000000B0H.4 SFRSYM    DATA     BIT       LCD1602_RW
      000000E6H   SFRSYM    DATA     BYTE      CMPCR1
      00000090H.1 SFRSYM    DATA     BIT       LED_GREEN
      000000E7H   SFRSYM    DATA     BYTE      CMPCR2
      000000A8H.6 SFRSYM    DATA     BIT       ELVD
      00000080H.0 SFRSYM    DATA     BIT       P00
      000000BCH   SFRSYM    DATA     BYTE      ADC_CONTR
      00000099H   SFRSYM    DATA     BYTE      SBUF
      00000087H   SFRSYM    DATA     BYTE      PCON
      00000090H.0 SFRSYM    DATA     BIT       P10
      00000080H.1 SFRSYM    DATA     BIT       P01
      000000C3H   SFRSYM    DATA     BYTE      ISP_ADDRH
      000000A0H.0 SFRSYM    DATA     BIT       P20
      00000090H.1 SFRSYM    DATA     BIT       P11
      00000080H.2 SFRSYM    DATA     BIT       P02
LX51 LINKER/LOCATER V4.66.93.0                                                        05/08/2020  19:08:08  PAGE 59


      000000B0H.0 SFRSYM    DATA     BIT       P30
      000000A0H.1 SFRSYM    DATA     BIT       P21
      00000090H.2 SFRSYM    DATA     BIT       P12
      00000080H.3 SFRSYM    DATA     BIT       P03
      00000098H   SFRSYM    DATA     BYTE      SCON
      000000C0H.0 SFRSYM    DATA     BIT       P40
      000000B0H.1 SFRSYM    DATA     BIT       P31
      000000A0H.2 SFRSYM    DATA     BIT       P22
      00000090H.3 SFRSYM    DATA     BIT       P13
      00000080H.4 SFRSYM    DATA     BIT       P04
      00000089H   SFRSYM    DATA     BYTE      TMOD
      00000088H   SFRSYM    DATA     BYTE      TCON
      000000C8H.0 SFRSYM    DATA     BIT       P50
      000000C0H.1 SFRSYM    DATA     BIT       P41
      000000B0H.2 SFRSYM    DATA     BIT       P32
      000000A0H.3 SFRSYM    DATA     BIT       P23
      00000090H.4 SFRSYM    DATA     BIT       P14
      00000080H.5 SFRSYM    DATA     BIT       P05
      000000C4H   SFRSYM    DATA     BYTE      ISP_ADDRL
      000000E8H.0 SFRSYM    DATA     BIT       P60
      000000C8H.1 SFRSYM    DATA     BIT       P51
      000000C0H.2 SFRSYM    DATA     BIT       P42
      000000B0H.3 SFRSYM    DATA     BIT       P33
      000000A0H.4 SFRSYM    DATA     BIT       P24
      00000090H.5 SFRSYM    DATA     BIT       P15
      00000080H.6 SFRSYM    DATA     BIT       P06
      000000B8H.6 SFRSYM    DATA     BIT       PLVD
      000000F8H.0 SFRSYM    DATA     BIT       P70
      000000E8H.1 SFRSYM    DATA     BIT       P61
      000000C8H.2 SFRSYM    DATA     BIT       P52
      000000C0H.3 SFRSYM    DATA     BIT       P43
      000000B0H.4 SFRSYM    DATA     BIT       P34
      000000A0H.5 SFRSYM    DATA     BIT       P25
      00000090H.6 SFRSYM    DATA     BIT       P16
      00000080H.7 SFRSYM    DATA     BIT       P07
      000000F8H.1 SFRSYM    DATA     BIT       P71
      000000E8H.2 SFRSYM    DATA     BIT       P62
      000000C8H.3 SFRSYM    DATA     BIT       P53
      000000C0H.4 SFRSYM    DATA     BIT       P44
      000000B0H.5 SFRSYM    DATA     BIT       P35
      000000A0H.6 SFRSYM    DATA     BIT       P26
      00000090H.7 SFRSYM    DATA     BIT       P17
      000000F8H.2 SFRSYM    DATA     BIT       P72
      000000E8H.3 SFRSYM    DATA     BIT       P63
      000000C8H.4 SFRSYM    DATA     BIT       P54
      000000C0H.5 SFRSYM    DATA     BIT       P45
      000000B0H.6 SFRSYM    DATA     BIT       P36
      000000A0H.7 SFRSYM    DATA     BIT       P27
      000000F8H.3 SFRSYM    DATA     BIT       P73
      000000E8H.4 SFRSYM    DATA     BIT       P64
      000000C8H.5 SFRSYM    DATA     BIT       P55
      000000C0H.6 SFRSYM    DATA     BIT       P46
      000000B0H.7 SFRSYM    DATA     BIT       P37
      000000F8H.4 SFRSYM    DATA     BIT       P74
      000000E8H.5 SFRSYM    DATA     BIT       P65
      000000C8H.6 SFRSYM    DATA     BIT       P56
      000000C0H.7 SFRSYM    DATA     BIT       P47
      000000F8H.5 SFRSYM    DATA     BIT       P75
      000000E8H.6 SFRSYM    DATA     BIT       P66
      000000C8H.7 SFRSYM    DATA     BIT       P57
      000000F8H.6 SFRSYM    DATA     BIT       P76
      000000E8H.7 SFRSYM    DATA     BIT       P67
      00000088H.1 SFRSYM    DATA     BIT       IE0
      000000A1H   SFRSYM    DATA     BYTE      BUS_SPEED
      000000F8H.7 SFRSYM    DATA     BIT       P77
LX51 LINKER/LOCATER V4.66.93.0                                                        05/08/2020  19:08:08  PAGE 60


      00000088H.3 SFRSYM    DATA     BIT       IE1
      000000AFH   SFRSYM    DATA     BYTE      IE2
      0000008EH   SFRSYM    DATA     BYTE      AUXR
      000000F0H   SFRSYM    DATA     BYTE      B
      000000C7H   SFRSYM    DATA     BYTE      IAP_CONTR
      000000F1H   SFRSYM    DATA     BYTE      PWMCFG
      000000E0H   SFRSYM    DATA     BYTE      ACC
      000000A8H.1 SFRSYM    DATA     BIT       ET0
      00000088H.5 SFRSYM    DATA     BIT       TF0
      000000A8H.3 SFRSYM    DATA     BIT       ET1
      00000088H.7 SFRSYM    DATA     BIT       TF1
      000000B5H   SFRSYM    DATA     BYTE      IP2
      000000FFH   SFRSYM    DATA     BYTE      RSTCFG
      00000098H.2 SFRSYM    DATA     BIT       RB8
      0000008CH   SFRSYM    DATA     BYTE      TH0
      0000008DH   SFRSYM    DATA     BYTE      TH1
      00000088H.0 SFRSYM    DATA     BIT       IT0
      000000A8H.0 SFRSYM    DATA     BIT       EX0
      00000098H.3 SFRSYM    DATA     BIT       TB8
      000000D6H   SFRSYM    DATA     BYTE      TH2
      000000D6H   SFRSYM    DATA     BYTE      T2H
      00000088H.2 SFRSYM    DATA     BIT       IT1
      000000A8H.2 SFRSYM    DATA     BIT       EX1
      000000D4H   SFRSYM    DATA     BYTE      TH3
      000000D4H   SFRSYM    DATA     BYTE      T3H
      000000D0H.0 SFRSYM    DATA     BIT       P
      00000098H.7 SFRSYM    DATA     BIT       SM0
      000000D2H   SFRSYM    DATA     BYTE      TH4
      000000D2H   SFRSYM    DATA     BYTE      T4H
      0000008AH   SFRSYM    DATA     BYTE      TL0
      00000098H.6 SFRSYM    DATA     BIT       SM1
      0000008BH   SFRSYM    DATA     BYTE      TL1
      00000098H.5 SFRSYM    DATA     BIT       SM2
      000000D7H   SFRSYM    DATA     BYTE      TL2
      000000D7H   SFRSYM    DATA     BYTE      T2L
      000000D5H   SFRSYM    DATA     BYTE      TL3
      000000D5H   SFRSYM    DATA     BYTE      T3L
      000000D3H   SFRSYM    DATA     BYTE      TL4
      000000D3H   SFRSYM    DATA     BYTE      T4L
      000000B8H.1 SFRSYM    DATA     BIT       PT0
      000000C7H   SFRSYM    DATA     BYTE      ISP_CONTR
      000000B8H.3 SFRSYM    DATA     BIT       PT1
      000000D0H.3 SFRSYM    DATA     BIT       RS0
      000000C2H   SFRSYM    DATA     BYTE      IAP_DATA
      00000088H.4 SFRSYM    DATA     BIT       TR0
      000000D0H.4 SFRSYM    DATA     BIT       RS1
      00000088H.6 SFRSYM    DATA     BIT       TR1
      000000C1H   SFRSYM    DATA     BYTE      WDT_CONTR
      000000B8H.0 SFRSYM    DATA     BIT       PX0
      000000B8H.2 SFRSYM    DATA     BIT       PX1
      000000F2H   SFRSYM    DATA     BYTE      PCA_PWM0
      000000F3H   SFRSYM    DATA     BYTE      PCA_PWM1
      000000F4H   SFRSYM    DATA     BYTE      PCA_PWM2
      000000BBH   SFRSYM    DATA     BYTE      VOCTRL
      00000083H   SFRSYM    DATA     BYTE      DPH
      000000F5H   SFRSYM    DATA     BYTE      PCA_PWM3
      000000D1H   SFRSYM    DATA     BYTE      T4T3M
      00000080H.7 SFRSYM    DATA     BIT       LED_BLUE
      000000BEH   SFRSYM    DATA     BYTE      ADC_RESL
      00000082H   SFRSYM    DATA     BYTE      DPL
      000000CDH   SFRSYM    DATA     BYTE      SPSTAT
      000000B7H   SFRSYM    DATA     BYTE      IPH
      0000009BH   SFRSYM    DATA     BYTE      S2BUF
      000000ADH   SFRSYM    DATA     BYTE      S3BUF
      00000085H   SFRSYM    DATA     BYTE      S4BUF
LX51 LINKER/LOCATER V4.66.93.0                                                        05/08/2020  19:08:08  PAGE 61


      00000098H.4 SFRSYM    DATA     BIT       REN
      0000009AH   SFRSYM    DATA     BYTE      S2CON
      000000ACH   SFRSYM    DATA     BYTE      S3CON
      000000E3H   SFRSYM    DATA     BYTE      DPS
      000000C2H   SFRSYM    DATA     BYTE      ISP_DATA
      00000084H   SFRSYM    DATA     BYTE      S4CON
      000000EFH   SFRSYM    DATA     BYTE      AUXINTIF
      000000B9H   SFRSYM    DATA     BYTE      SADEN
      000000A9H   SFRSYM    DATA     BYTE      SADDR
      000000C6H   SFRSYM    DATA     BYTE      IAP_TRIG
      00000097H   SFRSYM    DATA     BYTE      AUXR2
      000000D0H.5 SFRSYM    DATA     BIT       F0
      000000D0H   SFRSYM    DATA     BYTE      PSW
      000000D8H.0 SFRSYM    DATA     BIT       CCF0
      000000D8H.1 SFRSYM    DATA     BIT       CCF1
      000000CFH   SFRSYM    DATA     BYTE      SPDAT
      00000094H   SFRSYM    DATA     BYTE      P0M0
      01002C8CH   SYMBOL    CODE     ---       LCD1602Wait
      01002D20H   SYMBOL    CODE     ---       _LCD1602SetCGRAM
      010026A7H   SYMBOL    CODE     ---       _LCD1602LoadWord

      0100267BH   BLOCK     CODE     ---       LVL=0
      0100267BH   LINE      ---      ---       #11
      0100267BH   LINE      ---      ---       #12
      0100267BH   LINE      ---      ---       #13
      0100267DH   LINE      ---      ---       #14
      01002683H   LINE      ---      ---       #15
      01002689H   LINE      ---      ---       #16
      0100268FH   LINE      ---      ---       #17
      01002695H   LINE      ---      ---       #19
      0100269FH   LINE      ---      ---       #20
      ---         BLOCKEND  ---      ---       LVL=0

      01002CDFH   BLOCK     CODE     ---       LVL=0
      01002CDFH   LINE      ---      ---       #25
      01002CE5H   LINE      ---      ---       #26
      00000029H   SYMBOL    DATA     ---       Str
      00000020H.3 SYMBOL    BIT      BIT       isLine2
      01002CE5H   BLOCK     CODE     NEAR LAB  LVL=1
      01002CE5H   LINE      ---      ---       #28
      01002CF0H   LINE      ---      ---       #29
      01002D06H   LINE      ---      ---       #30
      01002D0FH   LINE      ---      ---       #31
      0000002CH   SYMBOL    DATA     BYTE      i
      ---         BLOCKEND  CODE     ---       LVL=1
      ---         BLOCKEND  CODE     ---       LVL=0
      00000007H   SYMBOL    DATA     BYTE      Idx
      00000007H   SYMBOL    DATA     BYTE      Data

      01002D10H   BLOCK     CODE     ---       LVL=0
      01002D10H   LINE      ---      ---       #58
      01002D10H   LINE      ---      ---       #59
      01002D10H   LINE      ---      ---       #60
      01002D13H   LINE      ---      ---       #61
      00000007H   SYMBOL    DATA     BYTE      idx
      ---         BLOCKEND  ---      ---       LVL=0

      010026D8H   BLOCK     CODE     ---       LVL=0
      010026D8H   LINE      ---      ---       #63
      010026DAH   LINE      ---      ---       #64
      010026DAH   LINE      ---      ---       #65
      010026DDH   LINE      ---      ---       #66
      010026E1H   LINE      ---      ---       #67
      010026E3H   LINE      ---      ---       #68
      010026E6H   LINE      ---      ---       #69
LX51 LINKER/LOCATER V4.66.93.0                                                        05/08/2020  19:08:08  PAGE 62


      010026E8H   LINE      ---      ---       #70
      010026EAH   LINE      ---      ---       #71
      0000002DH   SYMBOL    DATA     BYTE      CmdOrData
      00000020H.4 SYMBOL    BIT      BIT       isData
      ---         BLOCKEND  ---      ---       LVL=0

      010026A7H   BLOCK     CODE     ---       LVL=0
      010026A7H   LINE      ---      ---       #73
      010026AFH   LINE      ---      ---       #74
      00000022H   SYMBOL    DATA     BYTE      Idx
      00000023H   SYMBOL    DATA     ---       Word
      010026AFH   BLOCK     CODE     NEAR LAB  LVL=1
      010026AFH   LINE      ---      ---       #76
      010026B2H   LINE      ---      ---       #77
      010026B7H   LINE      ---      ---       #78
      010026BAH   LINE      ---      ---       #79
      010026C3H   LINE      ---      ---       #80
      010026D7H   LINE      ---      ---       #81
      00000026H   SYMBOL    DATA     BYTE      i
      ---         BLOCKEND  CODE     ---       LVL=1
      ---         BLOCKEND  CODE     ---       LVL=0

      01002D20H   BLOCK     CODE     ---       LVL=0
      01002D20H   LINE      ---      ---       #82
      01002D20H   LINE      ---      ---       #83
      01002D20H   LINE      ---      ---       #84
      01002D2DH   LINE      ---      ---       #85
      00000007H   SYMBOL    DATA     BYTE      idx
      ---         BLOCKEND  ---      ---       LVL=0

      01002C8CH   BLOCK     CODE     ---       LVL=0
      01002C8CH   LINE      ---      ---       #87
      01002C8CH   LINE      ---      ---       #88
      01002C8CH   BLOCK     CODE     NEAR LAB  LVL=1
      01002C8CH   LINE      ---      ---       #90
      01002C8EH   LINE      ---      ---       #91
      01002C90H   LINE      ---      ---       #93
      01002C90H   LINE      ---      ---       #94
      01002C92H   LINE      ---      ---       #95
      01002C94H   LINE      ---      ---       #96
      01002C96H   LINE      ---      ---       #97
      01002C9AH   LINE      ---      ---       #98
      01002C9CH   LINE      ---      ---       #99
      01002C9FH   LINE      ---      ---       #100
      00000020H.5 SYMBOL    BIT      BIT       isBusy
      ---         BLOCKEND  CODE     ---       LVL=1
      ---         BLOCKEND  CODE     ---       LVL=0

      ---         MODULE    ---      ---       LED
      01002AE4H   PUBLIC    CODE     ---       _LEDWrite
      01001FA7H   PUBLIC    CODE     ---       _LEDRead
      01002C0DH   PUBLIC    CODE     ---       LEDInit
      000000D8H.2 SFRSYM    DATA     BIT       CCF2
      00000092H   SFRSYM    DATA     BYTE      P1M0
      00000093H   SFRSYM    DATA     BYTE      P0M1
      000000D8H.3 SFRSYM    DATA     BIT       CCF3
      00000096H   SFRSYM    DATA     BYTE      P2M0
      00000091H   SFRSYM    DATA     BYTE      P1M1
      00000080H   SFRSYM    DATA     BYTE      P0
      000000B2H   SFRSYM    DATA     BYTE      P3M0
      00000095H   SFRSYM    DATA     BYTE      P2M1
      00000090H   SFRSYM    DATA     BYTE      P1
      000000B4H   SFRSYM    DATA     BYTE      P4M0
      000000B1H   SFRSYM    DATA     BYTE      P3M1
      000000A0H   SFRSYM    DATA     BYTE      P2
LX51 LINKER/LOCATER V4.66.93.0                                                        05/08/2020  19:08:08  PAGE 63


      000000ABH   SFRSYM    DATA     BYTE      WKTCH
      000000CAH   SFRSYM    DATA     BYTE      P5M0
      000000B3H   SFRSYM    DATA     BYTE      P4M1
      000000B0H   SFRSYM    DATA     BYTE      P3
      000000CCH   SFRSYM    DATA     BYTE      P6M0
      000000C9H   SFRSYM    DATA     BYTE      P5M1
      000000C0H   SFRSYM    DATA     BYTE      P4
      000000D0H.6 SFRSYM    DATA     BIT       AC
      000000F6H   SFRSYM    DATA     BYTE      PWMIF
      000000C6H   SFRSYM    DATA     BYTE      ISP_TRIG
      000000E2H   SFRSYM    DATA     BYTE      P7M0
      000000CBH   SFRSYM    DATA     BYTE      P6M1
      000000C8H   SFRSYM    DATA     BYTE      P5
      000000A8H.7 SFRSYM    DATA     BIT       EA
      000000E1H   SFRSYM    DATA     BYTE      P7M1
      000000E8H   SFRSYM    DATA     BYTE      P6
      000000C0H.2 SFRSYM    DATA     BIT       LED1
      000000AAH   SFRSYM    DATA     BYTE      WKTCL
      000000F8H   SFRSYM    DATA     BYTE      P7
      000000C0H.3 SFRSYM    DATA     BIT       LED2
      000000CEH   SFRSYM    DATA     BYTE      SPCTL
      000000C0H.4 SFRSYM    DATA     BIT       LED3
      000000D8H.7 SFRSYM    DATA     BIT       CF
      000000FEH   SFRSYM    DATA     BYTE      PWMCR
      000000F9H   SFRSYM    DATA     BYTE      CH
      000000A2H   SFRSYM    DATA     BYTE      P_SW1
      000000BAH   SFRSYM    DATA     BYTE      P_SW2
      000000A8H.5 SFRSYM    DATA     BIT       EADC
      000000A8H   SFRSYM    DATA     BYTE      IE
      000000E5H   SFRSYM    DATA     BYTE      DPH1
      000000E9H   SFRSYM    DATA     BYTE      CL
      000000C5H   SFRSYM    DATA     BYTE      IAP_CMD
      000000FAH   SFRSYM    DATA     BYTE      CCAP0H
      000000B0H.2 SFRSYM    DATA     BIT       LCD1602_EN
      00000090H.0 SFRSYM    DATA     BIT       LED_RED
      000000FBH   SFRSYM    DATA     BYTE      CCAP1H
      000000E4H   SFRSYM    DATA     BYTE      DPL1
      000000FCH   SFRSYM    DATA     BYTE      CCAP2H
      000000FDH   SFRSYM    DATA     BYTE      CCAP3H
      000000BDH   SFRSYM    DATA     BYTE      ADC_RES
      000000B6H   SFRSYM    DATA     BYTE      IP2H
      000000EAH   SFRSYM    DATA     BYTE      CCAP0L
      000000D8H.6 SFRSYM    DATA     BIT       CR
      000000AEH   SFRSYM    DATA     BYTE      TA
      000000F7H   SFRSYM    DATA     BYTE      PWMFDCR
      000000EBH   SFRSYM    DATA     BYTE      CCAP1L
      000000DAH   SFRSYM    DATA     BYTE      CCAPM0
      000000ECH   SFRSYM    DATA     BYTE      CCAP2L
      000000DBH   SFRSYM    DATA     BYTE      CCAPM1
      0000008FH   SFRSYM    DATA     BYTE      INTCLKO
      000000EDH   SFRSYM    DATA     BYTE      CCAP3L
      000000DCH   SFRSYM    DATA     BYTE      CCAPM2
      000000A8H.4 SFRSYM    DATA     BIT       ES
      000000DDH   SFRSYM    DATA     BYTE      CCAPM3
      000000B8H.5 SFRSYM    DATA     BIT       PADC
      000000B8H   SFRSYM    DATA     BYTE      IP
      000000DEH   SFRSYM    DATA     BYTE      ADCCFG
      00000098H.0 SFRSYM    DATA     BIT       RI
      000000D0H.7 SFRSYM    DATA     BIT       CY
      00000098H.1 SFRSYM    DATA     BIT       TI
      000000C3H   SFRSYM    DATA     BYTE      IAP_ADDRH
      000000C0H.1 SFRSYM    DATA     BIT       DS18B20_DATA
      000000C5H   SFRSYM    DATA     BYTE      ISP_CMD
      000000B8H.4 SFRSYM    DATA     BIT       PS
      00000081H   SFRSYM    DATA     BYTE      SP
LX51 LINKER/LOCATER V4.66.93.0                                                        05/08/2020  19:08:08  PAGE 64


      000000A0H.7 SFRSYM    DATA     BIT       LCD1602_Busy
      000000B0H.5 SFRSYM    DATA     BIT       LCD1602_RS
      000000D9H   SFRSYM    DATA     BYTE      CMOD
      000000D8H   SFRSYM    DATA     BYTE      CCON
      000000C4H   SFRSYM    DATA     BYTE      IAP_ADDRL
      000000B8H.7 SFRSYM    DATA     BIT       PPCA
      000000D0H.2 SFRSYM    DATA     BIT       OV
      000000B0H.4 SFRSYM    DATA     BIT       LCD1602_RW
      000000E6H   SFRSYM    DATA     BYTE      CMPCR1
      00000090H.1 SFRSYM    DATA     BIT       LED_GREEN
      000000E7H   SFRSYM    DATA     BYTE      CMPCR2
      000000A8H.6 SFRSYM    DATA     BIT       ELVD
      00000080H.0 SFRSYM    DATA     BIT       P00
      000000BCH   SFRSYM    DATA     BYTE      ADC_CONTR
      00000099H   SFRSYM    DATA     BYTE      SBUF
      00000087H   SFRSYM    DATA     BYTE      PCON
      00000090H.0 SFRSYM    DATA     BIT       P10
      00000080H.1 SFRSYM    DATA     BIT       P01
      000000C3H   SFRSYM    DATA     BYTE      ISP_ADDRH
      000000A0H.0 SFRSYM    DATA     BIT       P20
      00000090H.1 SFRSYM    DATA     BIT       P11
      00000080H.2 SFRSYM    DATA     BIT       P02
      000000B0H.0 SFRSYM    DATA     BIT       P30
      000000A0H.1 SFRSYM    DATA     BIT       P21
      00000090H.2 SFRSYM    DATA     BIT       P12
      00000080H.3 SFRSYM    DATA     BIT       P03
      00000098H   SFRSYM    DATA     BYTE      SCON
      000000C0H.0 SFRSYM    DATA     BIT       P40
      000000B0H.1 SFRSYM    DATA     BIT       P31
      000000A0H.2 SFRSYM    DATA     BIT       P22
      00000090H.3 SFRSYM    DATA     BIT       P13
      00000080H.4 SFRSYM    DATA     BIT       P04
      00000089H   SFRSYM    DATA     BYTE      TMOD
      00000088H   SFRSYM    DATA     BYTE      TCON
      000000C8H.0 SFRSYM    DATA     BIT       P50
      000000C0H.1 SFRSYM    DATA     BIT       P41
      000000B0H.2 SFRSYM    DATA     BIT       P32
      000000A0H.3 SFRSYM    DATA     BIT       P23
      00000090H.4 SFRSYM    DATA     BIT       P14
      00000080H.5 SFRSYM    DATA     BIT       P05
      000000C4H   SFRSYM    DATA     BYTE      ISP_ADDRL
      000000E8H.0 SFRSYM    DATA     BIT       P60
      000000C8H.1 SFRSYM    DATA     BIT       P51
      000000C0H.2 SFRSYM    DATA     BIT       P42
      000000B0H.3 SFRSYM    DATA     BIT       P33
      000000A0H.4 SFRSYM    DATA     BIT       P24
      00000090H.5 SFRSYM    DATA     BIT       P15
      00000080H.6 SFRSYM    DATA     BIT       P06
      000000B8H.6 SFRSYM    DATA     BIT       PLVD
      000000F8H.0 SFRSYM    DATA     BIT       P70
      000000E8H.1 SFRSYM    DATA     BIT       P61
      000000C8H.2 SFRSYM    DATA     BIT       P52
      000000C0H.3 SFRSYM    DATA     BIT       P43
      000000B0H.4 SFRSYM    DATA     BIT       P34
      000000A0H.5 SFRSYM    DATA     BIT       P25
      00000090H.6 SFRSYM    DATA     BIT       P16
      00000080H.7 SFRSYM    DATA     BIT       P07
      000000F8H.1 SFRSYM    DATA     BIT       P71
      000000E8H.2 SFRSYM    DATA     BIT       P62
      000000C8H.3 SFRSYM    DATA     BIT       P53
      000000C0H.4 SFRSYM    DATA     BIT       P44
      000000B0H.5 SFRSYM    DATA     BIT       P35
      000000A0H.6 SFRSYM    DATA     BIT       P26
      00000090H.7 SFRSYM    DATA     BIT       P17
      000000F8H.2 SFRSYM    DATA     BIT       P72
LX51 LINKER/LOCATER V4.66.93.0                                                        05/08/2020  19:08:08  PAGE 65


      000000E8H.3 SFRSYM    DATA     BIT       P63
      000000C8H.4 SFRSYM    DATA     BIT       P54
      000000C0H.5 SFRSYM    DATA     BIT       P45
      000000B0H.6 SFRSYM    DATA     BIT       P36
      000000A0H.7 SFRSYM    DATA     BIT       P27
      000000F8H.3 SFRSYM    DATA     BIT       P73
      000000E8H.4 SFRSYM    DATA     BIT       P64
      000000C8H.5 SFRSYM    DATA     BIT       P55
      000000C0H.6 SFRSYM    DATA     BIT       P46
      000000B0H.7 SFRSYM    DATA     BIT       P37
      000000F8H.4 SFRSYM    DATA     BIT       P74
      000000E8H.5 SFRSYM    DATA     BIT       P65
      000000C8H.6 SFRSYM    DATA     BIT       P56
      000000C0H.7 SFRSYM    DATA     BIT       P47
      000000F8H.5 SFRSYM    DATA     BIT       P75
      000000E8H.6 SFRSYM    DATA     BIT       P66
      000000C8H.7 SFRSYM    DATA     BIT       P57
      000000F8H.6 SFRSYM    DATA     BIT       P76
      000000E8H.7 SFRSYM    DATA     BIT       P67
      00000088H.1 SFRSYM    DATA     BIT       IE0
      000000A1H   SFRSYM    DATA     BYTE      BUS_SPEED
      000000F8H.7 SFRSYM    DATA     BIT       P77
      00000088H.3 SFRSYM    DATA     BIT       IE1
      000000AFH   SFRSYM    DATA     BYTE      IE2
      0000008EH   SFRSYM    DATA     BYTE      AUXR
      000000F0H   SFRSYM    DATA     BYTE      B
      000000C7H   SFRSYM    DATA     BYTE      IAP_CONTR
      000000F1H   SFRSYM    DATA     BYTE      PWMCFG
      000000E0H   SFRSYM    DATA     BYTE      ACC
      000000A8H.1 SFRSYM    DATA     BIT       ET0
      00000088H.5 SFRSYM    DATA     BIT       TF0
      000000A8H.3 SFRSYM    DATA     BIT       ET1
      00000088H.7 SFRSYM    DATA     BIT       TF1
      000000B5H   SFRSYM    DATA     BYTE      IP2
      000000FFH   SFRSYM    DATA     BYTE      RSTCFG
      00000098H.2 SFRSYM    DATA     BIT       RB8
      0000008CH   SFRSYM    DATA     BYTE      TH0
      0000008DH   SFRSYM    DATA     BYTE      TH1
      00000088H.0 SFRSYM    DATA     BIT       IT0
      000000A8H.0 SFRSYM    DATA     BIT       EX0
      00000098H.3 SFRSYM    DATA     BIT       TB8
      000000D6H   SFRSYM    DATA     BYTE      TH2
      000000D6H   SFRSYM    DATA     BYTE      T2H
      00000088H.2 SFRSYM    DATA     BIT       IT1
      000000A8H.2 SFRSYM    DATA     BIT       EX1
      000000D4H   SFRSYM    DATA     BYTE      TH3
      000000D4H   SFRSYM    DATA     BYTE      T3H
      000000D0H.0 SFRSYM    DATA     BIT       P
      00000098H.7 SFRSYM    DATA     BIT       SM0
      000000D2H   SFRSYM    DATA     BYTE      TH4
      000000D2H   SFRSYM    DATA     BYTE      T4H
      0000008AH   SFRSYM    DATA     BYTE      TL0
      00000098H.6 SFRSYM    DATA     BIT       SM1
      0000008BH   SFRSYM    DATA     BYTE      TL1
      00000098H.5 SFRSYM    DATA     BIT       SM2
      000000D7H   SFRSYM    DATA     BYTE      TL2
      000000D7H   SFRSYM    DATA     BYTE      T2L
      000000D5H   SFRSYM    DATA     BYTE      TL3
      000000D5H   SFRSYM    DATA     BYTE      T3L
      000000D3H   SFRSYM    DATA     BYTE      TL4
      000000D3H   SFRSYM    DATA     BYTE      T4L
      000000B8H.1 SFRSYM    DATA     BIT       PT0
      000000C7H   SFRSYM    DATA     BYTE      ISP_CONTR
      000000B8H.3 SFRSYM    DATA     BIT       PT1
      000000D0H.3 SFRSYM    DATA     BIT       RS0
LX51 LINKER/LOCATER V4.66.93.0                                                        05/08/2020  19:08:08  PAGE 66


      000000C2H   SFRSYM    DATA     BYTE      IAP_DATA
      00000088H.4 SFRSYM    DATA     BIT       TR0
      000000D0H.4 SFRSYM    DATA     BIT       RS1
      00000088H.6 SFRSYM    DATA     BIT       TR1
      000000C1H   SFRSYM    DATA     BYTE      WDT_CONTR
      000000B8H.0 SFRSYM    DATA     BIT       PX0
      000000B8H.2 SFRSYM    DATA     BIT       PX1
      000000F2H   SFRSYM    DATA     BYTE      PCA_PWM0
      000000F3H   SFRSYM    DATA     BYTE      PCA_PWM1
      000000F4H   SFRSYM    DATA     BYTE      PCA_PWM2
      000000BBH   SFRSYM    DATA     BYTE      VOCTRL
      00000083H   SFRSYM    DATA     BYTE      DPH
      000000F5H   SFRSYM    DATA     BYTE      PCA_PWM3
      000000D1H   SFRSYM    DATA     BYTE      T4T3M
      00000080H.7 SFRSYM    DATA     BIT       LED_BLUE
      000000BEH   SFRSYM    DATA     BYTE      ADC_RESL
      00000082H   SFRSYM    DATA     BYTE      DPL
      000000CDH   SFRSYM    DATA     BYTE      SPSTAT
      000000B7H   SFRSYM    DATA     BYTE      IPH
      0000009BH   SFRSYM    DATA     BYTE      S2BUF
      000000ADH   SFRSYM    DATA     BYTE      S3BUF
      00000085H   SFRSYM    DATA     BYTE      S4BUF
      00000098H.4 SFRSYM    DATA     BIT       REN
      0000009AH   SFRSYM    DATA     BYTE      S2CON
      000000ACH   SFRSYM    DATA     BYTE      S3CON
      000000E3H   SFRSYM    DATA     BYTE      DPS
      000000C2H   SFRSYM    DATA     BYTE      ISP_DATA
      00000084H   SFRSYM    DATA     BYTE      S4CON
      000000EFH   SFRSYM    DATA     BYTE      AUXINTIF
      000000B9H   SFRSYM    DATA     BYTE      SADEN
      000000A9H   SFRSYM    DATA     BYTE      SADDR
      000000C6H   SFRSYM    DATA     BYTE      IAP_TRIG
      00000097H   SFRSYM    DATA     BYTE      AUXR2
      000000D0H.5 SFRSYM    DATA     BIT       F0
      000000D0H   SFRSYM    DATA     BYTE      PSW
      000000D8H.0 SFRSYM    DATA     BIT       CCF0
      000000D8H.1 SFRSYM    DATA     BIT       CCF1
      000000CFH   SFRSYM    DATA     BYTE      SPDAT
      00000094H   SFRSYM    DATA     BYTE      P0M0

      01002C0DH   BLOCK     CODE     ---       LVL=0
      01002C0DH   LINE      ---      ---       #3
      01002C0DH   LINE      ---      ---       #4
      01002C0DH   LINE      ---      ---       #5
      01002C12H   LINE      ---      ---       #6
      01002C1AH   LINE      ---      ---       #8
      01002C1AH   LINE      ---      ---       #9
      01002C20H   LINE      ---      ---       #10
      01002C26H   LINE      ---      ---       #11
      01002C2CH   LINE      ---      ---       #12
      01002C2CH   LINE      ---      ---       #13
      01002C37H   LINE      ---      ---       #15
      01002C3AH   LINE      ---      ---       #19
      ---         BLOCKEND  ---      ---       LVL=0

      01001FA7H   BLOCK     CODE     ---       LVL=0
      01001FA7H   LINE      ---      ---       #20
      01001FA7H   LINE      ---      ---       #21
      00000007H   SYMBOL    DATA     BYTE      Idx
      01001FA7H   BLOCK     CODE     NEAR LAB  LVL=1
      01001FA7H   LINE      ---      ---       #23
      01001FB6H   LINE      ---      ---       #24
      01001FB6H   LINE      ---      ---       #25
      01001FB6H   LINE      ---      ---       #26
      01001FC2H   LINE      ---      ---       #27
LX51 LINKER/LOCATER V4.66.93.0                                                        05/08/2020  19:08:08  PAGE 67


      01001FC2H   LINE      ---      ---       #28
      01001FCEH   LINE      ---      ---       #29
      01001FCEH   LINE      ---      ---       #30
      01001FDAH   LINE      ---      ---       #31
      01001FDAH   LINE      ---      ---       #32
      01001FE5H   LINE      ---      ---       #33
      01001FE5H   LINE      ---      ---       #34
      01001FEAH   LINE      ---      ---       #35
      00000020H.2 SYMBOL    BIT      BIT       re
      ---         BLOCKEND  CODE     ---       LVL=1
      ---         BLOCKEND  CODE     ---       LVL=0

      01002AE4H   BLOCK     CODE     ---       LVL=0
      01002AE4H   LINE      ---      ---       #36
      01002AE6H   LINE      ---      ---       #37
      01002AE6H   LINE      ---      ---       #38
      01002AF9H   LINE      ---      ---       #39
      01002AF9H   LINE      ---      ---       #40
      01002AF9H   LINE      ---      ---       #41
      01002B01H   LINE      ---      ---       #42
      01002B01H   LINE      ---      ---       #43
      01002B11H   LINE      ---      ---       #45
      01002B11H   LINE      ---      ---       #46
      01002B15H   LINE      ---      ---       #47
      01002B1CH   LINE      ---      ---       #48
      01002B1EH   LINE      ---      ---       #49
      01002B22H   LINE      ---      ---       #50
      01002B26H   LINE      ---      ---       #51
      01002B26H   LINE      ---      ---       #52
      01002B26H   LINE      ---      ---       #53
      01002B28H   LINE      ---      ---       #54
      01002B28H   LINE      ---      ---       #55
      01002B30H   LINE      ---      ---       #56
      01002B30H   LINE      ---      ---       #57
      01002B40H   LINE      ---      ---       #59
      01002B40H   LINE      ---      ---       #60
      01002B42H   LINE      ---      ---       #63
      01002B46H   LINE      ---      ---       #64
      01002B4AH   LINE      ---      ---       #65
      01002B4AH   LINE      ---      ---       #66
      01002B4AH   LINE      ---      ---       #67
      01002B4CH   LINE      ---      ---       #68
      01002B4CH   LINE      ---      ---       #69
      01002B54H   LINE      ---      ---       #70
      01002B54H   LINE      ---      ---       #71
      01002B64H   LINE      ---      ---       #73
      01002B64H   LINE      ---      ---       #74
      01002B66H   LINE      ---      ---       #77
      01002B68H   LINE      ---      ---       #78
      01002B70H   LINE      ---      ---       #79
      01002B70H   LINE      ---      ---       #80
      01002B70H   LINE      ---      ---       #81
      01002B72H   LINE      ---      ---       #82
      01002B72H   LINE      ---      ---       #83
      00000007H   SYMBOL    DATA     BYTE      Idx
      00000029H   SYMBOL    DATA     BYTE      x
      01002B72H   BLOCK     CODE     NEAR LAB  LVL=1
      01002B72H   LINE      ---      ---       #84
      01002B79H   LINE      ---      ---       #85
      01002B8FH   LINE      ---      ---       #86
      01002B8FH   LINE      ---      ---       #87
      01002B95H   LINE      ---      ---       #88
      01002B95H   LINE      ---      ---       #89
      01002B99H   LINE      ---      ---       #91
      01002B9BH   LINE      ---      ---       #92
LX51 LINKER/LOCATER V4.66.93.0                                                        05/08/2020  19:08:08  PAGE 68


      01002B9FH   LINE      ---      ---       #93
      01002BA1H   LINE      ---      ---       #95
      01002BA6H   LINE      ---      ---       #96
      01002BABH   LINE      ---      ---       #97
      01002BABH   LINE      ---      ---       #98
      01002BADH   LINE      ---      ---       #99
      0000002AH   SYMBOL    DATA     BYTE      tmp
      ---         BLOCKEND  CODE     ---       LVL=1
      01002BADH   LINE      ---      ---       #100
      01002BADH   LINE      ---      ---       #101
      01002BAEH   LINE      ---      ---       #102
      01002BAEH   LINE      CODE     ---       #102

      ---         MODULE    ---      ---       CLOUDHANDLE
      02000159H   PUBLIC    XDATA    ---       CloudAct
      01001D8CH   PUBLIC    CODE     ---       CloudInit
      01001945H   PUBLIC    CODE     ---       CloudLoop
      000000D8H.2 SFRSYM    DATA     BIT       CCF2
      00000092H   SFRSYM    DATA     BYTE      P1M0
      00000093H   SFRSYM    DATA     BYTE      P0M1
      000000D8H.3 SFRSYM    DATA     BIT       CCF3
      00000096H   SFRSYM    DATA     BYTE      P2M0
      00000091H   SFRSYM    DATA     BYTE      P1M1
      00000080H   SFRSYM    DATA     BYTE      P0
      000000B2H   SFRSYM    DATA     BYTE      P3M0
      00000095H   SFRSYM    DATA     BYTE      P2M1
      00000090H   SFRSYM    DATA     BYTE      P1
      000000B4H   SFRSYM    DATA     BYTE      P4M0
      000000B1H   SFRSYM    DATA     BYTE      P3M1
      000000A0H   SFRSYM    DATA     BYTE      P2
      000000ABH   SFRSYM    DATA     BYTE      WKTCH
      000000CAH   SFRSYM    DATA     BYTE      P5M0
      000000B3H   SFRSYM    DATA     BYTE      P4M1
      000000B0H   SFRSYM    DATA     BYTE      P3
      000000CCH   SFRSYM    DATA     BYTE      P6M0
      000000C9H   SFRSYM    DATA     BYTE      P5M1
      000000C0H   SFRSYM    DATA     BYTE      P4
      000000D0H.6 SFRSYM    DATA     BIT       AC
      000000F6H   SFRSYM    DATA     BYTE      PWMIF
      000000C6H   SFRSYM    DATA     BYTE      ISP_TRIG
      000000E2H   SFRSYM    DATA     BYTE      P7M0
      000000CBH   SFRSYM    DATA     BYTE      P6M1
      000000C8H   SFRSYM    DATA     BYTE      P5
      000000A8H.7 SFRSYM    DATA     BIT       EA
      000000E1H   SFRSYM    DATA     BYTE      P7M1
      000000E8H   SFRSYM    DATA     BYTE      P6
      000000C0H.2 SFRSYM    DATA     BIT       LED1
      000000AAH   SFRSYM    DATA     BYTE      WKTCL
      000000F8H   SFRSYM    DATA     BYTE      P7
      000000C0H.3 SFRSYM    DATA     BIT       LED2
      000000CEH   SFRSYM    DATA     BYTE      SPCTL
      000000C0H.4 SFRSYM    DATA     BIT       LED3
      000000D8H.7 SFRSYM    DATA     BIT       CF
      000000FEH   SFRSYM    DATA     BYTE      PWMCR
      000000F9H   SFRSYM    DATA     BYTE      CH
      000000A2H   SFRSYM    DATA     BYTE      P_SW1
      000000BAH   SFRSYM    DATA     BYTE      P_SW2
      000000A8H.5 SFRSYM    DATA     BIT       EADC
      000000A8H   SFRSYM    DATA     BYTE      IE
      000000E5H   SFRSYM    DATA     BYTE      DPH1
      000000E9H   SFRSYM    DATA     BYTE      CL
      000000C5H   SFRSYM    DATA     BYTE      IAP_CMD
      000000FAH   SFRSYM    DATA     BYTE      CCAP0H
      000000B0H.2 SFRSYM    DATA     BIT       LCD1602_EN
      00000090H.0 SFRSYM    DATA     BIT       LED_RED
LX51 LINKER/LOCATER V4.66.93.0                                                        05/08/2020  19:08:08  PAGE 69


      000000FBH   SFRSYM    DATA     BYTE      CCAP1H
      000000E4H   SFRSYM    DATA     BYTE      DPL1
      000000FCH   SFRSYM    DATA     BYTE      CCAP2H
      000000FDH   SFRSYM    DATA     BYTE      CCAP3H
      000000BDH   SFRSYM    DATA     BYTE      ADC_RES
      000000B6H   SFRSYM    DATA     BYTE      IP2H
      000000EAH   SFRSYM    DATA     BYTE      CCAP0L
      000000D8H.6 SFRSYM    DATA     BIT       CR
      000000AEH   SFRSYM    DATA     BYTE      TA
      000000F7H   SFRSYM    DATA     BYTE      PWMFDCR
      000000EBH   SFRSYM    DATA     BYTE      CCAP1L
      000000DAH   SFRSYM    DATA     BYTE      CCAPM0
      000000ECH   SFRSYM    DATA     BYTE      CCAP2L
      000000DBH   SFRSYM    DATA     BYTE      CCAPM1
      0000008FH   SFRSYM    DATA     BYTE      INTCLKO
      000000EDH   SFRSYM    DATA     BYTE      CCAP3L
      000000DCH   SFRSYM    DATA     BYTE      CCAPM2
      000000A8H.4 SFRSYM    DATA     BIT       ES
      000000DDH   SFRSYM    DATA     BYTE      CCAPM3
      000000B8H.5 SFRSYM    DATA     BIT       PADC
      000000B8H   SFRSYM    DATA     BYTE      IP
      000000DEH   SFRSYM    DATA     BYTE      ADCCFG
      00000098H.0 SFRSYM    DATA     BIT       RI
      000000D0H.7 SFRSYM    DATA     BIT       CY
      00000098H.1 SFRSYM    DATA     BIT       TI
      000000C3H   SFRSYM    DATA     BYTE      IAP_ADDRH
      000000C0H.1 SFRSYM    DATA     BIT       DS18B20_DATA
      000000C5H   SFRSYM    DATA     BYTE      ISP_CMD
      000000B8H.4 SFRSYM    DATA     BIT       PS
      00000081H   SFRSYM    DATA     BYTE      SP
      000000A0H.7 SFRSYM    DATA     BIT       LCD1602_Busy
      000000B0H.5 SFRSYM    DATA     BIT       LCD1602_RS
      000000D9H   SFRSYM    DATA     BYTE      CMOD
      000000D8H   SFRSYM    DATA     BYTE      CCON
      000000C4H   SFRSYM    DATA     BYTE      IAP_ADDRL
      000000B8H.7 SFRSYM    DATA     BIT       PPCA
      000000D0H.2 SFRSYM    DATA     BIT       OV
      000000B0H.4 SFRSYM    DATA     BIT       LCD1602_RW
      000000E6H   SFRSYM    DATA     BYTE      CMPCR1
      00000090H.1 SFRSYM    DATA     BIT       LED_GREEN
      000000E7H   SFRSYM    DATA     BYTE      CMPCR2
      000000A8H.6 SFRSYM    DATA     BIT       ELVD
      00000080H.0 SFRSYM    DATA     BIT       P00
      000000BCH   SFRSYM    DATA     BYTE      ADC_CONTR
      00000099H   SFRSYM    DATA     BYTE      SBUF
      00000087H   SFRSYM    DATA     BYTE      PCON
      00000090H.0 SFRSYM    DATA     BIT       P10
      00000080H.1 SFRSYM    DATA     BIT       P01
      000000C3H   SFRSYM    DATA     BYTE      ISP_ADDRH
      000000A0H.0 SFRSYM    DATA     BIT       P20
      00000090H.1 SFRSYM    DATA     BIT       P11
      00000080H.2 SFRSYM    DATA     BIT       P02
      000000B0H.0 SFRSYM    DATA     BIT       P30
      000000A0H.1 SFRSYM    DATA     BIT       P21
      00000090H.2 SFRSYM    DATA     BIT       P12
      00000080H.3 SFRSYM    DATA     BIT       P03
      00000098H   SFRSYM    DATA     BYTE      SCON
      000000C0H.0 SFRSYM    DATA     BIT       P40
      000000B0H.1 SFRSYM    DATA     BIT       P31
      000000A0H.2 SFRSYM    DATA     BIT       P22
      00000090H.3 SFRSYM    DATA     BIT       P13
      00000080H.4 SFRSYM    DATA     BIT       P04
      00000089H   SFRSYM    DATA     BYTE      TMOD
      00000088H   SFRSYM    DATA     BYTE      TCON
      000000C8H.0 SFRSYM    DATA     BIT       P50
LX51 LINKER/LOCATER V4.66.93.0                                                        05/08/2020  19:08:08  PAGE 70


      000000C0H.1 SFRSYM    DATA     BIT       P41
      000000B0H.2 SFRSYM    DATA     BIT       P32
      000000A0H.3 SFRSYM    DATA     BIT       P23
      00000090H.4 SFRSYM    DATA     BIT       P14
      00000080H.5 SFRSYM    DATA     BIT       P05
      000000C4H   SFRSYM    DATA     BYTE      ISP_ADDRL
      000000E8H.0 SFRSYM    DATA     BIT       P60
      000000C8H.1 SFRSYM    DATA     BIT       P51
      000000C0H.2 SFRSYM    DATA     BIT       P42
      000000B0H.3 SFRSYM    DATA     BIT       P33
      000000A0H.4 SFRSYM    DATA     BIT       P24
      00000090H.5 SFRSYM    DATA     BIT       P15
      00000080H.6 SFRSYM    DATA     BIT       P06
      000000B8H.6 SFRSYM    DATA     BIT       PLVD
      000000F8H.0 SFRSYM    DATA     BIT       P70
      000000E8H.1 SFRSYM    DATA     BIT       P61
      000000C8H.2 SFRSYM    DATA     BIT       P52
      000000C0H.3 SFRSYM    DATA     BIT       P43
      000000B0H.4 SFRSYM    DATA     BIT       P34
      000000A0H.5 SFRSYM    DATA     BIT       P25
      00000090H.6 SFRSYM    DATA     BIT       P16
      00000080H.7 SFRSYM    DATA     BIT       P07
      000000F8H.1 SFRSYM    DATA     BIT       P71
      000000E8H.2 SFRSYM    DATA     BIT       P62
      000000C8H.3 SFRSYM    DATA     BIT       P53
      000000C0H.4 SFRSYM    DATA     BIT       P44
      000000B0H.5 SFRSYM    DATA     BIT       P35
      000000A0H.6 SFRSYM    DATA     BIT       P26
      00000090H.7 SFRSYM    DATA     BIT       P17
      000000F8H.2 SFRSYM    DATA     BIT       P72
      000000E8H.3 SFRSYM    DATA     BIT       P63
      000000C8H.4 SFRSYM    DATA     BIT       P54
      000000C0H.5 SFRSYM    DATA     BIT       P45
      000000B0H.6 SFRSYM    DATA     BIT       P36
      000000A0H.7 SFRSYM    DATA     BIT       P27
      000000F8H.3 SFRSYM    DATA     BIT       P73
      000000E8H.4 SFRSYM    DATA     BIT       P64
      000000C8H.5 SFRSYM    DATA     BIT       P55
      000000C0H.6 SFRSYM    DATA     BIT       P46
      000000B0H.7 SFRSYM    DATA     BIT       P37
      000000F8H.4 SFRSYM    DATA     BIT       P74
      000000E8H.5 SFRSYM    DATA     BIT       P65
      000000C8H.6 SFRSYM    DATA     BIT       P56
      000000C0H.7 SFRSYM    DATA     BIT       P47
      000000F8H.5 SFRSYM    DATA     BIT       P75
      000000E8H.6 SFRSYM    DATA     BIT       P66
      000000C8H.7 SFRSYM    DATA     BIT       P57
      000000F8H.6 SFRSYM    DATA     BIT       P76
      000000E8H.7 SFRSYM    DATA     BIT       P67
      00000088H.1 SFRSYM    DATA     BIT       IE0
      000000A1H   SFRSYM    DATA     BYTE      BUS_SPEED
      000000F8H.7 SFRSYM    DATA     BIT       P77
      00000088H.3 SFRSYM    DATA     BIT       IE1
      000000AFH   SFRSYM    DATA     BYTE      IE2
      0000008EH   SFRSYM    DATA     BYTE      AUXR
      000000F0H   SFRSYM    DATA     BYTE      B
      000000C7H   SFRSYM    DATA     BYTE      IAP_CONTR
      000000F1H   SFRSYM    DATA     BYTE      PWMCFG
      000000E0H   SFRSYM    DATA     BYTE      ACC
      000000A8H.1 SFRSYM    DATA     BIT       ET0
      00000088H.5 SFRSYM    DATA     BIT       TF0
      000000A8H.3 SFRSYM    DATA     BIT       ET1
      00000088H.7 SFRSYM    DATA     BIT       TF1
      000000B5H   SFRSYM    DATA     BYTE      IP2
      000000FFH   SFRSYM    DATA     BYTE      RSTCFG
LX51 LINKER/LOCATER V4.66.93.0                                                        05/08/2020  19:08:08  PAGE 71


      00000098H.2 SFRSYM    DATA     BIT       RB8
      0000008CH   SFRSYM    DATA     BYTE      TH0
      0000008DH   SFRSYM    DATA     BYTE      TH1
      00000088H.0 SFRSYM    DATA     BIT       IT0
      000000A8H.0 SFRSYM    DATA     BIT       EX0
      00000098H.3 SFRSYM    DATA     BIT       TB8
      000000D6H   SFRSYM    DATA     BYTE      TH2
      000000D6H   SFRSYM    DATA     BYTE      T2H
      00000088H.2 SFRSYM    DATA     BIT       IT1
      000000A8H.2 SFRSYM    DATA     BIT       EX1
      000000D4H   SFRSYM    DATA     BYTE      TH3
      000000D4H   SFRSYM    DATA     BYTE      T3H
      000000D0H.0 SFRSYM    DATA     BIT       P
      00000098H.7 SFRSYM    DATA     BIT       SM0
      000000D2H   SFRSYM    DATA     BYTE      TH4
      000000D2H   SFRSYM    DATA     BYTE      T4H
      0000008AH   SFRSYM    DATA     BYTE      TL0
      00000098H.6 SFRSYM    DATA     BIT       SM1
      0000008BH   SFRSYM    DATA     BYTE      TL1
      00000098H.5 SFRSYM    DATA     BIT       SM2
      000000D7H   SFRSYM    DATA     BYTE      TL2
      000000D7H   SFRSYM    DATA     BYTE      T2L
      000000D5H   SFRSYM    DATA     BYTE      TL3
      000000D5H   SFRSYM    DATA     BYTE      T3L
      000000D3H   SFRSYM    DATA     BYTE      TL4
      000000D3H   SFRSYM    DATA     BYTE      T4L
      000000B8H.1 SFRSYM    DATA     BIT       PT0
      000000C7H   SFRSYM    DATA     BYTE      ISP_CONTR
      000000B8H.3 SFRSYM    DATA     BIT       PT1
      000000D0H.3 SFRSYM    DATA     BIT       RS0
      000000C2H   SFRSYM    DATA     BYTE      IAP_DATA
      00000088H.4 SFRSYM    DATA     BIT       TR0
      000000D0H.4 SFRSYM    DATA     BIT       RS1
      00000088H.6 SFRSYM    DATA     BIT       TR1
      000000C1H   SFRSYM    DATA     BYTE      WDT_CONTR
      000000B8H.0 SFRSYM    DATA     BIT       PX0
      000000B8H.2 SFRSYM    DATA     BIT       PX1
      000000F2H   SFRSYM    DATA     BYTE      PCA_PWM0
      000000F3H   SFRSYM    DATA     BYTE      PCA_PWM1
      000000F4H   SFRSYM    DATA     BYTE      PCA_PWM2
      000000BBH   SFRSYM    DATA     BYTE      VOCTRL
      00000083H   SFRSYM    DATA     BYTE      DPH
      000000F5H   SFRSYM    DATA     BYTE      PCA_PWM3
      000000D1H   SFRSYM    DATA     BYTE      T4T3M
      00000080H.7 SFRSYM    DATA     BIT       LED_BLUE
      000000BEH   SFRSYM    DATA     BYTE      ADC_RESL
      00000082H   SFRSYM    DATA     BYTE      DPL
      000000CDH   SFRSYM    DATA     BYTE      SPSTAT
      000000B7H   SFRSYM    DATA     BYTE      IPH
      0000009BH   SFRSYM    DATA     BYTE      S2BUF
      000000ADH   SFRSYM    DATA     BYTE      S3BUF
      00000085H   SFRSYM    DATA     BYTE      S4BUF
      00000098H.4 SFRSYM    DATA     BIT       REN
      0000009AH   SFRSYM    DATA     BYTE      S2CON
      000000ACH   SFRSYM    DATA     BYTE      S3CON
      000000E3H   SFRSYM    DATA     BYTE      DPS
      000000C2H   SFRSYM    DATA     BYTE      ISP_DATA
      00000084H   SFRSYM    DATA     BYTE      S4CON
      000000EFH   SFRSYM    DATA     BYTE      AUXINTIF
      000000B9H   SFRSYM    DATA     BYTE      SADEN
      000000A9H   SFRSYM    DATA     BYTE      SADDR
      000000C6H   SFRSYM    DATA     BYTE      IAP_TRIG
      00000097H   SFRSYM    DATA     BYTE      AUXR2
      000000D0H.5 SFRSYM    DATA     BIT       F0
      000000D0H   SFRSYM    DATA     BYTE      PSW
LX51 LINKER/LOCATER V4.66.93.0                                                        05/08/2020  19:08:08  PAGE 72


      000000D8H.0 SFRSYM    DATA     BIT       CCF0
      000000D8H.1 SFRSYM    DATA     BIT       CCF1
      000000CFH   SFRSYM    DATA     BYTE      SPDAT
      00000094H   SFRSYM    DATA     BYTE      P0M0
      0200002DH   SYMBOL    XDATA    ---       CloudSendData
      0100137DH   SYMBOL    CODE     ---       _CloudSend
      01002131H   SYMBOL    CODE     ---       CloudHandleReceive
      02000187H   SYMBOL    XDATA    ---       CloudReceiveBuffer
      020003DFH   SYMBOL    XDATA    WORD      CloudSendDataIdx
      020003E1H   SYMBOL    XDATA    WORD      CloudSendIdx
      01002037H   SYMBOL    CODE     ---       _CloudReSend
      01001CF0H   SYMBOL    CODE     ---       CloudReceive
      01001108H   SYMBOL    CONST    ---       _?ix1000
      0000000EH   SYMBOL    DATA     BYTE      CloudReceiveState
      020003E3H   SYMBOL    XDATA    ---       CloudSendBuffer
      0200063BH   SYMBOL    XDATA    WORD      CloudReceiveIdx
      01001AEFH   SYMBOL    CODE     ---       _CloudReport

      01001945H   BLOCK     CODE     ---       LVL=0
      01001945H   LINE      ---      ---       #21
      01001945H   LINE      ---      ---       #22
      01001945H   LINE      ---      ---       #24
      0100194BH   LINE      ---      ---       #25
      0100194BH   LINE      ---      ---       #26
      0100194DH   LINE      ---      ---       #27
      01001952H   LINE      ---      ---       #29
      01001962H   LINE      ---      ---       #30
      01001969H   LINE      ---      ---       #31
      0100197BH   LINE      ---      ---       #32
      01001982H   LINE      ---      ---       #34
      01001992H   LINE      ---      ---       #35
      010019A8H   LINE      ---      ---       #37
      010019B6H   LINE      ---      ---       #38
      010019BDH   LINE      ---      ---       #39
      010019CAH   LINE      ---      ---       #40
      010019D1H   LINE      ---      ---       #41
      010019E2H   LINE      ---      ---       #42
      010019E9H   LINE      ---      ---       #43
      010019E9H   LINE      ---      ---       #45
      010019FDH   LINE      ---      ---       #46
      010019FDH   BLOCK     CODE     NEAR LAB  LVL=1
      010019FDH   LINE      ---      ---       #48
      01001A04H   LINE      ---      ---       #49
      01001A04H   LINE      ---      ---       #50
      01001A0AH   LINE      ---      ---       #51
      01001A11H   LINE      ---      ---       #52
      01001A13H   LINE      ---      ---       #53
      01001A13H   LINE      ---      ---       #54
      01001A19H   LINE      ---      ---       #55
      01001A19H   LINE      ---      ---       #56
      01001A20H   LINE      ---      ---       #57
      01001A2AH   LINE      ---      ---       #58
      01001A2AH   LINE      ---      ---       #62
      01001A30H   LINE      ---      ---       #63
      01001A30H   LINE      ---      ---       #64
      01001A30H   LINE      ---      ---       #65
      00000021H.6 SYMBOL    BIT      BIT       issend
      ---         BLOCKEND  CODE     ---       LVL=1
      01001A30H   LINE      ---      ---       #68
      01001A6EH   LINE      ---      ---       #71
      01001A7AH   LINE      ---      ---       #72
      01001A88H   LINE      ---      ---       #73
      01001A99H   LINE      ---      ---       #75
      01001AB9H   LINE      ---      ---       #77
      01001AC5H   LINE      ---      ---       #78
LX51 LINKER/LOCATER V4.66.93.0                                                        05/08/2020  19:08:08  PAGE 73


      01001AE7H   LINE      ---      ---       #80
      01001AEEH   LINE      ---      ---       #81
      01001AEEH   LINE      CODE     ---       #81

      01001D8CH   BLOCK     CODE     ---       LVL=0
      01001D8CH   LINE      ---      ---       #82
      01001D8CH   LINE      ---      ---       #83
      01001D8CH   LINE      ---      ---       #84
      01001D9BH   LINE      ---      ---       #85
      01001DAEH   LINE      ---      ---       #87
      01001DB4H   LINE      ---      ---       #88
      01001DB9H   LINE      ---      ---       #89
      01001DBFH   LINE      ---      ---       #90
      01001DBFH   LINE      ---      ---       #91
      01001DC1H   LINE      ---      ---       #92
      01001DC7H   LINE      ---      ---       #94
      01001DC7H   LINE      ---      ---       #95
      01001DC9H   LINE      ---      ---       #100
      01001DC9H   LINE      ---      ---       #101
      01001DC9H   LINE      ---      ---       #106
      01001DCFH   LINE      ---      ---       #107
      01001DD4H   LINE      ---      ---       #108
      01001DDAH   LINE      ---      ---       #109
      01001DDAH   LINE      ---      ---       #110
      01001DDCH   LINE      ---      ---       #111
      01001DE2H   LINE      ---      ---       #113
      01001DE2H   LINE      ---      ---       #114
      01001DE4H   LINE      ---      ---       #119
      01001DE4H   LINE      ---      ---       #120
      01001DE4H   LINE      ---      ---       #125
      01001DECH   LINE      ---      ---       #127
      01001DF2H   LINE      ---      ---       #128
      01001DF2H   LINE      ---      ---       #129
      01001DF4H   LINE      ---      ---       #130
      01001DFAH   LINE      ---      ---       #132
      01001DFAH   LINE      ---      ---       #133
      01001DFCH   LINE      ---      ---       #138
      01001DFCH   LINE      ---      ---       #139
      01001DFCH   LINE      ---      ---       #144
      01001E01H   LINE      ---      ---       #145
      01001E05H   LINE      ---      ---       #146
      01001E0BH   LINE      ---      ---       #147
      01001E0BH   LINE      ---      ---       #148
      01001E0FH   LINE      ---      ---       #151
      01001E0FH   LINE      ---      ---       #152
      01001E11H   LINE      ---      ---       #157
      01001E11H   LINE      ---      ---       #158
      01001E11H   LINE      ---      ---       #163
      01001E19H   LINE      ---      ---       #165
      01001E1FH   LINE      ---      ---       #166
      01001E1FH   LINE      ---      ---       #167
      01001E23H   LINE      ---      ---       #170
      01001E23H   LINE      ---      ---       #171
      01001E25H   LINE      ---      ---       #176
      01001E25H   LINE      ---      ---       #177
      01001E25H   LINE      ---      ---       #182
      01001E2DH   LINE      ---      ---       #184
      01001E33H   LINE      ---      ---       #185
      01001E33H   LINE      ---      ---       #186
      01001E37H   LINE      ---      ---       #189
      01001E37H   LINE      ---      ---       #190
      01001E39H   LINE      ---      ---       #195
      01001E39H   LINE      ---      ---       #196
      01001E39H   LINE      ---      ---       #201
      01001E41H   LINE      ---      ---       #203
LX51 LINKER/LOCATER V4.66.93.0                                                        05/08/2020  19:08:08  PAGE 74


      01001E47H   LINE      ---      ---       #204
      01001E47H   LINE      ---      ---       #205
      01001E4BH   LINE      ---      ---       #208
      01001E4BH   LINE      ---      ---       #209
      01001E4DH   LINE      ---      ---       #214
      01001E4DH   LINE      ---      ---       #215
      01001E4DH   LINE      ---      ---       #220
      01001E55H   LINE      ---      ---       #222
      01001E5BH   LINE      ---      ---       #223
      01001E5BH   LINE      ---      ---       #224
      01001E5FH   LINE      ---      ---       #227
      01001E5FH   LINE      ---      ---       #228
      01001E61H   LINE      ---      ---       #233
      01001E61H   LINE      ---      ---       #234
      01001E61H   LINE      ---      ---       #239
      01001E69H   LINE      ---      ---       #241
      01001E6FH   LINE      ---      ---       #242
      01001E6FH   LINE      ---      ---       #243
      01001E73H   LINE      ---      ---       #246
      01001E73H   LINE      ---      ---       #247
      01001E75H   LINE      ---      ---       #252
      01001E75H   LINE      ---      ---       #253
      01001E75H   LINE      ---      ---       #258
      01001E7BH   LINE      ---      ---       #259
      01001E80H   LINE      ---      ---       #260
      01001E86H   LINE      ---      ---       #261
      01001E86H   LINE      ---      ---       #262
      01001E88H   LINE      ---      ---       #263
      01001E8EH   LINE      ---      ---       #265
      01001E8EH   LINE      ---      ---       #266
      01001E90H   LINE      ---      ---       #271
      01001E90H   LINE      ---      ---       #272
      01001E90H   LINE      ---      ---       #277
      01001E99H   LINE      ---      ---       #280
      01001E9FH   LINE      ---      ---       #281
      01001E9FH   LINE      ---      ---       #282
      01001EA3H   LINE      ---      ---       #285
      01001EA3H   LINE      ---      ---       #286
      01001EA5H   LINE      ---      ---       #291
      01001EA5H   LINE      ---      ---       #292
      01001EA5H   LINE      ---      ---       #293
      01001EB3H   LINE      ---      ---       #301
      01001EB9H   LINE      ---      ---       #302
      01001EB9H   LINE      ---      ---       #303
      01001EBDH   LINE      ---      ---       #306
      01001EBDH   LINE      ---      ---       #307
      01001EBFH   LINE      ---      ---       #312
      01001EBFH   LINE      ---      ---       #313
      01001EBFH   LINE      ---      ---       #314
      01001ECDH   LINE      ---      ---       #322
      01001ED3H   LINE      ---      ---       #323
      01001ED3H   LINE      ---      ---       #324
      01001ED7H   LINE      ---      ---       #327
      01001ED7H   LINE      ---      ---       #328
      01001ED9H   LINE      ---      ---       #333
      01001ED9H   LINE      ---      ---       #334
      01001ED9H   LINE      ---      ---       #335
      01001EE7H   LINE      ---      ---       #343
      01001EEDH   LINE      ---      ---       #344
      01001EEDH   LINE      ---      ---       #345
      01001EF1H   LINE      ---      ---       #348
      01001EF1H   LINE      ---      ---       #349
      01001EF3H   LINE      ---      ---       #354
      01001EF3H   LINE      ---      ---       #355
      01001EF3H   LINE      ---      ---       #356
LX51 LINKER/LOCATER V4.66.93.0                                                        05/08/2020  19:08:08  PAGE 75


      01001EFCH   LINE      ---      ---       #361
      01001EFEH   LINE      ---      ---       #364
      01001F04H   LINE      ---      ---       #365
      01001F04H   LINE      ---      ---       #366
      01001F08H   LINE      ---      ---       #369
      01001F08H   LINE      ---      ---       #370
      01001F0BH   LINE      ---      ---       #375
      01001F0BH   LINE      ---      ---       #376
      01001F0BH   LINE      ---      ---       #381
      ---         BLOCKEND  ---      ---       LVL=0

      01001CF0H   BLOCK     CODE     ---       LVL=0
      01001CF0H   LINE      ---      ---       #383
      01001CF0H   LINE      ---      ---       #384
      01001CF0H   BLOCK     CODE     NEAR LAB  LVL=1
      01001CF0H   LINE      ---      ---       #385
      01001CFCH   LINE      ---      ---       #386
      01001D0AH   LINE      ---      ---       #387
      01001D0AH   LINE      ---      ---       #388
      01001D12H   LINE      ---      ---       #389
      01001D12H   LINE      ---      ---       #390
      01001D12H   LINE      ---      ---       #391
      01001D19H   LINE      ---      ---       #392
      01001D1CH   LINE      ---      ---       #393
      01001D1EH   LINE      ---      ---       #394
      01001D1EH   LINE      ---      ---       #395
      01001D25H   LINE      ---      ---       #396
      01001D25H   LINE      ---      ---       #397
      01001D34H   LINE      ---      ---       #398
      01001D34H   LINE      ---      ---       #399
      01001D40H   LINE      ---      ---       #400
      01001D43H   LINE      ---      ---       #401
      01001D43H   LINE      ---      ---       #402
      01001D46H   LINE      ---      ---       #403
      01001D4CH   LINE      ---      ---       #404
      01001D50H   LINE      ---      ---       #405
      01001D52H   LINE      ---      ---       #407
      01001D65H   LINE      ---      ---       #408
      01001D65H   LINE      ---      ---       #409
      01001D65H   LINE      ---      ---       #410
      01001D74H   LINE      ---      ---       #411
      01001D7BH   LINE      ---      ---       #413
      01001D83H   LINE      ---      ---       #414
      01001D89H   LINE      ---      ---       #415
      01001D8BH   LINE      ---      ---       #416
      00000025H   SYMBOL    DATA     WORD      idx1
      00000027H   SYMBOL    DATA     WORD      idx2
      ---         BLOCKEND  CODE     ---       LVL=1
      ---         BLOCKEND  CODE     ---       LVL=0

      0100137DH   BLOCK     CODE     ---       LVL=0
      01001380H   LINE      ---      ---       #417
      01001382H   LINE      ---      ---       #418
      0100137DH   SYMBOL    CODE     NEAR LAB  ?L?COM0021
      00000023H   SYMBOL    DATA     BYTE      op
      01001382H   BLOCK     CODE     NEAR LAB  LVL=1
      01001382H   LINE      ---      ---       #419
      01001386H   LINE      ---      ---       #420
      01001394H   LINE      ---      ---       #421
      01001396H   LINE      ---      ---       #422
      010013D2H   LINE      ---      ---       #423
      010013E9H   LINE      ---      ---       #424
      010013E9H   LINE      ---      ---       #425
      010013E9H   LINE      ---      ---       #426
      01001412H   LINE      ---      ---       #427
LX51 LINKER/LOCATER V4.66.93.0                                                        05/08/2020  19:08:08  PAGE 76


      01001412H   LINE      ---      ---       #428
      01001412H   LINE      ---      ---       #429
      01001426H   LINE      ---      ---       #430
      01001428H   LINE      ---      ---       #431
      01001428H   LINE      ---      ---       #432
      0100143CH   LINE      ---      ---       #433
      0100143EH   LINE      ---      ---       #434
      0100143EH   LINE      ---      ---       #435
      01001449H   LINE      ---      ---       #436
      0100144BH   LINE      ---      ---       #437
      0100144BH   LINE      ---      ---       #438
      01001456H   LINE      ---      ---       #439
      01001458H   LINE      ---      ---       #440
      01001458H   LINE      ---      ---       #441
      01001463H   LINE      ---      ---       #442
      01001465H   LINE      ---      ---       #443
      01001465H   LINE      ---      ---       #444
      01001470H   LINE      ---      ---       #445
      01001472H   LINE      ---      ---       #446
      01001472H   LINE      ---      ---       #447
      01001472H   LINE      ---      ---       #448
      0100147CH   LINE      ---      ---       #450
      01001480H   LINE      ---      ---       #451
      01001490H   LINE      ---      ---       #454
      02000004H   SYMBOL    PDATA    BYTE      i
      01001490H   BLOCK     CODE     NEAR LAB  LVL=2
      01001490H   LINE      ---      ---       #456
      010014A1H   LINE      ---      ---       #457
      010014A1H   LINE      ---      ---       #458
      010014A1H   LINE      ---      ---       #459
      010014B0H   LINE      ---      ---       #460
      010014B0H   LINE      ---      ---       #461
      010014BFH   LINE      ---      ---       #462
      010014BFH   LINE      ---      ---       #463
      010014CCH   LINE      ---      ---       #464
      010014CCH   LINE      ---      ---       #465
      010014F1H   LINE      ---      ---       #467
      02000001H   SYMBOL    PDATA    ---       P
      ---         BLOCKEND  CODE     ---       LVL=2
      010014F1H   LINE      ---      ---       #468
      010014F1H   LINE      ---      ---       #469
      010014F3H   LINE      ---      ---       #470
      010014F3H   LINE      ---      ---       #471
      0100150DH   LINE      ---      ---       #472
      0100150DH   LINE      ---      ---       #473
      0100150DH   LINE      ---      ---       #474
      0100151BH   LINE      ---      ---       #475
      0100151DH   LINE      ---      ---       #476
      0100151DH   LINE      ---      ---       #477
      01001534H   LINE      ---      ---       #478
      01001536H   LINE      ---      ---       #479
      01001536H   LINE      ---      ---       #480
      0100154DH   LINE      ---      ---       #481
      0100154FH   LINE      ---      ---       #482
      0100154FH   LINE      ---      ---       #483
      0100155DH   LINE      ---      ---       #484
      0100155FH   LINE      ---      ---       #485
      0100155FH   LINE      ---      ---       #486
      0100156DH   LINE      ---      ---       #487
      0100156FH   LINE      ---      ---       #488
      0100156FH   LINE      ---      ---       #489
      0100157DH   LINE      ---      ---       #490
      0100157FH   LINE      ---      ---       #491
      0100157FH   LINE      ---      ---       #492
      0100157FH   LINE      ---      ---       #493
LX51 LINKER/LOCATER V4.66.93.0                                                        05/08/2020  19:08:08  PAGE 77


      0100157FH   LINE      ---      ---       #494
      01001595H   LINE      ---      ---       #495
      01001595H   LINE      ---      ---       #496
      01001595H   LINE      ---      ---       #497
      010015B3H   LINE      ---      ---       #499
      010015B5H   LINE      ---      ---       #500
      010015B5H   LINE      ---      ---       #501
      010015D1H   LINE      ---      ---       #503
      010015D3H   LINE      ---      ---       #504
      010015D3H   LINE      ---      ---       #505
      010015EFH   LINE      ---      ---       #507
      010015F1H   LINE      ---      ---       #508
      010015F1H   LINE      ---      ---       #509
      010015F1H   LINE      ---      ---       #510
      010015F1H   LINE      ---      ---       #511
      0100163BH   LINE      ---      ---       #514
      0100163BH   LINE      ---      ---       #515
      0100163BH   LINE      ---      ---       #516
      01001648H   LINE      ---      ---       #517
      0100164EH   LINE      ---      ---       #518
      01001650H   LINE      ---      ---       #519
      01001650H   LINE      ---      ---       #520
      01001667H   LINE      ---      ---       #521
      01001669H   LINE      ---      ---       #522
      01001669H   LINE      ---      ---       #523
      01001669H   LINE      ---      ---       #524
      01001669H   LINE      ---      ---       #525
      01001669H   LINE      ---      ---       #526
      01001669H   LINE      ---      ---       #527
      0100166EH   LINE      ---      ---       #528
      0100166EH   LINE      ---      ---       #529
      01001673H   LINE      ---      ---       #530
      01001673H   LINE      ---      ---       #531
      01001678H   LINE      ---      ---       #532
      0100167CH   LINE      ---      ---       #533
      0100167CH   LINE      ---      ---       #534
      0100167CH   LINE      ---      ---       #538
      01001685H   LINE      ---      ---       #539
      01001688H   LINE      ---      ---       #540
      01001690H   LINE      ---      ---       #542
      01001691H   LINE      ---      ---       #543
      01001691H   LINE      CODE     ---       #543
      ---         BLOCKEND  CODE     ---       LVL=0

      01002037H   BLOCK     CODE     ---       LVL=0
      01002037H   LINE      ---      ---       #544
      01002037H   LINE      ---      ---       #545
      00000007H   SYMBOL    DATA     BYTE      Time
      01002037H   BLOCK     CODE     NEAR LAB  LVL=1
      01002037H   LINE      ---      ---       #546
      01002041H   LINE      ---      ---       #547
      01002057H   LINE      ---      ---       #548
      01002067H   LINE      ---      ---       #550
      01002085H   LINE      ---      ---       #551
      01002085H   LINE      ---      ---       #552
      01002091H   LINE      ---      ---       #553
      01002091H   LINE      ---      ---       #554
      01002093H   LINE      ---      ---       #555
      010020ACH   LINE      ---      ---       #559
      010020B6H   LINE      ---      ---       #560
      020008CCH   SYMBOL    XDATA    DWORD     Timex
      010020B6H   BLOCK     CODE     NEAR LAB  LVL=2
      010020B6H   LINE      ---      ---       #565
      010020BCH   LINE      ---      ---       #566
      010020C3H   LINE      ---      ---       #567
LX51 LINKER/LOCATER V4.66.93.0                                                        05/08/2020  19:08:08  PAGE 78


      010020D0H   LINE      ---      ---       #568
      010020D3H   LINE      ---      ---       #569
      010020DAH   LINE      ---      ---       #570
      010020DAH   LINE      ---      ---       #571
      010020DDH   LINE      ---      ---       #572
      01002103H   LINE      ---      ---       #573
      01002103H   LINE      ---      ---       #577
      01002105H   LINE      ---      ---       #578
      01002109H   LINE      ---      ---       #580
      01002109H   LINE      ---      ---       #581
      01002109H   LINE      ---      ---       #585
      0100210FH   LINE      ---      ---       #586
      00000023H   SYMBOL    DATA     WORD      TempT
      ---         BLOCKEND  CODE     ---       LVL=2
      0100210FH   LINE      ---      ---       #587
      01002110H   LINE      ---      ---       #589
      01002110H   LINE      ---      ---       #593
      01002118H   LINE      ---      ---       #594
      01002128H   LINE      ---      ---       #596
      01002128H   LINE      ---      ---       #597
      01002128H   LINE      ---      ---       #598
      01002128H   LINE      CODE     ---       #598
      ---         BLOCKEND  CODE     ---       LVL=0

      01001AEFH   BLOCK     CODE     ---       LVL=0
      01001AEFH   LINE      ---      ---       #599
      01001AF1H   LINE      ---      ---       #600
      01001AF1H   LINE      ---      ---       #601
      01001AFEH   LINE      ---      ---       #602
      01001B00H   LINE      ---      ---       #603
      01001B06H   LINE      ---      ---       #604
      01001B06H   LINE      ---      ---       #605
      01001B0CH   LINE      ---      ---       #606
      01001B0CH   LINE      ---      ---       #607
      01001B10H   LINE      ---      ---       #608
      01001B10H   LINE      ---      ---       #609
      01001B12H   LINE      ---      ---       #612
      01001B12H   LINE      ---      ---       #613
      01001B14H   LINE      ---      ---       #614
      01001B14H   LINE      ---      ---       #615
      01001B1BH   LINE      ---      ---       #616
      01001B28H   LINE      ---      ---       #617
      01001B67H   LINE      ---      ---       #619
      01001B71H   LINE      ---      ---       #620
      01001B71H   LINE      ---      ---       #621
      01001B7BH   LINE      ---      ---       #622
      01001B7DH   LINE      ---      ---       #624
      01001BD5H   LINE      ---      ---       #625
      01001BD5H   LINE      ---      ---       #626
      01001BDDH   LINE      ---      ---       #627
      01001BDDH   LINE      ---      ---       #628
      01001BE7H   LINE      ---      ---       #629
      01001BE9H   LINE      ---      ---       #630
      01001BF5H   LINE      ---      ---       #631
      01001BF5H   LINE      ---      ---       #632
      01001BFCH   LINE      ---      ---       #633
      01001BFCH   LINE      ---      ---       #634
      01001C06H   LINE      ---      ---       #635
      01001C08H   LINE      ---      ---       #636
      01001C14H   LINE      ---      ---       #637
      01001C14H   LINE      ---      ---       #638
      01001C1FH   LINE      ---      ---       #639
      01001C1FH   LINE      ---      ---       #640
      01001C29H   LINE      ---      ---       #641
      01001C2BH   LINE      ---      ---       #642
LX51 LINKER/LOCATER V4.66.93.0                                                        05/08/2020  19:08:08  PAGE 79


      01001C37H   LINE      ---      ---       #643
      01001C37H   LINE      ---      ---       #644
      01001C45H   LINE      ---      ---       #645
      01001C45H   LINE      ---      ---       #646
      01001C4FH   LINE      ---      ---       #647
      01001C51H   LINE      ---      ---       #648
      01001C5DH   LINE      ---      ---       #649
      01001C5DH   LINE      ---      ---       #650
      01001C5FH   LINE      ---      ---       #652
      01001C5FH   LINE      ---      ---       #653
      01001C67H   LINE      ---      ---       #654
      00000022H   SYMBOL    DATA     BYTE      Code
      01001C67H   BLOCK     CODE     NEAR LAB  LVL=1
      01001C67H   LINE      ---      ---       #655
      01001C72H   LINE      ---      ---       #656
      01001C78H   LINE      ---      ---       #657
      01001C80H   LINE      ---      ---       #659
      01001C86H   LINE      ---      ---       #660
      01001C86H   LINE      ---      ---       #661
      01001C88H   LINE      ---      ---       #662
      01001C8DH   LINE      ---      ---       #663
      01001CA7H   LINE      ---      ---       #664
      01001CA9H   LINE      ---      ---       #665
      01001CA9H   LINE      ---      ---       #666
      02000000H   SYMBOL    PDATA    BYTE      TempFailCount
      ---         BLOCKEND  CODE     ---       LVL=1
      01001CA9H   LINE      ---      ---       #667
      01001CB9H   LINE      ---      ---       #668
      01001CB9H   LINE      ---      ---       #669
      01001CB9H   LINE      ---      ---       #670
      01001CC0H   LINE      ---      ---       #671
      01001CC0H   LINE      ---      ---       #672
      01001CCCH   LINE      ---      ---       #673
      01001CCCH   LINE      ---      ---       #674
      01001CCCH   LINE      ---      ---       #675
      01001CCCH   LINE      ---      ---       #676
      01001CE6H   LINE      ---      ---       #677
      01001CE6H   LINE      ---      ---       #678
      01001CE6H   LINE      ---      ---       #679
      01001CE6H   LINE      ---      ---       #680
      01001CEEH   LINE      ---      ---       #682
      01001CEFH   LINE      ---      ---       #683
      01001CEFH   LINE      CODE     ---       #683

      01002131H   BLOCK     CODE     ---       LVL=0
      01002131H   LINE      ---      ---       #684
      01002131H   LINE      ---      ---       #685
      01002131H   LINE      ---      ---       #689
      0100214CH   LINE      ---      ---       #690
      0100214CH   LINE      ---      ---       #692
      0100214CH   LINE      ---      ---       #693
      01002165H   LINE      ---      ---       #694
      01002165H   LINE      ---      ---       #695
      0100218CH   LINE      ---      ---       #698
      0100218CH   LINE      ---      ---       #699
      0100218EH   LINE      ---      ---       #700
      01002198H   LINE      ---      ---       #701
      010021A0H   LINE      ---      ---       #702
      010021A0H   LINE      ---      ---       #703
      010021A1H   LINE      ---      ---       #704
      010021ABH   LINE      ---      ---       #705
      010021ABH   LINE      ---      ---       #706
      010021C5H   LINE      ---      ---       #707
      010021C5H   BLOCK     CODE     NEAR LAB  LVL=1
      010021C5H   LINE      ---      ---       #708
LX51 LINKER/LOCATER V4.66.93.0                                                        05/08/2020  19:08:08  PAGE 80


      010021D0H   LINE      ---      ---       #709
      010021D3H   LINE      ---      ---       #710
      010021DEH   LINE      ---      ---       #711
      010021E7H   LINE      ---      ---       #712
      01002200H   LINE      ---      ---       #713
      0100220EH   LINE      ---      ---       #714
      01002228H   LINE      ---      ---       #715
      01002228H   LINE      ---      ---       #716
      01002228H   LINE      ---      ---       #717
      01002228H   LINE      ---      ---       #718
      01002228H   LINE      ---      ---       #719
      0100223AH   LINE      ---      ---       #720
      02000028H   SYMBOL    PDATA    ---       P
      0200002BH   SYMBOL    PDATA    BYTE      i
      0100223AH   BLOCK     CODE     NEAR LAB  LVL=2
      0100223AH   LINE      ---      ---       #721
      0100223EH   LINE      ---      ---       #722
      0100224EH   LINE      ---      ---       #723
      01002261H   LINE      ---      ---       #724
      01002269H   LINE      ---      ---       #725
      01002270H   LINE      ---      ---       #726
      0100227DH   LINE      ---      ---       #727
      0100228DH   LINE      ---      ---       #728
      0100229AH   LINE      ---      ---       #729
      010022AAH   LINE      ---      ---       #730
      010022B7H   LINE      ---      ---       #731
      010022C7H   LINE      ---      ---       #732
      010022DCH   LINE      ---      ---       #733
      010022EDH   LINE      ---      ---       #734
      02000001H   SYMBOL    PDATA    ---       name
      02000011H   SYMBOL    PDATA    BYTE      i
      02000013H   SYMBOL    PDATA    ---       Pend
      00000020H.2 SYMBOL    BIT      BIT       isRow2
      02000016H   SYMBOL    PDATA    ---       str
      02000027H   SYMBOL    PDATA    BYTE      readcnt
      ---         BLOCKEND  CODE     ---       LVL=2
      010022EDH   BLOCK     CODE     NEAR LAB  LVL=2
      010022EDH   LINE      ---      ---       #735
      010022EDH   LINE      ---      ---       #736
      010022EDH   LINE      ---      ---       #737
      02000013H   SYMBOL    PDATA    ---       Pend
      00000020H.2 SYMBOL    BIT      BIT       isRow2
      02000016H   SYMBOL    PDATA    ---       str
      02000027H   SYMBOL    PDATA    BYTE      readcnt
      010022EDH   BLOCK     CODE     NEAR LAB  LVL=3
      010022EDH   LINE      ---      ---       #738
      010022FFH   LINE      ---      ---       #740
      01002315H   LINE      ---      ---       #741
      01002328H   LINE      ---      ---       #742
      01002345H   LINE      ---      ---       #743
      01002345H   LINE      ---      ---       #744
      0100234CH   LINE      ---      ---       #745
      01002362H   LINE      ---      ---       #746
      02000012H   SYMBOL    PDATA    BYTE      i
      ---         BLOCKEND  CODE     ---       LVL=3
      01002362H   LINE      ---      ---       #747
      01002365H   LINE      ---      ---       #748
      0100236CH   LINE      ---      ---       #749
      0100237DH   LINE      ---      ---       #750
      0100237DH   LINE      ---      ---       #751
      01002381H   LINE      ---      ---       #752
      01002388H   LINE      ---      ---       #753
      01002399H   LINE      ---      ---       #754
      0100239BH   LINE      ---      ---       #755
      010023A4H   LINE      ---      ---       #756
LX51 LINKER/LOCATER V4.66.93.0                                                        05/08/2020  19:08:08  PAGE 81


      010023ABH   LINE      ---      ---       #757
      010023B2H   LINE      ---      ---       #758
      010023B2H   LINE      CODE     ---       #758
      ---         BLOCKEND  CODE     ---       LVL=1
      010023B4H   LINE      ---      ---       #760
      010023B4H   LINE      ---      ---       #761
      010023BBH   LINE      ---      ---       #762
      010023C4H   LINE      ---      ---       #763
      010023C4H   LINE      ---      ---       #764
      010023C9H   LINE      ---      ---       #765
      010023D5H   LINE      ---      ---       #766
      010023DAH   LINE      ---      ---       #767
      010023DCH   LINE      ---      ---       #768
      010023E3H   LINE      ---      ---       #769
      010023E3H   LINE      ---      ---       #770
      010023F0H   LINE      ---      ---       #771
      010023FAH   LINE      ---      ---       #772
      010023FCH   LINE      ---      ---       #774
      01002406H   LINE      ---      ---       #775
      0100240DH   LINE      ---      ---       #776
      0100240DH   LINE      CODE     ---       #776
      0100240DH   LINE      ---      ---       #777
      0100240EH   LINE      ---      ---       #778
      0100240EH   LINE      ---      ---       #779
      01002420H   LINE      ---      ---       #780
      0100242DH   LINE      ---      ---       #781
      0100242DH   LINE      ---      ---       #782
      0100242DH   LINE      ---      ---       #783
      01002431H   LINE      ---      ---       #784
      01002431H   LINE      ---      ---       #785
      01002435H   LINE      ---      ---       #786
      01002435H   LINE      ---      ---       #787
      0100243FH   LINE      ---      ---       #788
      01002446H   LINE      ---      ---       #789
      01002447H   LINE      ---      ---       #790
      01002447H   LINE      ---      ---       #791
      01002454H   LINE      ---      ---       #792
      01002461H   LINE      ---      ---       #793
      01002461H   LINE      ---      ---       #794
      01002461H   LINE      ---      ---       #795
      0100246AH   LINE      ---      ---       #796
      0100246AH   LINE      ---      ---       #797
      01002471H   LINE      ---      ---       #798
      01002471H   LINE      ---      ---       #799
      0100247BH   LINE      ---      ---       #800
      01002482H   LINE      ---      ---       #801
      01002483H   LINE      ---      ---       #802
      01002483H   LINE      ---      ---       #803
      01002483H   LINE      ---      ---       #804
      01002483H   LINE      ---      ---       #805
      01002483H   LINE      ---      ---       #806
      01002483H   LINE      ---      ---       #807
      01002483H   LINE      ---      ---       #808
      0100249EH   LINE      ---      ---       #809
      0100249EH   LINE      ---      ---       #810
      010024B9H   LINE      ---      ---       #811
      010024C3H   LINE      ---      ---       #812
      010024C5H   LINE      ---      ---       #813
      010024E5H   LINE      ---      ---       #814
      010024FFH   LINE      ---      ---       #815
      01002501H   LINE      ---      ---       #816
      0100251CH   LINE      ---      ---       #817
      01002526H   LINE      ---      ---       #818
      01002528H   LINE      ---      ---       #819
      01002548H   LINE      ---      ---       #820
LX51 LINKER/LOCATER V4.66.93.0                                                        05/08/2020  19:08:08  PAGE 82


      01002552H   LINE      ---      ---       #821
      01002556H   LINE      ---      ---       #822
      01002556H   LINE      ---      ---       #823
      0100256FH   LINE      ---      ---       #824
      0100256FH   LINE      ---      ---       #825
      0100258FH   LINE      ---      ---       #826
      01002591H   LINE      ---      ---       #827
      01002591H   LINE      ---      ---       #828
      01002591H   LINE      ---      ---       #830
      01002591H   LINE      ---      ---       #832
      01002591H   LINE      ---      ---       #833

      ---         MODULE    ---      ---       CLOUDCODEARRAY
      010012E5H   PUBLIC    CONST    ---       ATCmd
      010012DFH   PUBLIC    CONST    ---       ATCmd15
      010012D8H   PUBLIC    CONST    ---       ATCmd14
      010012D3H   PUBLIC    CONST    ---       ATCmd13
      010012C9H   PUBLIC    CONST    ---       ATCmd12
      010012BEH   PUBLIC    CONST    ---       ATCmd11
      010012B4H   PUBLIC    CONST    ---       ATCmd10
      010012ABH   PUBLIC    CONST    ---       ATCmd9
      010012A3H   PUBLIC    CONST    ---       ATCmd8
      0100129BH   PUBLIC    CONST    ---       ATCmd7
      01001291H   PUBLIC    CONST    ---       ATCmd6
      01001283H   PUBLIC    CONST    ---       ATCmd5
      01001278H   PUBLIC    CONST    ---       ATCmd4
      0100126AH   PUBLIC    CONST    ---       ATCmd3
      01001262H   PUBLIC    CONST    ---       ATCmd2
      01001259H   PUBLIC    CONST    ---       ATCmd1
      01001250H   PUBLIC    CONST    ---       ATCmd0
      0100124FH   PUBLIC    CONST    BYTE      Service_3_Len
      01001244H   PUBLIC    CONST    ---       Service_3
      01001243H   PUBLIC    CONST    BYTE      Service_2_Len
      01001234H   PUBLIC    CONST    ---       Service_2
      01001233H   PUBLIC    CONST    BYTE      Service_1_Len
      01001224H   PUBLIC    CONST    ---       Service_1
      01001223H   PUBLIC    CONST    BYTE      Event_2_Len
      01001222H   PUBLIC    CONST    BYTE      Event_1_Len
      0100120DH   PUBLIC    CONST    ---       Event_2
      010011F9H   PUBLIC    CONST    ---       Event_1
      010011F5H   PUBLIC    CONST    ---       MQTTAutoStart
      010011F2H   PUBLIC    CONST    ---       MQTTAutoReConect
      010011EFH   PUBLIC    CONST    ---       MQTTHeartBeat
      010011B6H   PUBLIC    CONST    ---       MQTTClientID
      010011B1H   PUBLIC    CONST    ---       MQTTPort
      01001180H   PUBLIC    CONST    ---       MQTTHost
      01001157H   PUBLIC    CONST    ---       MQTTPassword
      01001143H   PUBLIC    CONST    ---       MQTTUser
      0100113AH   PUBLIC    CONST    ---       WiFiPassword
      0100112DH   PUBLIC    CONST    ---       WiFiSSID
      01001121H   PUBLIC    CONST    ---       ProductKey
      01001119H   PUBLIC    CONST    ---       DeviceName
      000000D8H.2 SFRSYM    DATA     BIT       CCF2
      00000092H   SFRSYM    DATA     BYTE      P1M0
      00000093H   SFRSYM    DATA     BYTE      P0M1
      000000D8H.3 SFRSYM    DATA     BIT       CCF3
      00000096H   SFRSYM    DATA     BYTE      P2M0
      00000091H   SFRSYM    DATA     BYTE      P1M1
      00000080H   SFRSYM    DATA     BYTE      P0
      000000B2H   SFRSYM    DATA     BYTE      P3M0
      00000095H   SFRSYM    DATA     BYTE      P2M1
      00000090H   SFRSYM    DATA     BYTE      P1
      000000B4H   SFRSYM    DATA     BYTE      P4M0
      000000B1H   SFRSYM    DATA     BYTE      P3M1
      000000A0H   SFRSYM    DATA     BYTE      P2
LX51 LINKER/LOCATER V4.66.93.0                                                        05/08/2020  19:08:08  PAGE 83


      000000ABH   SFRSYM    DATA     BYTE      WKTCH
      000000CAH   SFRSYM    DATA     BYTE      P5M0
      000000B3H   SFRSYM    DATA     BYTE      P4M1
      000000B0H   SFRSYM    DATA     BYTE      P3
      000000CCH   SFRSYM    DATA     BYTE      P6M0
      000000C9H   SFRSYM    DATA     BYTE      P5M1
      000000C0H   SFRSYM    DATA     BYTE      P4
      000000D0H.6 SFRSYM    DATA     BIT       AC
      000000F6H   SFRSYM    DATA     BYTE      PWMIF
      000000C6H   SFRSYM    DATA     BYTE      ISP_TRIG
      000000E2H   SFRSYM    DATA     BYTE      P7M0
      000000CBH   SFRSYM    DATA     BYTE      P6M1
      000000C8H   SFRSYM    DATA     BYTE      P5
      000000A8H.7 SFRSYM    DATA     BIT       EA
      000000E1H   SFRSYM    DATA     BYTE      P7M1
      000000E8H   SFRSYM    DATA     BYTE      P6
      000000C0H.2 SFRSYM    DATA     BIT       LED1
      000000AAH   SFRSYM    DATA     BYTE      WKTCL
      000000F8H   SFRSYM    DATA     BYTE      P7
      000000C0H.3 SFRSYM    DATA     BIT       LED2
      000000CEH   SFRSYM    DATA     BYTE      SPCTL
      000000C0H.4 SFRSYM    DATA     BIT       LED3
      000000D8H.7 SFRSYM    DATA     BIT       CF
      000000FEH   SFRSYM    DATA     BYTE      PWMCR
      000000F9H   SFRSYM    DATA     BYTE      CH
      000000A2H   SFRSYM    DATA     BYTE      P_SW1
      000000BAH   SFRSYM    DATA     BYTE      P_SW2
      000000A8H.5 SFRSYM    DATA     BIT       EADC
      000000A8H   SFRSYM    DATA     BYTE      IE
      000000E5H   SFRSYM    DATA     BYTE      DPH1
      000000E9H   SFRSYM    DATA     BYTE      CL
      000000C5H   SFRSYM    DATA     BYTE      IAP_CMD
      000000FAH   SFRSYM    DATA     BYTE      CCAP0H
      000000B0H.2 SFRSYM    DATA     BIT       LCD1602_EN
      00000090H.0 SFRSYM    DATA     BIT       LED_RED
      000000FBH   SFRSYM    DATA     BYTE      CCAP1H
      000000E4H   SFRSYM    DATA     BYTE      DPL1
      000000FCH   SFRSYM    DATA     BYTE      CCAP2H
      000000FDH   SFRSYM    DATA     BYTE      CCAP3H
      000000BDH   SFRSYM    DATA     BYTE      ADC_RES
      000000B6H   SFRSYM    DATA     BYTE      IP2H
      000000EAH   SFRSYM    DATA     BYTE      CCAP0L
      000000D8H.6 SFRSYM    DATA     BIT       CR
      000000AEH   SFRSYM    DATA     BYTE      TA
      000000F7H   SFRSYM    DATA     BYTE      PWMFDCR
      000000EBH   SFRSYM    DATA     BYTE      CCAP1L
      000000DAH   SFRSYM    DATA     BYTE      CCAPM0
      000000ECH   SFRSYM    DATA     BYTE      CCAP2L
      000000DBH   SFRSYM    DATA     BYTE      CCAPM1
      0000008FH   SFRSYM    DATA     BYTE      INTCLKO
      000000EDH   SFRSYM    DATA     BYTE      CCAP3L
      000000DCH   SFRSYM    DATA     BYTE      CCAPM2
      000000A8H.4 SFRSYM    DATA     BIT       ES
      000000DDH   SFRSYM    DATA     BYTE      CCAPM3
      000000B8H.5 SFRSYM    DATA     BIT       PADC
      000000B8H   SFRSYM    DATA     BYTE      IP
      000000DEH   SFRSYM    DATA     BYTE      ADCCFG
      00000098H.0 SFRSYM    DATA     BIT       RI
      000000D0H.7 SFRSYM    DATA     BIT       CY
      00000098H.1 SFRSYM    DATA     BIT       TI
      000000C3H   SFRSYM    DATA     BYTE      IAP_ADDRH
      000000C0H.1 SFRSYM    DATA     BIT       DS18B20_DATA
      000000C5H   SFRSYM    DATA     BYTE      ISP_CMD
      000000B8H.4 SFRSYM    DATA     BIT       PS
      00000081H   SFRSYM    DATA     BYTE      SP
LX51 LINKER/LOCATER V4.66.93.0                                                        05/08/2020  19:08:08  PAGE 84


      000000A0H.7 SFRSYM    DATA     BIT       LCD1602_Busy
      000000B0H.5 SFRSYM    DATA     BIT       LCD1602_RS
      000000D9H   SFRSYM    DATA     BYTE      CMOD
      000000D8H   SFRSYM    DATA     BYTE      CCON
      000000C4H   SFRSYM    DATA     BYTE      IAP_ADDRL
      000000B8H.7 SFRSYM    DATA     BIT       PPCA
      000000D0H.2 SFRSYM    DATA     BIT       OV
      000000B0H.4 SFRSYM    DATA     BIT       LCD1602_RW
      000000E6H   SFRSYM    DATA     BYTE      CMPCR1
      00000090H.1 SFRSYM    DATA     BIT       LED_GREEN
      000000E7H   SFRSYM    DATA     BYTE      CMPCR2
      000000A8H.6 SFRSYM    DATA     BIT       ELVD
      00000080H.0 SFRSYM    DATA     BIT       P00
      000000BCH   SFRSYM    DATA     BYTE      ADC_CONTR
      00000099H   SFRSYM    DATA     BYTE      SBUF
      00000087H   SFRSYM    DATA     BYTE      PCON
      00000090H.0 SFRSYM    DATA     BIT       P10
      00000080H.1 SFRSYM    DATA     BIT       P01
      000000C3H   SFRSYM    DATA     BYTE      ISP_ADDRH
      000000A0H.0 SFRSYM    DATA     BIT       P20
      00000090H.1 SFRSYM    DATA     BIT       P11
      00000080H.2 SFRSYM    DATA     BIT       P02
      000000B0H.0 SFRSYM    DATA     BIT       P30
      000000A0H.1 SFRSYM    DATA     BIT       P21
      00000090H.2 SFRSYM    DATA     BIT       P12
      00000080H.3 SFRSYM    DATA     BIT       P03
      00000098H   SFRSYM    DATA     BYTE      SCON
      000000C0H.0 SFRSYM    DATA     BIT       P40
      000000B0H.1 SFRSYM    DATA     BIT       P31
      000000A0H.2 SFRSYM    DATA     BIT       P22
      00000090H.3 SFRSYM    DATA     BIT       P13
      00000080H.4 SFRSYM    DATA     BIT       P04
      00000089H   SFRSYM    DATA     BYTE      TMOD
      00000088H   SFRSYM    DATA     BYTE      TCON
      000000C8H.0 SFRSYM    DATA     BIT       P50
      000000C0H.1 SFRSYM    DATA     BIT       P41
      000000B0H.2 SFRSYM    DATA     BIT       P32
      000000A0H.3 SFRSYM    DATA     BIT       P23
      00000090H.4 SFRSYM    DATA     BIT       P14
      00000080H.5 SFRSYM    DATA     BIT       P05
      000000C4H   SFRSYM    DATA     BYTE      ISP_ADDRL
      000000E8H.0 SFRSYM    DATA     BIT       P60
      000000C8H.1 SFRSYM    DATA     BIT       P51
      000000C0H.2 SFRSYM    DATA     BIT       P42
      000000B0H.3 SFRSYM    DATA     BIT       P33
      000000A0H.4 SFRSYM    DATA     BIT       P24
      00000090H.5 SFRSYM    DATA     BIT       P15
      00000080H.6 SFRSYM    DATA     BIT       P06
      000000B8H.6 SFRSYM    DATA     BIT       PLVD
      000000F8H.0 SFRSYM    DATA     BIT       P70
      000000E8H.1 SFRSYM    DATA     BIT       P61
      000000C8H.2 SFRSYM    DATA     BIT       P52
      000000C0H.3 SFRSYM    DATA     BIT       P43
      000000B0H.4 SFRSYM    DATA     BIT       P34
      000000A0H.5 SFRSYM    DATA     BIT       P25
      00000090H.6 SFRSYM    DATA     BIT       P16
      00000080H.7 SFRSYM    DATA     BIT       P07
      000000F8H.1 SFRSYM    DATA     BIT       P71
      000000E8H.2 SFRSYM    DATA     BIT       P62
      000000C8H.3 SFRSYM    DATA     BIT       P53
      000000C0H.4 SFRSYM    DATA     BIT       P44
      000000B0H.5 SFRSYM    DATA     BIT       P35
      000000A0H.6 SFRSYM    DATA     BIT       P26
      00000090H.7 SFRSYM    DATA     BIT       P17
      000000F8H.2 SFRSYM    DATA     BIT       P72
LX51 LINKER/LOCATER V4.66.93.0                                                        05/08/2020  19:08:08  PAGE 85


      000000E8H.3 SFRSYM    DATA     BIT       P63
      000000C8H.4 SFRSYM    DATA     BIT       P54
      000000C0H.5 SFRSYM    DATA     BIT       P45
      000000B0H.6 SFRSYM    DATA     BIT       P36
      000000A0H.7 SFRSYM    DATA     BIT       P27
      000000F8H.3 SFRSYM    DATA     BIT       P73
      000000E8H.4 SFRSYM    DATA     BIT       P64
      000000C8H.5 SFRSYM    DATA     BIT       P55
      000000C0H.6 SFRSYM    DATA     BIT       P46
      000000B0H.7 SFRSYM    DATA     BIT       P37
      000000F8H.4 SFRSYM    DATA     BIT       P74
      000000E8H.5 SFRSYM    DATA     BIT       P65
      000000C8H.6 SFRSYM    DATA     BIT       P56
      000000C0H.7 SFRSYM    DATA     BIT       P47
      000000F8H.5 SFRSYM    DATA     BIT       P75
      000000E8H.6 SFRSYM    DATA     BIT       P66
      000000C8H.7 SFRSYM    DATA     BIT       P57
      000000F8H.6 SFRSYM    DATA     BIT       P76
      000000E8H.7 SFRSYM    DATA     BIT       P67
      00000088H.1 SFRSYM    DATA     BIT       IE0
      000000A1H   SFRSYM    DATA     BYTE      BUS_SPEED
      000000F8H.7 SFRSYM    DATA     BIT       P77
      00000088H.3 SFRSYM    DATA     BIT       IE1
      000000AFH   SFRSYM    DATA     BYTE      IE2
      0000008EH   SFRSYM    DATA     BYTE      AUXR
      000000F0H   SFRSYM    DATA     BYTE      B
      000000C7H   SFRSYM    DATA     BYTE      IAP_CONTR
      000000F1H   SFRSYM    DATA     BYTE      PWMCFG
      000000E0H   SFRSYM    DATA     BYTE      ACC
      000000A8H.1 SFRSYM    DATA     BIT       ET0
      00000088H.5 SFRSYM    DATA     BIT       TF0
      000000A8H.3 SFRSYM    DATA     BIT       ET1
      00000088H.7 SFRSYM    DATA     BIT       TF1
      000000B5H   SFRSYM    DATA     BYTE      IP2
      000000FFH   SFRSYM    DATA     BYTE      RSTCFG
      00000098H.2 SFRSYM    DATA     BIT       RB8
      0000008CH   SFRSYM    DATA     BYTE      TH0
      0000008DH   SFRSYM    DATA     BYTE      TH1
      00000088H.0 SFRSYM    DATA     BIT       IT0
      000000A8H.0 SFRSYM    DATA     BIT       EX0
      00000098H.3 SFRSYM    DATA     BIT       TB8
      000000D6H   SFRSYM    DATA     BYTE      TH2
      000000D6H   SFRSYM    DATA     BYTE      T2H
      00000088H.2 SFRSYM    DATA     BIT       IT1
      000000A8H.2 SFRSYM    DATA     BIT       EX1
      000000D4H   SFRSYM    DATA     BYTE      TH3
      000000D4H   SFRSYM    DATA     BYTE      T3H
      000000D0H.0 SFRSYM    DATA     BIT       P
      00000098H.7 SFRSYM    DATA     BIT       SM0
      000000D2H   SFRSYM    DATA     BYTE      TH4
      000000D2H   SFRSYM    DATA     BYTE      T4H
      0000008AH   SFRSYM    DATA     BYTE      TL0
      00000098H.6 SFRSYM    DATA     BIT       SM1
      0000008BH   SFRSYM    DATA     BYTE      TL1
      00000098H.5 SFRSYM    DATA     BIT       SM2
      000000D7H   SFRSYM    DATA     BYTE      TL2
      000000D7H   SFRSYM    DATA     BYTE      T2L
      000000D5H   SFRSYM    DATA     BYTE      TL3
      000000D5H   SFRSYM    DATA     BYTE      T3L
      000000D3H   SFRSYM    DATA     BYTE      TL4
      000000D3H   SFRSYM    DATA     BYTE      T4L
      000000B8H.1 SFRSYM    DATA     BIT       PT0
      000000C7H   SFRSYM    DATA     BYTE      ISP_CONTR
      000000B8H.3 SFRSYM    DATA     BIT       PT1
      000000D0H.3 SFRSYM    DATA     BIT       RS0
LX51 LINKER/LOCATER V4.66.93.0                                                        05/08/2020  19:08:08  PAGE 86


      000000C2H   SFRSYM    DATA     BYTE      IAP_DATA
      00000088H.4 SFRSYM    DATA     BIT       TR0
      000000D0H.4 SFRSYM    DATA     BIT       RS1
      00000088H.6 SFRSYM    DATA     BIT       TR1
      000000C1H   SFRSYM    DATA     BYTE      WDT_CONTR
      000000B8H.0 SFRSYM    DATA     BIT       PX0
      000000B8H.2 SFRSYM    DATA     BIT       PX1
      000000F2H   SFRSYM    DATA     BYTE      PCA_PWM0
      000000F3H   SFRSYM    DATA     BYTE      PCA_PWM1
      000000F4H   SFRSYM    DATA     BYTE      PCA_PWM2
      000000BBH   SFRSYM    DATA     BYTE      VOCTRL
      00000083H   SFRSYM    DATA     BYTE      DPH
      000000F5H   SFRSYM    DATA     BYTE      PCA_PWM3
      000000D1H   SFRSYM    DATA     BYTE      T4T3M
      00000080H.7 SFRSYM    DATA     BIT       LED_BLUE
      000000BEH   SFRSYM    DATA     BYTE      ADC_RESL
      00000082H   SFRSYM    DATA     BYTE      DPL
      000000CDH   SFRSYM    DATA     BYTE      SPSTAT
      000000B7H   SFRSYM    DATA     BYTE      IPH
      0000009BH   SFRSYM    DATA     BYTE      S2BUF
      000000ADH   SFRSYM    DATA     BYTE      S3BUF
      00000085H   SFRSYM    DATA     BYTE      S4BUF
      00000098H.4 SFRSYM    DATA     BIT       REN
      0000009AH   SFRSYM    DATA     BYTE      S2CON
      000000ACH   SFRSYM    DATA     BYTE      S3CON
      000000E3H   SFRSYM    DATA     BYTE      DPS
      000000C2H   SFRSYM    DATA     BYTE      ISP_DATA
      00000084H   SFRSYM    DATA     BYTE      S4CON
      000000EFH   SFRSYM    DATA     BYTE      AUXINTIF
      000000B9H   SFRSYM    DATA     BYTE      SADEN
      000000A9H   SFRSYM    DATA     BYTE      SADDR
      000000C6H   SFRSYM    DATA     BYTE      IAP_TRIG
      00000097H   SFRSYM    DATA     BYTE      AUXR2
      000000D0H.5 SFRSYM    DATA     BIT       F0
      000000D0H   SFRSYM    DATA     BYTE      PSW
      000000D8H.0 SFRSYM    DATA     BIT       CCF0
      000000D8H.1 SFRSYM    DATA     BIT       CCF1
      000000CFH   SFRSYM    DATA     BYTE      SPDAT
      00000094H   SFRSYM    DATA     BYTE      P0M0

      ---         MODULE    ---      ---       ?C?FPADD
      0100009DH   PUBLIC    CODE     ---       ?C?FPADD
      01000099H   PUBLIC    CODE     ---       ?C?FPSUB

      ---         MODULE    ---      ---       ?C?FPMUL
      0100018EH   PUBLIC    CODE     ---       ?C?FPMUL

      ---         MODULE    ---      ---       ?C?FPDIV
      01000297H   PUBLIC    CODE     ---       ?C?FPDIV

      ---         MODULE    ---      ---       ?C?FCAST
      0100033EH   PUBLIC    CODE     ---       ?C?FCASTC
      01000339H   PUBLIC    CODE     ---       ?C?FCASTI
      01000334H   PUBLIC    CODE     ---       ?C?FCASTL

      ---         MODULE    ---      ---       ?C?CASTF
      01000372H   PUBLIC    CODE     ---       ?C?CASTF

      ---         MODULE    ---      ---       PRINTF
      00000024H   PUBLIC    DATA     ---       ?_PRINTF?BYTE
      00000024H   PUBLIC    DATA     ---       ?_SPRINTF?BYTE
      01000887H   PUBLIC    CODE     ---       _PRINTF
      01000881H   PUBLIC    CODE     ---       _SPRINTF

      ---         MODULE    ---      ---       ?C?FPGETOPN
LX51 LINKER/LOCATER V4.66.93.0                                                        05/08/2020  19:08:08  PAGE 87


      010003A9H   PUBLIC    CODE     ---       ?C?FPGETOPN2
      010003DEH   PUBLIC    CODE     ---       ?C?FPNANRESULT
      010003E8H   PUBLIC    CODE     ---       ?C?FPOVERFLOW
      010003C0H   PUBLIC    CODE     ---       ?C?FPRESULT
      010003D4H   PUBLIC    CODE     ---       ?C?FPRESULT2
      010003E5H   PUBLIC    CODE     ---       ?C?FPUNDERFLOW

      ---         MODULE    ---      ---       ?C?FPROUND
      010003F3H   PUBLIC    CODE     ---       ?C?FPROUND

      ---         MODULE    ---      ---       ?C?FPCONVERT
      01000422H   PUBLIC    CODE     ---       ?C?FPCONVERT

      ---         MODULE    ---      ---       ?C?FTNPWR
      01000555H   PUBLIC    CODE     ---       ?C?FTNPWR

      ---         MODULE    ---      ---       ?C_STARTUP
      01000000H   PUBLIC    CODE     ---       ?C_STARTUP

      ---         MODULE    ---      ---       ?C?CLDPTR
      01000595H   PUBLIC    CODE     ---       ?C?CLDPTR

      ---         MODULE    ---      ---       ?C?CLDOPTR
      010005AEH   PUBLIC    CODE     ---       ?C?CLDOPTR

      ---         MODULE    ---      ---       ?C?CSTPTR
      010005DBH   PUBLIC    CODE     ---       ?C?CSTPTR

      ---         MODULE    ---      ---       ?C?ILDIX
      010005EDH   PUBLIC    CODE     ---       ?C?ILDIX

      ---         MODULE    ---      ---       ?C?LMUL
      01000603H   PUBLIC    CODE     ---       ?C?LMUL

      ---         MODULE    ---      ---       ?C?LNEG
      01000652H   PUBLIC    CODE     ---       ?C?LNEG

      ---         MODULE    ---      ---       ?C?ULCMP
      01000660H   PUBLIC    CODE     ---       ?C?ULCMP

      ---         MODULE    ---      ---       ?C?ULSHR
      01000671H   PUBLIC    CODE     ---       ?C?ULSHR

      ---         MODULE    ---      ---       ?C?LLDCODE0
      01000684H   PUBLIC    CODE     ---       ?C?LLDCODE0

      ---         MODULE    ---      ---       ?C?LSTXDATA
      01000694H   PUBLIC    CODE     ---       ?C?LSTXDATA

      ---         MODULE    ---      ---       ?C?LSTKXDATA
      010006A0H   PUBLIC    CODE     ---       ?C?LSTKXDATA

      ---         MODULE    ---      ---       ?C?PLDIIDATA
      010006D1H   PUBLIC    CODE     ---       ?C?PLDIIDATA

      ---         MODULE    ---      ---       ?C?CCASE
      010006E1H   PUBLIC    CODE     ---       ?C?CCASE

      ---         MODULE    ---      ---       PUTCHAR
      01000046H   PUBLIC    CODE     ---       _PUTCHAR

      ---         MODULE    ---      ---       STRNCMP
      00000029H   PUBLIC    DATA     ---       ?_STRNCMP?BYTE
      01000DA2H   PUBLIC    CODE     ---       _STRNCMP

LX51 LINKER/LOCATER V4.66.93.0                                                        05/08/2020  19:08:08  PAGE 88


      ---         MODULE    ---      ---       STRSTR
      00000029H   PUBLIC    DATA     ---       ?_STRSTR?BYTE
      01000D20H   PUBLIC    CODE     ---       _STRSTR

      ---         MODULE    ---      ---       ?C?MEMSET
      01000707H   PUBLIC    CODE     ---       ?C?MEMSET

      ---         MODULE    ---      ---       ?C?COPYP2
      010007FFH   PUBLIC    CODE     ---       ?C?COPYP2

      ---         MODULE    ---      ---       ?C_INIT
      01000CDBH   PUBLIC    CODE     ---       ?C_START

      ---         MODULE    ---      ---       ?L?COMMON
      0100007DH   SYMBOL    CODE     NEAR LAB  ?L?COM0001
      01001F13H   SYMBOL    CODE     NEAR LAB  ?L?COM0002
      01001363H   SYMBOL    CODE     NEAR LAB  ?L?COM0004
      0100259DH   SYMBOL    CODE     NEAR LAB  ?L?COM0008
      01002592H   SYMBOL    CODE     NEAR LAB  ?L?COM000B
      0100171DH   SYMBOL    CODE     NEAR LAB  ?L?COM000D
      01001F35H   SYMBOL    CODE     NEAR LAB  ?L?COM000F
      01001F8FH   SYMBOL    CODE     NEAR LAB  ?L?COM0010
      01001F25H   SYMBOL    CODE     NEAR LAB  ?L?COM0011
      01001746H   SYMBOL    CODE     NEAR LAB  ?L?COM0012
      01001F0CH   SYMBOL    CODE     NEAR LAB  ?L?COM0013
      010025B2H   SYMBOL    CODE     NEAR LAB  ?L?COM0014
      010025C9H   SYMBOL    CODE     NEAR LAB  ?L?COM0016
      01001773H   SYMBOL    CODE     NEAR LAB  ?L?COM0018
      010025E8H   SYMBOL    CODE     NEAR LAB  ?L?COM001A
      01002ADAH   SYMBOL    CODE     NEAR LAB  ?L?COM001E
      01001930H   SYMBOL    CODE     NEAR LAB  ?L?COM001F
      010025DAH   SYMBOL    CODE     NEAR LAB  ?L?COM0022
      01001F80H   SYMBOL    CODE     NEAR LAB  ?L?COM0025
      01001F72H   SYMBOL    CODE     NEAR LAB  ?L?COM0027
      0100003DH   SYMBOL    CODE     NEAR LAB  ?L?COM0029
      01001739H   SYMBOL    CODE     NEAR LAB  ?L?COM002A
      01001F58H   SYMBOL    CODE     NEAR LAB  ?L?COM002B
      01002D32H   SYMBOL    CODE     NEAR LAB  ?L?COM002C
      01002129H   SYMBOL    CODE     NEAR LAB  ?L?COM002D
      01001798H   SYMBOL    CODE     NEAR LAB  ?L?COM002E
      01002BDAH   SYMBOL    CODE     NEAR LAB  ?L?COM002F
      01001766H   SYMBOL    CODE     NEAR LAB  ?L?COM0031
      01002646H   SYMBOL    CODE     NEAR LAB  ?L?COM0032
      01001F4FH   SYMBOL    CODE     NEAR LAB  ?L?COM0033
      01001F65H   SYMBOL    CODE     NEAR LAB  ?L?COM0036
      01002C3BH   SYMBOL    CODE     NEAR LAB  ?L?COM0037
      0100182EH   SYMBOL    CODE     NEAR LAB  ?L?COM0039
      01002C4BH   SYMBOL    CODE     NEAR LAB  ?L?COM003B
      01001FF9H   SYMBOL    CODE     NEAR LAB  ?L?COM003C
      01001FEBH   SYMBOL    CODE     NEAR LAB  ?L?COM003D
      01002ABCH   SYMBOL    CODE     NEAR LAB  ?L?COM003E
      01002D43H   SYMBOL    CODE     NEAR LAB  ?L?COM0040
      01002C43H   SYMBOL    CODE     NEAR LAB  ?L?COM0041
      01002AB3H   SYMBOL    CODE     NEAR LAB  ?L?COM0042
      01002862H   SYMBOL    CODE     NEAR LAB  ?L?COM0044
      01002D51H   SYMBOL    CODE     NEAR LAB  ?L?COM0045
      0100263EH   SYMBOL    CODE     NEAR LAB  ?L?COM0046
      0100193DH   SYMBOL    CODE     NEAR LAB  ?L?COM0047
      01002D5DH   SYMBOL    CODE     NEAR LAB  ?L?COM0048
      01002D66H   SYMBOL    CODE     NEAR LAB  ?L?COM0049
      01002D6FH   SYMBOL    CODE     NEAR LAB  ?L?COM004A
      01002AD1H   SYMBOL    CODE     NEAR LAB  ?L?COM004B
      0100175DH   SYMBOL    CODE     NEAR LAB  ?L?COM004C
      01002AC9H   SYMBOL    CODE     NEAR LAB  ?L?COM004D
      01001FF2H   SYMBOL    CODE     NEAR LAB  ?L?COM004E
LX51 LINKER/LOCATER V4.66.93.0                                                        05/08/2020  19:08:08  PAGE 89


      01002D78H   SYMBOL    CODE     NEAR LAB  ?L?COM004F
      01002D7FH   SYMBOL    CODE     NEAR LAB  ?L?COM0050
      01002D18H   SYMBOL    CODE     NEAR LAB  ?L?COM0051

Program Size: data=47.7 xdata=2256 const=1324 code=10322
LX51 RUN COMPLETE.  0 WARNING(S),  0 ERROR(S)
