LX51 LINKER/LOCATER V4.66.93.0                                                          04/15/2020  14:21:01  PAGE 1


LX51 LINKER/LOCATER V4.66.93.0, INVOKED BY:
C:\KEIL_V5\C51\BIN\LX51.EXE .\Objects\main.obj, .\Objects\ISR.obj, .\Objects\uart.obj, .\Objects\Init.obj, .\Objects\del
>> ay.obj, .\Objects\DS18B20.obj, .\Objects\LCD1602.obj, .\Objects\CloudHandle.obj, .\Objects\CloudCodeArray.obj TO .\Ob
>> jects\STC8_AlibabaCloud PRINT (.\Listings\STC8_AlibabaCloud.map) REMOVEUNUSED


CPU MODE:     8051 MODE
MEMORY MODEL: SMALL WITH FLOATING POINT ARITHMETIC


INPUT MODULES INCLUDED:
  .\Objects\main.obj (MAIN)
         COMMENT TYPE 0: C51 V9.59.0.0
  .\Objects\ISR.obj (ISR)
         COMMENT TYPE 0: C51 V9.59.0.0
  .\Objects\uart.obj (UART)
         COMMENT TYPE 0: C51 V9.59.0.0
  .\Objects\Init.obj (INIT)
         COMMENT TYPE 0: C51 V9.59.0.0
  .\Objects\delay.obj (DELAY)
         COMMENT TYPE 0: C51 V9.59.0.0
  .\Objects\DS18B20.obj (DS18B20)
         COMMENT TYPE 0: C51 V9.59.0.0
  .\Objects\LCD1602.obj (LCD1602)
         COMMENT TYPE 0: C51 V9.59.0.0
  .\Objects\CloudHandle.obj (CLOUDHANDLE)
         COMMENT TYPE 0: C51 V9.59.0.0
  .\Objects\CloudCodeArray.obj (CLOUDCODEARRAY)
         COMMENT TYPE 0: C51 V9.59.0.0
  C:\KEIL_V5\C51\LIB\C51FPS.LIB (?C?FPADD)
         COMMENT TYPE 1: A51 / ASM51 Assembler
  C:\KEIL_V5\C51\LIB\C51FPS.LIB (?C?FPMUL)
         COMMENT TYPE 1: A51 / ASM51 Assembler
  C:\KEIL_V5\C51\LIB\C51FPS.LIB (?C?FCAST)
         COMMENT TYPE 1: A51 / ASM51 Assembler
  C:\KEIL_V5\C51\LIB\C51FPS.LIB (?C?CASTF)
         COMMENT TYPE 1: A51 / ASM51 Assembler
  C:\KEIL_V5\C51\LIB\C51FPS.LIB (PRINTF)
         COMMENT TYPE 1: A51 / ASM51 Assembler
  C:\KEIL_V5\C51\LIB\C51FPS.LIB (?C?FPGETOPN)
         COMMENT TYPE 1: A51 / ASM51 Assembler
  C:\KEIL_V5\C51\LIB\C51FPS.LIB (?C?FPROUND)
         COMMENT TYPE 1: A51 / ASM51 Assembler
  C:\KEIL_V5\C51\LIB\C51FPS.LIB (?C?FPCONVERT)
         COMMENT TYPE 1: A51 / ASM51 Assembler
  C:\KEIL_V5\C51\LIB\C51FPS.LIB (?C?FPDIV)
         COMMENT TYPE 1: A51 / ASM51 Assembler
  C:\KEIL_V5\C51\LIB\C51FPS.LIB (?C?FTNPWR)
         COMMENT TYPE 1: A51 / ASM51 Assembler
  C:\KEIL_V5\C51\LIB\C51S.LIB (?C_STARTUP)
         COMMENT TYPE 1: A51 / ASM51 Assembler
  C:\KEIL_V5\C51\LIB\C51S.LIB (?C?CLDPTR)
         COMMENT TYPE 1: A51 / ASM51 Assembler
  C:\KEIL_V5\C51\LIB\C51S.LIB (?C?CLDOPTR)
         COMMENT TYPE 1: A51 / ASM51 Assembler
  C:\KEIL_V5\C51\LIB\C51S.LIB (?C?CSTPTR)
         COMMENT TYPE 1: A51 / ASM51 Assembler
  C:\KEIL_V5\C51\LIB\C51S.LIB (?C?ILDIX)
         COMMENT TYPE 1: A51 / ASM51 Assembler
  C:\KEIL_V5\C51\LIB\C51S.LIB (?C?LNEG)
         COMMENT TYPE 1: A51 / ASM51 Assembler
  C:\KEIL_V5\C51\LIB\C51S.LIB (?C?ULCMP)
         COMMENT TYPE 1: A51 / ASM51 Assembler
  C:\KEIL_V5\C51\LIB\C51S.LIB (?C?ULSHR)
         COMMENT TYPE 1: A51 / ASM51 Assembler
  C:\KEIL_V5\C51\LIB\C51S.LIB (?C?LLDCODE0)
LX51 LINKER/LOCATER V4.66.93.0                                                        04/15/2020  14:21:01  PAGE 2


         COMMENT TYPE 1: A51 / ASM51 Assembler
  C:\KEIL_V5\C51\LIB\C51S.LIB (?C?LSTXDATA)
         COMMENT TYPE 1: A51 / ASM51 Assembler
  C:\KEIL_V5\C51\LIB\C51S.LIB (?C?PLDIIDATA)
         COMMENT TYPE 1: A51 / ASM51 Assembler
  C:\KEIL_V5\C51\LIB\C51S.LIB (?C?CCASE)
         COMMENT TYPE 1: A51 / ASM51 Assembler
  C:\KEIL_V5\C51\LIB\C51S.LIB (PUTCHAR)
         COMMENT TYPE 1: A51 / ASM51 Assembler
  C:\KEIL_V5\C51\LIB\C51S.LIB (STRNCMP)
         COMMENT TYPE 1: C51 Compiler
  C:\KEIL_V5\C51\LIB\C51S.LIB (?C?MEMSET)
         COMMENT TYPE 1: A51 / ASM51 Assembler
  C:\KEIL_V5\C51\LIB\C51S.LIB (?C_INIT)
         COMMENT TYPE 1: A51 / ASM51 Assembler


ACTIVE MEMORY CLASSES OF MODULE:  .\Objects\STC8_AlibabaCloud (MAIN)

BASE        START       END         USED      MEMORY CLASS
==========================================================
C:000000H   C:000000H   C:00FFFFH   001C34H   CODE
I:000020H.0 I:000020H.0 I:00002FH.7 000001H.4 BIT
I:000000H   I:000000H   I:00007FH   00002BH   DATA
X:000000H   X:000000H   X:00FFFFH   0006CAH   XDATA
X:000000H   X:000000H   X:0000FFH   000008H   PDATA
C:000000H   C:000000H   C:00FFFFH   0003AEH   CONST
I:000000H   I:000000H   I:0000FFH   000001H   IDATA


MEMORY MAP OF MODULE:  .\Objects\STC8_AlibabaCloud (MAIN)


START     STOP      LENGTH    ALIGN  RELOC    MEMORY CLASS   SEGMENT NAME
=========================================================================

* * * * * * * * * * *   D A T A   M E M O R Y   * * * * * * * * * * * * *
000000H   000007H   000008H   ---    AT..     DATA           "REG BANK 0"
000008H   00000BH   000004H   BYTE   UNIT     DATA           ?DT?UART
00000CH   00000CH   000001H   BYTE   UNIT     DATA           ?DT?CLOUDHANDLE
00000DH.0 00001FH.7 000013H.0 ---    ---      **GAP**
000020H.0 000021H.1 000001H.2 BIT    UNIT     BIT            _BIT_GROUP_
000021H.2 000021H.3 000000H.2 BIT    UNIT     BIT            ?BI?UART
000021H.4 000021H   000000H.4 ---    ---      **GAP**
000022H   00003FH   00001EH   BYTE   UNIT     DATA           _DATA_GROUP_
000040H   000040H   000001H   BYTE   UNIT     IDATA          ?STACK

* * * * * * * * * * *   C O D E   M E M O R Y   * * * * * * * * * * * * *
000000H   000002H   000003H   ---    OFFS..   CODE           ?CO??C_STARTUP?0
000003H   00000AH   000008H   BYTE   UNIT     CODE           ?PR?MAIN?MAIN
00000BH   00000DH   000003H   BYTE   OFFS..   CODE           ?ISR?0000B
00000EH   000022H   000015H   BYTE   UNIT     CODE           ?PR?LCD1602WAIT?LCD1602
000023H   000025H   000003H   BYTE   OFFS..   CODE           ?ISR?00023
000026H   000042H   00001DH   BYTE   UNIT     CODE           ?PR?INIT_INTERRUPT?INIT
000043H   000045H   000003H   BYTE   OFFS..   CODE           ?ISR?00043
000046H   000662H   00061DH   BYTE   UNIT     CODE           ?C?LIB_CODE
000663H   000AD1H   00046FH   BYTE   UNIT     CODE           ?PR?PRINTF?PRINTF
000AD2H   000CC8H   0001F7H   BYTE   UNIT     CODE           ?PR?_CLOUDSEND?CLOUDHANDLE
000CC9H   000E75H   0001ADH   BYTE   UNIT     CODE           ?PR?CLOUDHANDLERECEIVE?CLOUDHANDLE
000E76H   001007H   000192H   BYTE   UNIT     CODE           ?PR?CLOUDINIT?CLOUDHANDLE
001008H   001175H   00016EH   BYTE   UNIT     CODE           ?PR?DS18B20GETTEMPERATURE?DS18B20
001176H   00129CH   000127H   BYTE   UNIT     CODE           ?PR?CLOUDHANDLE
00129DH   001393H   0000F7H   BYTE   UNIT     CODE           ?PR?_CLOUDREPORT?CLOUDHANDLE
001394H   001472H   0000DFH   BYTE   UNIT     CODE           ?PR?_CLOUDRESEND?CLOUDHANDLE
001473H   00154FH   0000DDH   BYTE   UNIT     CODE           ?PR?CLOUDLOOP?CLOUDHANDLE
LX51 LINKER/LOCATER V4.66.93.0                                                        04/15/2020  14:21:01  PAGE 3


001550H   00162AH   0000DBH   BYTE   UNIT     CODE           ?PR?DS18B20STINIT?DS18B20
00162BH   0016DAH   0000B0H   BYTE   UNIT     CODE           ?PR?CLOUDRECEIVE?CLOUDHANDLE
0016DBH   001766H   00008CH   BYTE   UNIT     CODE           ?C_C51STARTUP
001767H   0017F1H   00008BH   BYTE   UNIT     CODE           ?PR?UART2_ISR?ISR
0017F2H   001860H   00006FH   BYTE   UNIT     CODE           ?PR?_STRNCMP?STRNCMP
001861H   0018B9H   000059H   BYTE   UNIT     CODE           ?PR?TM0_ISR?ISR
0018BAH   001903H   00004AH   BYTE   UNIT     CODE           ?PR?LCD1602INIT?LCD1602
001904H   001947H   000044H   BYTE   UNIT     CODE           ?PR?_INIT_WKT?INIT
001948H   001981H   00003AH   BYTE   UNIT     CODE           ?PR?DS18B20READBYTE?DS18B20
001982H   0019B9H   000038H   BYTE   UNIT     CODE           ?PR?DS18B20
0019BAH   0019F0H   000037H   BYTE   UNIT     CODE           ?PR?_LCD1602WRITELINE?LCD1602
0019F1H   001A26H   000036H   BYTE   UNIT     CODE           ?PR?_LCD1602LOADWORD?LCD1602
001A27H   001A5BH   000035H   BYTE   UNIT     CODE           ?PR?INIT_UART2?INIT
001A5CH   001A88H   00002DH   BYTE   UNIT     CODE           ?PR?_DS18B20WRITEBYTE?DS18B20
001A89H   001AB4H   00002CH   BYTE   UNIT     CODE           ?PR?DS18B20INIT?DS18B20
001AB5H   001ADBH   000027H   BYTE   UNIT     CODE           ?PR?PUTCHAR?PUTCHAR
001ADCH   001B00H   000025H   BYTE   UNIT     CODE           ?PR?_UART2_SENDSTR8?UART
001B01H   001B25H   000025H   BYTE   UNIT     CODE           ?PR?INIT?INIT
001B26H   001B44H   00001FH   BYTE   UNIT     CODE           ?PR?INIT_IO?INIT
001B45H   001B57H   000013H   BYTE   UNIT     CODE           ?PR?_LCD1602WRITECMDORDATA?LCD1602
001B58H   001B69H   000012H   BYTE   UNIT     CODE           ?PR?DS18B20CONVERTTEMPERATURE?DS18B20
001B6AH   001B7BH   000012H   BYTE   UNIT     CODE           ?PR?_LCD1602SETCGRAM?LCD1602
001B7CH   001B8CH   000011H   BYTE   UNIT     CODE           ?PR?INIT_TIMER0?INIT
001B8DH   001B9BH   00000FH   BYTE   UNIT     CODE           ?PR?DELAY385MS?DELAY
001B9CH   001BA8H   00000DH   BYTE   UNIT     CODE           ?PR?DELAY100MS?DELAY
001BA9H   001BB5H   00000DH   BYTE   UNIT     CODE           ?PR?DELAY200MS?DELAY
001BB6H   001BC2H   00000DH   BYTE   UNIT     CODE           ?PR?DELAY765MS?DELAY
001BC3H   001BCDH   00000BH   BYTE   UNIT     CODE           ?PR?_UART2_SEND8?UART
001BCEH   001BD8H   00000BH   BYTE   UNIT     CODE           ?PR?DELAY60US?DELAY
001BD9H   001BE2H   00000AH   BYTE   UNIT     CODE           ?PR?ISR
001BE3H   001BECH   00000AH   BYTE   UNIT     CODE           ?PR?INIT_RST?INIT
001BEDH   001BF6H   00000AH   BYTE   UNIT     CODE           ?PR?DELAY40US?DELAY
001BF7H   001C00H   00000AH   BYTE   UNIT     CODE           ?PR?DELAY130US?DELAY
001C01H   001C09H   000009H   BYTE   UNIT     CODE           ?PR?DELAY485US?DELAY
001C0AH   001C12H   000009H   BYTE   UNIT     CODE           ?PR?DELAY1MS?DELAY
001C13H   001C1AH   000008H   BYTE   UNIT     CODE           ?PR?UART1_ISR?ISR
001C1BH   001C22H   000008H   BYTE   UNIT     CODE           ?PR?_LCD1602SETDDRAM?LCD1602
001C23H   001C29H   000007H   BYTE   UNIT     CODE           ?PR?DELAY10US?DELAY
001C2AH   001C2FH   000006H   BYTE   UNIT     CODE           ?PR?DELAY1US?DELAY
001C30H   001C33H   000004H   BYTE   UNIT     CODE           ?C_INITSEG
001C34H   001E05H   0001D2H   BYTE   UNIT     CONST          ?CO?CLOUDCODEARRAY
001E06H   001FABH   0001A6H   BYTE   UNIT     CONST          ?CO?CLOUDHANDLE
001FACH   001FC9H   00001EH   BYTE   UNIT     CONST          ?CO?LCD1602
001FCAH   001FE1H   000018H   BYTE   UNIT     CONST          ?CO?DS18B20

* * * * * * * * * * *  X D A T A   M E M O R Y  * * * * * * * * * * * * *
000000H   000007H   000008H   BYTE   INPAGE   PDATA          _PDATA_GROUP_
000008H   00046CH   000465H   BYTE   UNIT     XDATA          ?XD?CLOUDHANDLE
00046DH   0006C4H   000258H   BYTE   UNIT     XDATA          ?XD?UART
0006C5H   0006CFH   00000BH   BYTE   UNIT     XDATA          ?XD?DS18B20
0006D0H   0006D1H   000002H   BYTE   UNIT     XDATA          _XDATA_GROUP_

* * * * * * * * *   R E M O V E D     S E G M E N T S   * * * * * * * *
   *DEL*:           000009H   BYTE   UNIT     CODE           ?PR?DELAY45US?DELAY
   *DEL*:           00003CH   BYTE   UNIT     CODE           ?PR?_DS18B20SET?DS18B20
   *DEL*:           000003H   BYTE   UNIT     DATA           ?DT?_DS18B20SET?DS18B20
   *DEL*:           000014H   BYTE   UNIT     CODE           ?PR?LCD1602READIDX?LCD1602
   *DEL*:           000014H   BYTE   UNIT     CODE           ?PR?LCD1602READDATA?LCD1602



OVERLAY MAP OF MODULE:   .\Objects\STC8_AlibabaCloud (MAIN)


FUNCTION/MODULE                         BIT_GROUP   DATA_GROUP   PDATA_GROUP  XDATA_GROUP
LX51 LINKER/LOCATER V4.66.93.0                                                        04/15/2020  14:21:01  PAGE 4


--> CALLED FUNCTION/MODULE             START  STOP  START  STOP  START  STOP  START  STOP
=========================================================================================
TM0_ISR/ISR                            ----- -----  ----- -----  ----- -----  ----- -----

*** NEW ROOT *************************

UART1_ISR/ISR                          ----- -----  ----- -----  ----- -----  ----- -----

*** NEW ROOT *************************

UART2_ISR/ISR                          20H.0 20H.0  ----- -----  ----- -----  ----- -----
  +--> ISR

ISR                                    ----- -----  ----- -----  ----- -----  ----- -----

*** NEW ROOT *************************

?C_C51STARTUP                          ----- -----  ----- -----  ----- -----  ----- -----
  +--> MAIN/MAIN
  +--> ?C_INITSEG

MAIN/MAIN                              ----- -----  ----- -----  ----- -----  ----- -----
  +--> INIT/INIT
  +--> CLOUDLOOP/CLOUDHANDLE

INIT/INIT                              ----- -----  ----- -----  ----- -----  ----- -----
  +--> INIT_RST/INIT
  +--> INIT_IO/INIT
  +--> INIT_TIMER0/INIT
  +--> INIT_UART2/INIT
  +--> _INIT_WKT/INIT
  +--> INIT_INTERRUPT/INIT
  +--> CLOUDINIT/CLOUDHANDLE
  +--> DS18B20STINIT/DS18B20
  +--> LCD1602INIT/LCD1602

INIT_RST/INIT                          ----- -----  ----- -----  ----- -----  ----- -----

INIT_IO/INIT                           ----- -----  ----- -----  ----- -----  ----- -----

INIT_TIMER0/INIT                       ----- -----  ----- -----  ----- -----  ----- -----

INIT_UART2/INIT                        ----- -----  0022H 0025H  ----- -----  ----- -----

_INIT_WKT/INIT                         20H.1 20H.1  0022H 0025H  0000H 0001H  ----- -----

INIT_INTERRUPT/INIT                    ----- -----  ----- -----  ----- -----  ----- -----

CLOUDINIT/CLOUDHANDLE                  ----- -----  ----- -----  ----- -----  ----- -----
  +--> CLOUDHANDLE
  +--> CLOUDRECEIVE/CLOUDHANDLE
  +--> _CLOUDSEND/CLOUDHANDLE
  +--> _CLOUDRESEND/CLOUDHANDLE

CLOUDHANDLE                            ----- -----  ----- -----  ----- -----  ----- -----

CLOUDRECEIVE/CLOUDHANDLE               ----- -----  0025H 0028H  ----- -----  ----- -----
  +--> CLOUDHANDLE
  +--> CLOUDHANDLERECEIVE/CLOUDHANDLE

CLOUDHANDLERECEIVE/CLOUDHANDLE         ----- -----  ----- -----  ----- -----  ----- -----
  +--> CLOUDHANDLE
  +--> _STRNCMP/STRNCMP

_STRNCMP/STRNCMP                       ----- -----  0029H 0030H  ----- -----  ----- -----
LX51 LINKER/LOCATER V4.66.93.0                                                        04/15/2020  14:21:01  PAGE 5



_CLOUDSEND/CLOUDHANDLE                 ----- -----  0023H 0023H  0001H 0001H  ----- -----
  +--> CLOUDHANDLE
  +--> PRINTF/PRINTF
  +--> _UART2_SENDSTR8/UART

PRINTF/PRINTF                          20H.1 21H.1  0024H 003FH  ----- -----  ----- -----
  +--> PUTCHAR/PUTCHAR

PUTCHAR/PUTCHAR                        ----- -----  ----- -----  ----- -----  ----- -----

_UART2_SENDSTR8/UART                   ----- -----  0025H 0027H  ----- -----  ----- -----
  +--> _UART2_SEND8/UART

_UART2_SEND8/UART                      ----- -----  ----- -----  ----- -----  ----- -----

_CLOUDRESEND/CLOUDHANDLE               ----- -----  0023H 0024H  ----- -----  06D0H 06D1H
  +--> CLOUDHANDLE
  +--> _UART2_SENDSTR8/UART
  +--> CLOUDRECEIVE/CLOUDHANDLE

DS18B20STINIT/DS18B20                  ----- -----  0022H 0023H  ----- -----  ----- -----
  +--> DS18B20INIT/DS18B20
  +--> _DS18B20WRITEBYTE/DS18B20
  +--> DS18B20READBYTE/DS18B20
  +--> DS18B20
  +--> DS18B20CONVERTTEMPERATURE/DS18B20
  +--> DELAY100MS/DELAY
  +--> DELAY200MS/DELAY
  +--> DELAY385MS/DELAY
  +--> DELAY765MS/DELAY
  +--> DS18B20GETTEMPERATURE/DS18B20

DS18B20INIT/DS18B20                    ----- -----  ----- -----  0006H 0006H  ----- -----
  +--> DELAY60US/DELAY
  +--> DELAY485US/DELAY
  +--> DELAY10US/DELAY
  +--> DELAY130US/DELAY

DELAY60US/DELAY                        ----- -----  ----- -----  ----- -----  ----- -----

DELAY485US/DELAY                       ----- -----  ----- -----  ----- -----  ----- -----

DELAY10US/DELAY                        ----- -----  ----- -----  ----- -----  ----- -----

DELAY130US/DELAY                       ----- -----  ----- -----  ----- -----  ----- -----

_DS18B20WRITEBYTE/DS18B20              ----- -----  0024H 0024H  0006H 0006H  ----- -----
  +--> DELAY1US/DELAY
  +--> DELAY60US/DELAY

DELAY1US/DELAY                         ----- -----  ----- -----  ----- -----  ----- -----

DS18B20READBYTE/DS18B20                ----- -----  ----- -----  0006H 0007H  ----- -----
  +--> DELAY10US/DELAY
  +--> DELAY1US/DELAY
  +--> DELAY60US/DELAY

DS18B20                                ----- -----  ----- -----  ----- -----  ----- -----

DS18B20CONVERTTEMPERATURE/DS18B20      ----- -----  ----- -----  ----- -----  ----- -----
  +--> DS18B20INIT/DS18B20
  +--> _DS18B20WRITEBYTE/DS18B20

DELAY100MS/DELAY                       ----- -----  ----- -----  ----- -----  ----- -----
LX51 LINKER/LOCATER V4.66.93.0                                                        04/15/2020  14:21:01  PAGE 6



DELAY200MS/DELAY                       ----- -----  ----- -----  ----- -----  ----- -----

DELAY385MS/DELAY                       ----- -----  ----- -----  ----- -----  ----- -----

DELAY765MS/DELAY                       ----- -----  ----- -----  ----- -----  ----- -----

DS18B20GETTEMPERATURE/DS18B20          ----- -----  ----- -----  0000H 0005H  ----- -----
  +--> DS18B20
  +--> DS18B20INIT/DS18B20
  +--> _DS18B20WRITEBYTE/DS18B20
  +--> DS18B20READBYTE/DS18B20

LCD1602INIT/LCD1602                    ----- -----  ----- -----  ----- -----  ----- -----
  +--> _LCD1602WRITECMDORDATA/LCD1602
  +--> _LCD1602LOADWORD/LCD1602
  +--> _LCD1602WRITELINE/LCD1602

_LCD1602WRITECMDORDATA/LCD1602         20H.2 20H.2  0027H 0027H  ----- -----  ----- -----
  +--> LCD1602WAIT/LCD1602

LCD1602WAIT/LCD1602                    20H.3 20H.3  ----- -----  ----- -----  ----- -----
  +--> DELAY40US/DELAY

DELAY40US/DELAY                        ----- -----  ----- -----  ----- -----  ----- -----

_LCD1602LOADWORD/LCD1602               ----- -----  0022H 0026H  ----- -----  ----- -----
  +--> DELAY1MS/DELAY
  +--> _LCD1602SETCGRAM/LCD1602
  +--> _LCD1602WRITECMDORDATA/LCD1602

DELAY1MS/DELAY                         ----- -----  ----- -----  ----- -----  ----- -----

_LCD1602SETCGRAM/LCD1602               ----- -----  ----- -----  ----- -----  ----- -----
  +--> _LCD1602WRITECMDORDATA/LCD1602

_LCD1602WRITELINE/LCD1602              20H.1 20H.1  0022H 0025H  ----- -----  ----- -----
  +--> _LCD1602SETDDRAM/LCD1602
  +--> _LCD1602WRITECMDORDATA/LCD1602

_LCD1602SETDDRAM/LCD1602               ----- -----  ----- -----  ----- -----  ----- -----
  +--> _LCD1602WRITECMDORDATA/LCD1602

CLOUDLOOP/CLOUDHANDLE                  ----- -----  ----- -----  ----- -----  ----- -----
  +--> CLOUDRECEIVE/CLOUDHANDLE
  +--> _CLOUDRESEND/CLOUDHANDLE
  +--> CLOUDHANDLE
  +--> _CLOUDREPORT/CLOUDHANDLE
  +--> DS18B20GETTEMPERATURE/DS18B20
  +--> DS18B20CONVERTTEMPERATURE/DS18B20

_CLOUDREPORT/CLOUDHANDLE               ----- -----  0022H 0022H  0000H 0000H  ----- -----
  +--> CLOUDHANDLE
  +--> _CLOUDSEND/CLOUDHANDLE
  +--> CLOUDRECEIVE/CLOUDHANDLE
  +--> _CLOUDRESEND/CLOUDHANDLE
  +--> PRINTF/PRINTF

?C_INITSEG                             ----- -----  ----- -----  ----- -----  ----- -----



PUBLIC SYMBOLS OF MODULE:  .\Objects\STC8_AlibabaCloud (MAIN)


LX51 LINKER/LOCATER V4.66.93.0                                                        04/15/2020  14:21:01  PAGE 7


      VALUE       CLASS    TYPE      PUBLIC SYMBOL NAME
      =================================================
      00000020H.2 BIT      BIT       ?_LCD1602WriteCmdOrData?BIT
      00000020H.1 BIT      BIT       ?_LCD1602WriteLine?BIT
      00000024H   DATA     ---       ?_PRINTF?BYTE
      00000024H   DATA     ---       ?_SPRINTF?BYTE
      00000029H   DATA     ---       ?_strncmp?BYTE
      01000282H   CODE     ---       ?C?CASTF
      01000611H   CODE     ---       ?C?CCASE
      0100055EH   CODE     ---       ?C?CLDOPTR
      01000545H   CODE     ---       ?C?CLDPTR
      00000000H   NUMBER   ---       ?C?CODESEG
      0100058BH   CODE     ---       ?C?CSTPTR
      0100024EH   CODE     ---       ?C?FCASTC
      01000249H   CODE     ---       ?C?FCASTI
      01000244H   CODE     ---       ?C?FCASTL
      0100004DH   CODE     ---       ?C?FPADD
      01000332H   CODE     ---       ?C?FPCONVERT
      01000438H   CODE     ---       ?C?FPDIV
      010002B9H   CODE     ---       ?C?FPGETOPN2
      0100013EH   CODE     ---       ?C?FPMUL
      010002EEH   CODE     ---       ?C?FPNANRESULT
      010002F8H   CODE     ---       ?C?FPOVERFLOW
      010002D0H   CODE     ---       ?C?FPRESULT
      010002E4H   CODE     ---       ?C?FPRESULT2
      01000303H   CODE     ---       ?C?FPROUND
      01000049H   CODE     ---       ?C?FPSUB
      010002F5H   CODE     ---       ?C?FPUNDERFLOW
      01000505H   CODE     ---       ?C?FTNPWR
      0100059DH   CODE     ---       ?C?ILDIX
      010005E5H   CODE     ---       ?C?LLDCODE0
      010005B3H   CODE     ---       ?C?LNEG
      010005F5H   CODE     ---       ?C?LSTXDATA
      01000637H   CODE     ---       ?C?MEMSET
      01000601H   CODE     ---       ?C?PLDIIDATA
      010005C1H   CODE     ---       ?C?ULCMP
      010005D2H   CODE     ---       ?C?ULSHR
      00000000H   NUMBER   ---       ?C?XDATASEG
      01001722H   CODE     ---       ?C_START
      01000000H   CODE     ---       ?C_STARTUP
*DEL*:00000000H   CODE     ---       _DS18B20Set
      01001904H   CODE     ---       _Init_wkt
      01001C1BH   CODE     ---       _LCD1602SetDDRAM
      01001B45H   CODE     ---       _LCD1602WriteCmdOrData
      010019BAH   CODE     ---       _LCD1602WriteLine
      010006C5H   CODE     ---       _PRINTF
      01001AB5H   CODE     ---       _PUTCHAR
      010006BFH   CODE     ---       _SPRINTF
      010017F2H   CODE     ---       _strncmp
      01001BC3H   CODE     ---       _uart2_send8
      01001ADCH   CODE     ---       _uart2_sendstr8
*SFR* 000000D0H.6 DATA     BIT       AC
*SFR* 000000E0H   DATA     BYTE      ACC
*SFR* 000000BCH   DATA     BYTE      ADC_CONTR
*SFR* 000000BDH   DATA     BYTE      ADC_RES
*SFR* 000000BEH   DATA     BYTE      ADC_RESL
*SFR* 000000DEH   DATA     BYTE      ADCCFG
      01001DD6H   CONST    ---       ATCmd
      01001D41H   CONST    ---       ATCmd0
      01001D4AH   CONST    ---       ATCmd1
      01001DA5H   CONST    ---       ATCmd10
      01001DAFH   CONST    ---       ATCmd11
      01001DBAH   CONST    ---       ATCmd12
      01001DC4H   CONST    ---       ATCmd13
      01001DC9H   CONST    ---       ATCmd14
LX51 LINKER/LOCATER V4.66.93.0                                                        04/15/2020  14:21:01  PAGE 8


      01001DD0H   CONST    ---       ATCmd15
      01001D53H   CONST    ---       ATCmd2
      01001D5BH   CONST    ---       ATCmd3
      01001D69H   CONST    ---       ATCmd4
      01001D74H   CONST    ---       ATCmd5
      01001D82H   CONST    ---       ATCmd6
      01001D8CH   CONST    ---       ATCmd7
      01001D94H   CONST    ---       ATCmd8
      01001D9CH   CONST    ---       ATCmd9
*SFR* 000000EFH   DATA     BYTE      AUXINTIF
*SFR* 0000008EH   DATA     BYTE      AUXR
*SFR* 00000097H   DATA     BYTE      AUXR2
*SFR* 000000F0H   DATA     BYTE      B
*SFR* 000000A1H   DATA     BYTE      BUS_SPEED
*SFR* 000000FAH   DATA     BYTE      CCAP0H
*SFR* 000000EAH   DATA     BYTE      CCAP0L
*SFR* 000000FBH   DATA     BYTE      CCAP1H
*SFR* 000000EBH   DATA     BYTE      CCAP1L
*SFR* 000000FCH   DATA     BYTE      CCAP2H
*SFR* 000000ECH   DATA     BYTE      CCAP2L
*SFR* 000000FDH   DATA     BYTE      CCAP3H
*SFR* 000000EDH   DATA     BYTE      CCAP3L
*SFR* 000000DAH   DATA     BYTE      CCAPM0
*SFR* 000000DBH   DATA     BYTE      CCAPM1
*SFR* 000000DCH   DATA     BYTE      CCAPM2
*SFR* 000000DDH   DATA     BYTE      CCAPM3
*SFR* 000000D8H.0 DATA     BIT       CCF0
*SFR* 000000D8H.1 DATA     BIT       CCF1
*SFR* 000000D8H.2 DATA     BIT       CCF2
*SFR* 000000D8H.3 DATA     BIT       CCF3
*SFR* 000000D8H   DATA     BYTE      CCON
*SFR* 000000D8H.7 DATA     BIT       CF
*SFR* 000000F9H   DATA     BYTE      CH
*SFR* 000000E9H   DATA     BYTE      CL
      0200006CH   XDATA    ---       CloudAct
      01000E76H   CODE     ---       CloudInit
      01001473H   CODE     ---       CloudLoop
*SFR* 000000D9H   DATA     BYTE      CMOD
*SFR* 000000E6H   DATA     BYTE      CMPCR1
*SFR* 000000E7H   DATA     BYTE      CMPCR2
*SFR* 000000D8H.6 DATA     BIT       CR
*SFR* 000000D0H.7 DATA     BIT       CY
      01001B9CH   CODE     ---       Delay100ms
      01001C23H   CODE     ---       Delay10us
      01001BF7H   CODE     ---       Delay130us
      01001C0AH   CODE     ---       Delay1ms
      01001C2AH   CODE     ---       Delay1us
      01001BA9H   CODE     ---       Delay200ms
      01001B8DH   CODE     ---       Delay385ms
      01001BEDH   CODE     ---       Delay40us
*DEL*:00000000H   CODE     ---       Delay45us
      01001C01H   CODE     ---       Delay485us
      01001BCEH   CODE     ---       Delay60us
      01001BB6H   CODE     ---       Delay765ms
      01001C34H   CONST    ---       DeviceName
*SFR* 00000083H   DATA     BYTE      DPH
*SFR* 000000E5H   DATA     BYTE      DPH1
*SFR* 00000082H   DATA     BYTE      DPL
*SFR* 000000E4H   DATA     BYTE      DPL1
*SFR* 000000E3H   DATA     BYTE      DPS
*SFR* 000000C0H.1 DATA     BIT       DS18B20_DATA
      01001B58H   CODE     ---       DS18B20ConvertTemperature
      01001FCAH   CONST    ---       DS18B20ConvertTMaxTime
      01001008H   CODE     ---       DS18B20GetTemperature
      01001FD2H   CONST    ---       DS18B20ReTransfrom
LX51 LINKER/LOCATER V4.66.93.0                                                        04/15/2020  14:21:01  PAGE 9


      020006C5H   XDATA    ---       DS18B20ST
      01001550H   CODE     ---       DS18B20STInit
*SFR* 000000A8H.7 DATA     BIT       EA
*SFR* 000000A8H.5 DATA     BIT       EADC
*SFR* 000000A8H.6 DATA     BIT       ELVD
*SFR* 000000A8H.4 DATA     BIT       ES
*SFR* 000000B0H.6 DATA     BIT       ESP8266_RST
*SFR* 000000A8H.1 DATA     BIT       ET0
*SFR* 000000A8H.3 DATA     BIT       ET1
      01001D14H   CONST    ---       Event_1
      01001D3DH   CONST    BYTE      Event_1_Len
      01001D28H   CONST    ---       Event_2
      01001D3EH   CONST    BYTE      Event_2_Len
*SFR* 000000A8H.0 DATA     BIT       EX0
*SFR* 000000A8H.2 DATA     BIT       EX1
*SFR* 000000D0H.5 DATA     BIT       F0
*SFR* 000000C3H   DATA     BYTE      IAP_ADDRH
*SFR* 000000C4H   DATA     BYTE      IAP_ADDRL
*SFR* 000000C5H   DATA     BYTE      IAP_CMD
*SFR* 000000C7H   DATA     BYTE      IAP_CONTR
*SFR* 000000C2H   DATA     BYTE      IAP_DATA
*SFR* 000000C6H   DATA     BYTE      IAP_TRIG
*SFR* 000000A8H   DATA     BYTE      IE
*SFR* 00000088H.1 DATA     BIT       IE0
*SFR* 00000088H.3 DATA     BIT       IE1
*SFR* 000000AFH   DATA     BYTE      IE2
      01001B01H   CODE     ---       Init
      01000026H   CODE     ---       Init_interrupt
      01001B26H   CODE     ---       Init_io
      01001BE3H   CODE     ---       Init_rst
      01001B7CH   CODE     ---       Init_timer0
      01001A27H   CODE     ---       Init_uart2
*SFR* 0000008FH   DATA     BYTE      INTCLKO
*SFR* 000000B8H   DATA     BYTE      IP
*SFR* 000000B5H   DATA     BYTE      IP2
*SFR* 000000B6H   DATA     BYTE      IP2H
*SFR* 000000B7H   DATA     BYTE      IPH
*SFR* 000000C3H   DATA     BYTE      ISP_ADDRH
*SFR* 000000C4H   DATA     BYTE      ISP_ADDRL
*SFR* 000000C5H   DATA     BYTE      ISP_CMD
*SFR* 000000C7H   DATA     BYTE      ISP_CONTR
*SFR* 000000C2H   DATA     BYTE      ISP_DATA
*SFR* 000000C6H   DATA     BYTE      ISP_TRIG
*SFR* 00000088H.0 DATA     BIT       IT0
*SFR* 00000088H.2 DATA     BIT       IT1
*SFR* 000000A0H.7 DATA     BIT       LCD1602_Busy
*SFR* 000000B0H.2 DATA     BIT       LCD1602_EN
*SFR* 000000B0H.5 DATA     BIT       LCD1602_RS
*SFR* 000000B0H.4 DATA     BIT       LCD1602_RW
      010018BAH   CODE     ---       LCD1602Init
*DEL*:00000000H   CODE     ---       LCD1602ReadData
*DEL*:00000000H   CODE     ---       LCD1602ReadIdx
      01001FC2H   CONST    ---       LCD1602Word_Heart
      01001FBAH   CONST    ---       LCD1602Word_Temperature
*SFR* 00000080H.7 DATA     BIT       LED_BLUE
*SFR* 00000090H.1 DATA     BIT       LED_GREEN
*SFR* 00000090H.0 DATA     BIT       LED_RED
      01000003H   CODE     ---       main
      01001D0DH   CONST    ---       MQTTAutoReConect
      01001D10H   CONST    ---       MQTTAutoStart
      01001CD1H   CONST    ---       MQTTClientID
      01001D0AH   CONST    ---       MQTTHeartBeat
      01001C9BH   CONST    ---       MQTTHost
      01001C72H   CONST    ---       MQTTPassword
      01001CCCH   CONST    ---       MQTTPort
LX51 LINKER/LOCATER V4.66.93.0                                                        04/15/2020  14:21:01  PAGE 10


      01001C5EH   CONST    ---       MQTTUser
*SFR* 000000D0H.2 DATA     BIT       OV
*SFR* 000000D0H.0 DATA     BIT       P
*SFR* 00000080H   DATA     BYTE      P0
*SFR* 00000080H.0 DATA     BIT       P00
*SFR* 00000080H.1 DATA     BIT       P01
*SFR* 00000080H.2 DATA     BIT       P02
*SFR* 00000080H.3 DATA     BIT       P03
*SFR* 00000080H.4 DATA     BIT       P04
*SFR* 00000080H.5 DATA     BIT       P05
*SFR* 00000080H.6 DATA     BIT       P06
*SFR* 00000080H.7 DATA     BIT       P07
*SFR* 00000094H   DATA     BYTE      P0M0
*SFR* 00000093H   DATA     BYTE      P0M1
*SFR* 00000090H   DATA     BYTE      P1
*SFR* 00000090H.0 DATA     BIT       P10
*SFR* 00000090H.1 DATA     BIT       P11
*SFR* 00000090H.2 DATA     BIT       P12
*SFR* 00000090H.3 DATA     BIT       P13
*SFR* 00000090H.4 DATA     BIT       P14
*SFR* 00000090H.5 DATA     BIT       P15
*SFR* 00000090H.6 DATA     BIT       P16
*SFR* 00000090H.7 DATA     BIT       P17
*SFR* 00000092H   DATA     BYTE      P1M0
*SFR* 00000091H   DATA     BYTE      P1M1
*SFR* 000000A0H   DATA     BYTE      P2
*SFR* 000000A0H.0 DATA     BIT       P20
*SFR* 000000A0H.1 DATA     BIT       P21
*SFR* 000000A0H.2 DATA     BIT       P22
*SFR* 000000A0H.3 DATA     BIT       P23
*SFR* 000000A0H.4 DATA     BIT       P24
*SFR* 000000A0H.5 DATA     BIT       P25
*SFR* 000000A0H.6 DATA     BIT       P26
*SFR* 000000A0H.7 DATA     BIT       P27
*SFR* 00000096H   DATA     BYTE      P2M0
*SFR* 00000095H   DATA     BYTE      P2M1
*SFR* 000000B0H   DATA     BYTE      P3
*SFR* 000000B0H.0 DATA     BIT       P30
*SFR* 000000B0H.1 DATA     BIT       P31
*SFR* 000000B0H.2 DATA     BIT       P32
*SFR* 000000B0H.3 DATA     BIT       P33
*SFR* 000000B0H.4 DATA     BIT       P34
*SFR* 000000B0H.5 DATA     BIT       P35
*SFR* 000000B0H.6 DATA     BIT       P36
*SFR* 000000B0H.7 DATA     BIT       P37
*SFR* 000000B2H   DATA     BYTE      P3M0
*SFR* 000000B1H   DATA     BYTE      P3M1
*SFR* 000000C0H   DATA     BYTE      P4
*SFR* 000000C0H.0 DATA     BIT       P40
*SFR* 000000C0H.1 DATA     BIT       P41
*SFR* 000000C0H.2 DATA     BIT       P42
*SFR* 000000C0H.3 DATA     BIT       P43
*SFR* 000000C0H.4 DATA     BIT       P44
*SFR* 000000C0H.5 DATA     BIT       P45
*SFR* 000000C0H.6 DATA     BIT       P46
*SFR* 000000C0H.7 DATA     BIT       P47
*SFR* 000000B4H   DATA     BYTE      P4M0
*SFR* 000000B3H   DATA     BYTE      P4M1
*SFR* 000000C8H   DATA     BYTE      P5
*SFR* 000000C8H.0 DATA     BIT       P50
*SFR* 000000C8H.1 DATA     BIT       P51
*SFR* 000000C8H.2 DATA     BIT       P52
*SFR* 000000C8H.3 DATA     BIT       P53
*SFR* 000000C8H.4 DATA     BIT       P54
*SFR* 000000C8H.5 DATA     BIT       P55
LX51 LINKER/LOCATER V4.66.93.0                                                        04/15/2020  14:21:01  PAGE 11


*SFR* 000000C8H.6 DATA     BIT       P56
*SFR* 000000C8H.7 DATA     BIT       P57
*SFR* 000000CAH   DATA     BYTE      P5M0
*SFR* 000000C9H   DATA     BYTE      P5M1
*SFR* 000000E8H   DATA     BYTE      P6
*SFR* 000000E8H.0 DATA     BIT       P60
*SFR* 000000E8H.1 DATA     BIT       P61
*SFR* 000000E8H.2 DATA     BIT       P62
*SFR* 000000E8H.3 DATA     BIT       P63
*SFR* 000000E8H.4 DATA     BIT       P64
*SFR* 000000E8H.5 DATA     BIT       P65
*SFR* 000000E8H.6 DATA     BIT       P66
*SFR* 000000E8H.7 DATA     BIT       P67
*SFR* 000000CCH   DATA     BYTE      P6M0
*SFR* 000000CBH   DATA     BYTE      P6M1
*SFR* 000000F8H   DATA     BYTE      P7
*SFR* 000000F8H.0 DATA     BIT       P70
*SFR* 000000F8H.1 DATA     BIT       P71
*SFR* 000000F8H.2 DATA     BIT       P72
*SFR* 000000F8H.3 DATA     BIT       P73
*SFR* 000000F8H.4 DATA     BIT       P74
*SFR* 000000F8H.5 DATA     BIT       P75
*SFR* 000000F8H.6 DATA     BIT       P76
*SFR* 000000F8H.7 DATA     BIT       P77
*SFR* 000000E2H   DATA     BYTE      P7M0
*SFR* 000000E1H   DATA     BYTE      P7M1
*SFR* 000000A2H   DATA     BYTE      P_SW1
*SFR* 000000BAH   DATA     BYTE      P_SW2
*SFR* 000000B8H.5 DATA     BIT       PADC
*SFR* 000000F2H   DATA     BYTE      PCA_PWM0
*SFR* 000000F3H   DATA     BYTE      PCA_PWM1
*SFR* 000000F4H   DATA     BYTE      PCA_PWM2
*SFR* 000000F5H   DATA     BYTE      PCA_PWM3
*SFR* 00000087H   DATA     BYTE      PCON
*SFR* 000000B8H.6 DATA     BIT       PLVD
*SFR* 000000B8H.7 DATA     BIT       PPCA
      01001C3CH   CONST    ---       ProductKey
*SFR* 000000B8H.4 DATA     BIT       PS
*SFR* 000000D0H   DATA     BYTE      PSW
*SFR* 000000B8H.1 DATA     BIT       PT0
*SFR* 000000B8H.3 DATA     BIT       PT1
*SFR* 000000F1H   DATA     BYTE      PWMCFG
*SFR* 000000FEH   DATA     BYTE      PWMCR
*SFR* 000000F7H   DATA     BYTE      PWMFDCR
*SFR* 000000F6H   DATA     BYTE      PWMIF
*SFR* 000000B8H.0 DATA     BIT       PX0
*SFR* 000000B8H.2 DATA     BIT       PX1
*SFR* 00000098H.2 DATA     BIT       RB8
*SFR* 00000098H.4 DATA     BIT       REN
*SFR* 00000098H.0 DATA     BIT       RI
*SFR* 000000D0H.3 DATA     BIT       RS0
*SFR* 000000D0H.4 DATA     BIT       RS1
*SFR* 000000FFH   DATA     BYTE      RSTCFG
*SFR* 0000009BH   DATA     BYTE      S2BUF
*SFR* 0000009AH   DATA     BYTE      S2CON
*SFR* 000000ADH   DATA     BYTE      S3BUF
*SFR* 000000ACH   DATA     BYTE      S3CON
*SFR* 00000085H   DATA     BYTE      S4BUF
*SFR* 00000084H   DATA     BYTE      S4CON
*SFR* 000000A9H   DATA     BYTE      SADDR
*SFR* 000000B9H   DATA     BYTE      SADEN
*SFR* 00000099H   DATA     BYTE      SBUF
*SFR* 00000098H   DATA     BYTE      SCON
      01001D3FH   CONST    ---       Service_1
      01001D40H   CONST    BYTE      Service_1_Len
LX51 LINKER/LOCATER V4.66.93.0                                                        04/15/2020  14:21:01  PAGE 12


*SFR* 00000098H.7 DATA     BIT       SM0
*SFR* 00000098H.6 DATA     BIT       SM1
*SFR* 00000098H.5 DATA     BIT       SM2
*SFR* 00000081H   DATA     BYTE      SP
*SFR* 000000CEH   DATA     BYTE      SPCTL
*SFR* 000000CFH   DATA     BYTE      SPDAT
*SFR* 000000CDH   DATA     BYTE      SPSTAT
*SFR* 000000D6H   DATA     BYTE      T2H
*SFR* 000000D7H   DATA     BYTE      T2L
*SFR* 000000D4H   DATA     BYTE      T3H
*SFR* 000000D5H   DATA     BYTE      T3L
*SFR* 000000D2H   DATA     BYTE      T4H
*SFR* 000000D3H   DATA     BYTE      T4L
*SFR* 000000D1H   DATA     BYTE      T4T3M
*SFR* 000000AEH   DATA     BYTE      TA
*SFR* 00000098H.3 DATA     BIT       TB8
*SFR* 00000088H   DATA     BYTE      TCON
*SFR* 00000088H.5 DATA     BIT       TF0
*SFR* 00000088H.7 DATA     BIT       TF1
*SFR* 0000008CH   DATA     BYTE      TH0
*SFR* 0000008DH   DATA     BYTE      TH1
*SFR* 000000D6H   DATA     BYTE      TH2
*SFR* 000000D4H   DATA     BYTE      TH3
*SFR* 000000D2H   DATA     BYTE      TH4
*SFR* 00000098H.1 DATA     BIT       TI
*SFR* 0000008AH   DATA     BYTE      TL0
*SFR* 0000008BH   DATA     BYTE      TL1
*SFR* 000000D7H   DATA     BYTE      TL2
*SFR* 000000D5H   DATA     BYTE      TL3
*SFR* 000000D3H   DATA     BYTE      TL4
      01001861H   CODE     ---       TM0_ISR
*SFR* 00000089H   DATA     BYTE      TMOD
*SFR* 00000088H.4 DATA     BIT       TR0
*SFR* 00000088H.6 DATA     BIT       TR1
      00000021H.2 BIT      BIT       uart1_busy
      01001C13H   CODE     ---       UART1_ISR
      0200046DH   XDATA    ---       uart2_buffer
      00000021H.3 BIT      BIT       uart2_busy
      00000008H   DATA     WORD      uart2_idx1
      0000000AH   DATA     WORD      uart2_idx2
      01001767H   CODE     ---       UART2_ISR
*SFR* 000000BBH   DATA     BYTE      VOCTRL
*SFR* 000000C1H   DATA     BYTE      WDT_CONTR
      01001C55H   CONST    ---       WiFiPassword
      01001C48H   CONST    ---       WiFiSSID
*SFR* 000000ABH   DATA     BYTE      WKTCH
*SFR* 000000AAH   DATA     BYTE      WKTCL



SYMBOL TABLE OF MODULE:  .\Objects\STC8_AlibabaCloud (MAIN)

      VALUE       REP       CLASS    TYPE      SYMBOL NAME
      ====================================================
      ---         MODULE    ---      ---       MAIN
      01000003H   PUBLIC    CODE     ---       main
      000000D8H.2 SFRSYM    DATA     BIT       CCF2
      00000092H   SFRSYM    DATA     BYTE      P1M0
      00000093H   SFRSYM    DATA     BYTE      P0M1
      000000D8H.3 SFRSYM    DATA     BIT       CCF3
      00000096H   SFRSYM    DATA     BYTE      P2M0
      00000091H   SFRSYM    DATA     BYTE      P1M1
      00000080H   SFRSYM    DATA     BYTE      P0
      000000B2H   SFRSYM    DATA     BYTE      P3M0
      00000095H   SFRSYM    DATA     BYTE      P2M1
LX51 LINKER/LOCATER V4.66.93.0                                                        04/15/2020  14:21:01  PAGE 13


      00000090H   SFRSYM    DATA     BYTE      P1
      000000B4H   SFRSYM    DATA     BYTE      P4M0
      000000B1H   SFRSYM    DATA     BYTE      P3M1
      000000A0H   SFRSYM    DATA     BYTE      P2
      000000ABH   SFRSYM    DATA     BYTE      WKTCH
      000000CAH   SFRSYM    DATA     BYTE      P5M0
      000000B3H   SFRSYM    DATA     BYTE      P4M1
      000000B0H   SFRSYM    DATA     BYTE      P3
      000000CCH   SFRSYM    DATA     BYTE      P6M0
      000000C9H   SFRSYM    DATA     BYTE      P5M1
      000000C0H   SFRSYM    DATA     BYTE      P4
      000000D0H.6 SFRSYM    DATA     BIT       AC
      000000F6H   SFRSYM    DATA     BYTE      PWMIF
      000000C6H   SFRSYM    DATA     BYTE      ISP_TRIG
      000000E2H   SFRSYM    DATA     BYTE      P7M0
      000000CBH   SFRSYM    DATA     BYTE      P6M1
      000000C8H   SFRSYM    DATA     BYTE      P5
      000000A8H.7 SFRSYM    DATA     BIT       EA
      000000E1H   SFRSYM    DATA     BYTE      P7M1
      000000E8H   SFRSYM    DATA     BYTE      P6
      000000AAH   SFRSYM    DATA     BYTE      WKTCL
      000000F8H   SFRSYM    DATA     BYTE      P7
      000000CEH   SFRSYM    DATA     BYTE      SPCTL
      000000D8H.7 SFRSYM    DATA     BIT       CF
      000000FEH   SFRSYM    DATA     BYTE      PWMCR
      000000F9H   SFRSYM    DATA     BYTE      CH
      000000A2H   SFRSYM    DATA     BYTE      P_SW1
      000000BAH   SFRSYM    DATA     BYTE      P_SW2
      000000A8H.5 SFRSYM    DATA     BIT       EADC
      000000A8H   SFRSYM    DATA     BYTE      IE
      000000E5H   SFRSYM    DATA     BYTE      DPH1
      000000E9H   SFRSYM    DATA     BYTE      CL
      000000C5H   SFRSYM    DATA     BYTE      IAP_CMD
      000000FAH   SFRSYM    DATA     BYTE      CCAP0H
      000000B0H.2 SFRSYM    DATA     BIT       LCD1602_EN
      00000090H.0 SFRSYM    DATA     BIT       LED_RED
      000000FBH   SFRSYM    DATA     BYTE      CCAP1H
      000000E4H   SFRSYM    DATA     BYTE      DPL1
      000000FCH   SFRSYM    DATA     BYTE      CCAP2H
      000000FDH   SFRSYM    DATA     BYTE      CCAP3H
      000000BDH   SFRSYM    DATA     BYTE      ADC_RES
      000000B6H   SFRSYM    DATA     BYTE      IP2H
      000000EAH   SFRSYM    DATA     BYTE      CCAP0L
      000000D8H.6 SFRSYM    DATA     BIT       CR
      000000AEH   SFRSYM    DATA     BYTE      TA
      000000F7H   SFRSYM    DATA     BYTE      PWMFDCR
      000000EBH   SFRSYM    DATA     BYTE      CCAP1L
      000000DAH   SFRSYM    DATA     BYTE      CCAPM0
      000000ECH   SFRSYM    DATA     BYTE      CCAP2L
      000000DBH   SFRSYM    DATA     BYTE      CCAPM1
      0000008FH   SFRSYM    DATA     BYTE      INTCLKO
      000000EDH   SFRSYM    DATA     BYTE      CCAP3L
      000000DCH   SFRSYM    DATA     BYTE      CCAPM2
      000000A8H.4 SFRSYM    DATA     BIT       ES
      000000DDH   SFRSYM    DATA     BYTE      CCAPM3
      000000B8H.5 SFRSYM    DATA     BIT       PADC
      000000B8H   SFRSYM    DATA     BYTE      IP
      000000DEH   SFRSYM    DATA     BYTE      ADCCFG
      000000B0H.6 SFRSYM    DATA     BIT       ESP8266_RST
      00000098H.0 SFRSYM    DATA     BIT       RI
      000000D0H.7 SFRSYM    DATA     BIT       CY
      00000098H.1 SFRSYM    DATA     BIT       TI
      000000C3H   SFRSYM    DATA     BYTE      IAP_ADDRH
      000000C0H.1 SFRSYM    DATA     BIT       DS18B20_DATA
      000000C5H   SFRSYM    DATA     BYTE      ISP_CMD
LX51 LINKER/LOCATER V4.66.93.0                                                        04/15/2020  14:21:01  PAGE 14


      000000B8H.4 SFRSYM    DATA     BIT       PS
      00000081H   SFRSYM    DATA     BYTE      SP
      000000A0H.7 SFRSYM    DATA     BIT       LCD1602_Busy
      000000B0H.5 SFRSYM    DATA     BIT       LCD1602_RS
      000000D9H   SFRSYM    DATA     BYTE      CMOD
      000000D8H   SFRSYM    DATA     BYTE      CCON
      000000C4H   SFRSYM    DATA     BYTE      IAP_ADDRL
      000000B8H.7 SFRSYM    DATA     BIT       PPCA
      000000D0H.2 SFRSYM    DATA     BIT       OV
      000000B0H.4 SFRSYM    DATA     BIT       LCD1602_RW
      000000E6H   SFRSYM    DATA     BYTE      CMPCR1
      00000090H.1 SFRSYM    DATA     BIT       LED_GREEN
      000000E7H   SFRSYM    DATA     BYTE      CMPCR2
      000000A8H.6 SFRSYM    DATA     BIT       ELVD
      00000080H.0 SFRSYM    DATA     BIT       P00
      000000BCH   SFRSYM    DATA     BYTE      ADC_CONTR
      00000099H   SFRSYM    DATA     BYTE      SBUF
      00000087H   SFRSYM    DATA     BYTE      PCON
      00000090H.0 SFRSYM    DATA     BIT       P10
      00000080H.1 SFRSYM    DATA     BIT       P01
      000000C3H   SFRSYM    DATA     BYTE      ISP_ADDRH
      000000A0H.0 SFRSYM    DATA     BIT       P20
      00000090H.1 SFRSYM    DATA     BIT       P11
      00000080H.2 SFRSYM    DATA     BIT       P02
      000000B0H.0 SFRSYM    DATA     BIT       P30
      000000A0H.1 SFRSYM    DATA     BIT       P21
      00000090H.2 SFRSYM    DATA     BIT       P12
      00000080H.3 SFRSYM    DATA     BIT       P03
      00000098H   SFRSYM    DATA     BYTE      SCON
      000000C0H.0 SFRSYM    DATA     BIT       P40
      000000B0H.1 SFRSYM    DATA     BIT       P31
      000000A0H.2 SFRSYM    DATA     BIT       P22
      00000090H.3 SFRSYM    DATA     BIT       P13
      00000080H.4 SFRSYM    DATA     BIT       P04
      00000089H   SFRSYM    DATA     BYTE      TMOD
      00000088H   SFRSYM    DATA     BYTE      TCON
      000000C8H.0 SFRSYM    DATA     BIT       P50
      000000C0H.1 SFRSYM    DATA     BIT       P41
      000000B0H.2 SFRSYM    DATA     BIT       P32
      000000A0H.3 SFRSYM    DATA     BIT       P23
      00000090H.4 SFRSYM    DATA     BIT       P14
      00000080H.5 SFRSYM    DATA     BIT       P05
      000000C4H   SFRSYM    DATA     BYTE      ISP_ADDRL
      000000E8H.0 SFRSYM    DATA     BIT       P60
      000000C8H.1 SFRSYM    DATA     BIT       P51
      000000C0H.2 SFRSYM    DATA     BIT       P42
      000000B0H.3 SFRSYM    DATA     BIT       P33
      000000A0H.4 SFRSYM    DATA     BIT       P24
      00000090H.5 SFRSYM    DATA     BIT       P15
      00000080H.6 SFRSYM    DATA     BIT       P06
      000000B8H.6 SFRSYM    DATA     BIT       PLVD
      000000F8H.0 SFRSYM    DATA     BIT       P70
      000000E8H.1 SFRSYM    DATA     BIT       P61
      000000C8H.2 SFRSYM    DATA     BIT       P52
      000000C0H.3 SFRSYM    DATA     BIT       P43
      000000B0H.4 SFRSYM    DATA     BIT       P34
      000000A0H.5 SFRSYM    DATA     BIT       P25
      00000090H.6 SFRSYM    DATA     BIT       P16
      00000080H.7 SFRSYM    DATA     BIT       P07
      000000F8H.1 SFRSYM    DATA     BIT       P71
      000000E8H.2 SFRSYM    DATA     BIT       P62
      000000C8H.3 SFRSYM    DATA     BIT       P53
      000000C0H.4 SFRSYM    DATA     BIT       P44
      000000B0H.5 SFRSYM    DATA     BIT       P35
      000000A0H.6 SFRSYM    DATA     BIT       P26
LX51 LINKER/LOCATER V4.66.93.0                                                        04/15/2020  14:21:01  PAGE 15


      00000090H.7 SFRSYM    DATA     BIT       P17
      000000F8H.2 SFRSYM    DATA     BIT       P72
      000000E8H.3 SFRSYM    DATA     BIT       P63
      000000C8H.4 SFRSYM    DATA     BIT       P54
      000000C0H.5 SFRSYM    DATA     BIT       P45
      000000B0H.6 SFRSYM    DATA     BIT       P36
      000000A0H.7 SFRSYM    DATA     BIT       P27
      000000F8H.3 SFRSYM    DATA     BIT       P73
      000000E8H.4 SFRSYM    DATA     BIT       P64
      000000C8H.5 SFRSYM    DATA     BIT       P55
      000000C0H.6 SFRSYM    DATA     BIT       P46
      000000B0H.7 SFRSYM    DATA     BIT       P37
      000000F8H.4 SFRSYM    DATA     BIT       P74
      000000E8H.5 SFRSYM    DATA     BIT       P65
      000000C8H.6 SFRSYM    DATA     BIT       P56
      000000C0H.7 SFRSYM    DATA     BIT       P47
      000000F8H.5 SFRSYM    DATA     BIT       P75
      000000E8H.6 SFRSYM    DATA     BIT       P66
      000000C8H.7 SFRSYM    DATA     BIT       P57
      000000F8H.6 SFRSYM    DATA     BIT       P76
      000000E8H.7 SFRSYM    DATA     BIT       P67
      00000088H.1 SFRSYM    DATA     BIT       IE0
      000000A1H   SFRSYM    DATA     BYTE      BUS_SPEED
      000000F8H.7 SFRSYM    DATA     BIT       P77
      00000088H.3 SFRSYM    DATA     BIT       IE1
      000000AFH   SFRSYM    DATA     BYTE      IE2
      0000008EH   SFRSYM    DATA     BYTE      AUXR
      000000F0H   SFRSYM    DATA     BYTE      B
      000000C7H   SFRSYM    DATA     BYTE      IAP_CONTR
      000000F1H   SFRSYM    DATA     BYTE      PWMCFG
      000000E0H   SFRSYM    DATA     BYTE      ACC
      000000A8H.1 SFRSYM    DATA     BIT       ET0
      00000088H.5 SFRSYM    DATA     BIT       TF0
      000000A8H.3 SFRSYM    DATA     BIT       ET1
      00000088H.7 SFRSYM    DATA     BIT       TF1
      000000B5H   SFRSYM    DATA     BYTE      IP2
      000000FFH   SFRSYM    DATA     BYTE      RSTCFG
      00000098H.2 SFRSYM    DATA     BIT       RB8
      0000008CH   SFRSYM    DATA     BYTE      TH0
      0000008DH   SFRSYM    DATA     BYTE      TH1
      00000088H.0 SFRSYM    DATA     BIT       IT0
      000000A8H.0 SFRSYM    DATA     BIT       EX0
      00000098H.3 SFRSYM    DATA     BIT       TB8
      000000D6H   SFRSYM    DATA     BYTE      TH2
      000000D6H   SFRSYM    DATA     BYTE      T2H
      00000088H.2 SFRSYM    DATA     BIT       IT1
      000000A8H.2 SFRSYM    DATA     BIT       EX1
      000000D4H   SFRSYM    DATA     BYTE      TH3
      000000D4H   SFRSYM    DATA     BYTE      T3H
      000000D0H.0 SFRSYM    DATA     BIT       P
      00000098H.7 SFRSYM    DATA     BIT       SM0
      000000D2H   SFRSYM    DATA     BYTE      TH4
      000000D2H   SFRSYM    DATA     BYTE      T4H
      0000008AH   SFRSYM    DATA     BYTE      TL0
      00000098H.6 SFRSYM    DATA     BIT       SM1
      0000008BH   SFRSYM    DATA     BYTE      TL1
      00000098H.5 SFRSYM    DATA     BIT       SM2
      000000D7H   SFRSYM    DATA     BYTE      TL2
      000000D7H   SFRSYM    DATA     BYTE      T2L
      000000D5H   SFRSYM    DATA     BYTE      TL3
      000000D5H   SFRSYM    DATA     BYTE      T3L
      000000D3H   SFRSYM    DATA     BYTE      TL4
      000000D3H   SFRSYM    DATA     BYTE      T4L
      000000B8H.1 SFRSYM    DATA     BIT       PT0
      000000C7H   SFRSYM    DATA     BYTE      ISP_CONTR
LX51 LINKER/LOCATER V4.66.93.0                                                        04/15/2020  14:21:01  PAGE 16


      000000B8H.3 SFRSYM    DATA     BIT       PT1
      000000D0H.3 SFRSYM    DATA     BIT       RS0
      000000C2H   SFRSYM    DATA     BYTE      IAP_DATA
      00000088H.4 SFRSYM    DATA     BIT       TR0
      000000D0H.4 SFRSYM    DATA     BIT       RS1
      00000088H.6 SFRSYM    DATA     BIT       TR1
      000000C1H   SFRSYM    DATA     BYTE      WDT_CONTR
      000000B8H.0 SFRSYM    DATA     BIT       PX0
      000000B8H.2 SFRSYM    DATA     BIT       PX1
      000000F2H   SFRSYM    DATA     BYTE      PCA_PWM0
      000000F3H   SFRSYM    DATA     BYTE      PCA_PWM1
      000000F4H   SFRSYM    DATA     BYTE      PCA_PWM2
      000000BBH   SFRSYM    DATA     BYTE      VOCTRL
      00000083H   SFRSYM    DATA     BYTE      DPH
      000000F5H   SFRSYM    DATA     BYTE      PCA_PWM3
      000000D1H   SFRSYM    DATA     BYTE      T4T3M
      00000080H.7 SFRSYM    DATA     BIT       LED_BLUE
      000000BEH   SFRSYM    DATA     BYTE      ADC_RESL
      00000082H   SFRSYM    DATA     BYTE      DPL
      000000CDH   SFRSYM    DATA     BYTE      SPSTAT
      000000B7H   SFRSYM    DATA     BYTE      IPH
      0000009BH   SFRSYM    DATA     BYTE      S2BUF
      000000ADH   SFRSYM    DATA     BYTE      S3BUF
      00000085H   SFRSYM    DATA     BYTE      S4BUF
      00000098H.4 SFRSYM    DATA     BIT       REN
      0000009AH   SFRSYM    DATA     BYTE      S2CON
      000000ACH   SFRSYM    DATA     BYTE      S3CON
      000000E3H   SFRSYM    DATA     BYTE      DPS
      000000C2H   SFRSYM    DATA     BYTE      ISP_DATA
      00000084H   SFRSYM    DATA     BYTE      S4CON
      000000EFH   SFRSYM    DATA     BYTE      AUXINTIF
      000000B9H   SFRSYM    DATA     BYTE      SADEN
      000000A9H   SFRSYM    DATA     BYTE      SADDR
      000000C6H   SFRSYM    DATA     BYTE      IAP_TRIG
      00000097H   SFRSYM    DATA     BYTE      AUXR2
      000000D0H.5 SFRSYM    DATA     BIT       F0
      000000D0H   SFRSYM    DATA     BYTE      PSW
      000000D8H.0 SFRSYM    DATA     BIT       CCF0
      000000D8H.1 SFRSYM    DATA     BIT       CCF1
      000000CFH   SFRSYM    DATA     BYTE      SPDAT
      00000094H   SFRSYM    DATA     BYTE      P0M0

      01000003H   BLOCK     CODE     ---       LVL=0
      01000003H   LINE      CODE     ---       #3
      01000003H   LINE      CODE     ---       #4
      01000003H   LINE      CODE     ---       #5
      01000006H   LINE      CODE     ---       #6
      01000006H   LINE      CODE     ---       #7
      01000006H   LINE      CODE     ---       #8
      01000009H   LINE      CODE     ---       #9
      ---         BLOCKEND  ---      ---       LVL=0

      ---         MODULE    ---      ---       ISR
      01001767H   PUBLIC    CODE     ---       UART2_ISR
      01001C13H   PUBLIC    CODE     ---       UART1_ISR
      01001861H   PUBLIC    CODE     ---       TM0_ISR
      000000D8H.2 SFRSYM    DATA     BIT       CCF2
      00000092H   SFRSYM    DATA     BYTE      P1M0
      00000093H   SFRSYM    DATA     BYTE      P0M1
      000000D8H.3 SFRSYM    DATA     BIT       CCF3
      00000096H   SFRSYM    DATA     BYTE      P2M0
      00000091H   SFRSYM    DATA     BYTE      P1M1
      00000080H   SFRSYM    DATA     BYTE      P0
      000000B2H   SFRSYM    DATA     BYTE      P3M0
      00000095H   SFRSYM    DATA     BYTE      P2M1
LX51 LINKER/LOCATER V4.66.93.0                                                        04/15/2020  14:21:01  PAGE 17


      00000090H   SFRSYM    DATA     BYTE      P1
      000000B4H   SFRSYM    DATA     BYTE      P4M0
      000000B1H   SFRSYM    DATA     BYTE      P3M1
      000000A0H   SFRSYM    DATA     BYTE      P2
      000000ABH   SFRSYM    DATA     BYTE      WKTCH
      000000CAH   SFRSYM    DATA     BYTE      P5M0
      000000B3H   SFRSYM    DATA     BYTE      P4M1
      000000B0H   SFRSYM    DATA     BYTE      P3
      000000CCH   SFRSYM    DATA     BYTE      P6M0
      000000C9H   SFRSYM    DATA     BYTE      P5M1
      000000C0H   SFRSYM    DATA     BYTE      P4
      000000D0H.6 SFRSYM    DATA     BIT       AC
      000000F6H   SFRSYM    DATA     BYTE      PWMIF
      000000C6H   SFRSYM    DATA     BYTE      ISP_TRIG
      000000E2H   SFRSYM    DATA     BYTE      P7M0
      000000CBH   SFRSYM    DATA     BYTE      P6M1
      000000C8H   SFRSYM    DATA     BYTE      P5
      000000A8H.7 SFRSYM    DATA     BIT       EA
      000000E1H   SFRSYM    DATA     BYTE      P7M1
      000000E8H   SFRSYM    DATA     BYTE      P6
      000000AAH   SFRSYM    DATA     BYTE      WKTCL
      000000F8H   SFRSYM    DATA     BYTE      P7
      000000CEH   SFRSYM    DATA     BYTE      SPCTL
      000000D8H.7 SFRSYM    DATA     BIT       CF
      000000FEH   SFRSYM    DATA     BYTE      PWMCR
      000000F9H   SFRSYM    DATA     BYTE      CH
      000000A2H   SFRSYM    DATA     BYTE      P_SW1
      000000BAH   SFRSYM    DATA     BYTE      P_SW2
      000000A8H.5 SFRSYM    DATA     BIT       EADC
      000000A8H   SFRSYM    DATA     BYTE      IE
      000000E5H   SFRSYM    DATA     BYTE      DPH1
      000000E9H   SFRSYM    DATA     BYTE      CL
      000000C5H   SFRSYM    DATA     BYTE      IAP_CMD
      000000FAH   SFRSYM    DATA     BYTE      CCAP0H
      000000B0H.2 SFRSYM    DATA     BIT       LCD1602_EN
      00000090H.0 SFRSYM    DATA     BIT       LED_RED
      000000FBH   SFRSYM    DATA     BYTE      CCAP1H
      000000E4H   SFRSYM    DATA     BYTE      DPL1
      000000FCH   SFRSYM    DATA     BYTE      CCAP2H
      000000FDH   SFRSYM    DATA     BYTE      CCAP3H
      000000BDH   SFRSYM    DATA     BYTE      ADC_RES
      000000B6H   SFRSYM    DATA     BYTE      IP2H
      000000EAH   SFRSYM    DATA     BYTE      CCAP0L
      000000D8H.6 SFRSYM    DATA     BIT       CR
      000000AEH   SFRSYM    DATA     BYTE      TA
      000000F7H   SFRSYM    DATA     BYTE      PWMFDCR
      000000EBH   SFRSYM    DATA     BYTE      CCAP1L
      000000DAH   SFRSYM    DATA     BYTE      CCAPM0
      000000ECH   SFRSYM    DATA     BYTE      CCAP2L
      000000DBH   SFRSYM    DATA     BYTE      CCAPM1
      0000008FH   SFRSYM    DATA     BYTE      INTCLKO
      000000EDH   SFRSYM    DATA     BYTE      CCAP3L
      000000DCH   SFRSYM    DATA     BYTE      CCAPM2
      000000A8H.4 SFRSYM    DATA     BIT       ES
      000000DDH   SFRSYM    DATA     BYTE      CCAPM3
      000000B8H.5 SFRSYM    DATA     BIT       PADC
      000000B8H   SFRSYM    DATA     BYTE      IP
      000000DEH   SFRSYM    DATA     BYTE      ADCCFG
      000000B0H.6 SFRSYM    DATA     BIT       ESP8266_RST
      00000098H.0 SFRSYM    DATA     BIT       RI
      000000D0H.7 SFRSYM    DATA     BIT       CY
      00000098H.1 SFRSYM    DATA     BIT       TI
      000000C3H   SFRSYM    DATA     BYTE      IAP_ADDRH
      000000C0H.1 SFRSYM    DATA     BIT       DS18B20_DATA
      000000C5H   SFRSYM    DATA     BYTE      ISP_CMD
LX51 LINKER/LOCATER V4.66.93.0                                                        04/15/2020  14:21:01  PAGE 18


      000000B8H.4 SFRSYM    DATA     BIT       PS
      00000081H   SFRSYM    DATA     BYTE      SP
      000000A0H.7 SFRSYM    DATA     BIT       LCD1602_Busy
      000000B0H.5 SFRSYM    DATA     BIT       LCD1602_RS
      000000D9H   SFRSYM    DATA     BYTE      CMOD
      000000D8H   SFRSYM    DATA     BYTE      CCON
      000000C4H   SFRSYM    DATA     BYTE      IAP_ADDRL
      000000B8H.7 SFRSYM    DATA     BIT       PPCA
      000000D0H.2 SFRSYM    DATA     BIT       OV
      000000B0H.4 SFRSYM    DATA     BIT       LCD1602_RW
      000000E6H   SFRSYM    DATA     BYTE      CMPCR1
      00000090H.1 SFRSYM    DATA     BIT       LED_GREEN
      000000E7H   SFRSYM    DATA     BYTE      CMPCR2
      000000A8H.6 SFRSYM    DATA     BIT       ELVD
      00000080H.0 SFRSYM    DATA     BIT       P00
      000000BCH   SFRSYM    DATA     BYTE      ADC_CONTR
      00000099H   SFRSYM    DATA     BYTE      SBUF
      00000087H   SFRSYM    DATA     BYTE      PCON
      00000090H.0 SFRSYM    DATA     BIT       P10
      00000080H.1 SFRSYM    DATA     BIT       P01
      000000C3H   SFRSYM    DATA     BYTE      ISP_ADDRH
      000000A0H.0 SFRSYM    DATA     BIT       P20
      00000090H.1 SFRSYM    DATA     BIT       P11
      00000080H.2 SFRSYM    DATA     BIT       P02
      000000B0H.0 SFRSYM    DATA     BIT       P30
      000000A0H.1 SFRSYM    DATA     BIT       P21
      00000090H.2 SFRSYM    DATA     BIT       P12
      00000080H.3 SFRSYM    DATA     BIT       P03
      00000098H   SFRSYM    DATA     BYTE      SCON
      000000C0H.0 SFRSYM    DATA     BIT       P40
      000000B0H.1 SFRSYM    DATA     BIT       P31
      000000A0H.2 SFRSYM    DATA     BIT       P22
      00000090H.3 SFRSYM    DATA     BIT       P13
      00000080H.4 SFRSYM    DATA     BIT       P04
      00000089H   SFRSYM    DATA     BYTE      TMOD
      00000088H   SFRSYM    DATA     BYTE      TCON
      000000C8H.0 SFRSYM    DATA     BIT       P50
      000000C0H.1 SFRSYM    DATA     BIT       P41
      000000B0H.2 SFRSYM    DATA     BIT       P32
      000000A0H.3 SFRSYM    DATA     BIT       P23
      00000090H.4 SFRSYM    DATA     BIT       P14
      00000080H.5 SFRSYM    DATA     BIT       P05
      000000C4H   SFRSYM    DATA     BYTE      ISP_ADDRL
      000000E8H.0 SFRSYM    DATA     BIT       P60
      000000C8H.1 SFRSYM    DATA     BIT       P51
      000000C0H.2 SFRSYM    DATA     BIT       P42
      000000B0H.3 SFRSYM    DATA     BIT       P33
      000000A0H.4 SFRSYM    DATA     BIT       P24
      00000090H.5 SFRSYM    DATA     BIT       P15
      00000080H.6 SFRSYM    DATA     BIT       P06
      000000B8H.6 SFRSYM    DATA     BIT       PLVD
      000000F8H.0 SFRSYM    DATA     BIT       P70
      000000E8H.1 SFRSYM    DATA     BIT       P61
      000000C8H.2 SFRSYM    DATA     BIT       P52
      000000C0H.3 SFRSYM    DATA     BIT       P43
      000000B0H.4 SFRSYM    DATA     BIT       P34
      000000A0H.5 SFRSYM    DATA     BIT       P25
      00000090H.6 SFRSYM    DATA     BIT       P16
      00000080H.7 SFRSYM    DATA     BIT       P07
      000000F8H.1 SFRSYM    DATA     BIT       P71
      000000E8H.2 SFRSYM    DATA     BIT       P62
      000000C8H.3 SFRSYM    DATA     BIT       P53
      000000C0H.4 SFRSYM    DATA     BIT       P44
      000000B0H.5 SFRSYM    DATA     BIT       P35
      000000A0H.6 SFRSYM    DATA     BIT       P26
LX51 LINKER/LOCATER V4.66.93.0                                                        04/15/2020  14:21:01  PAGE 19


      00000090H.7 SFRSYM    DATA     BIT       P17
      000000F8H.2 SFRSYM    DATA     BIT       P72
      000000E8H.3 SFRSYM    DATA     BIT       P63
      000000C8H.4 SFRSYM    DATA     BIT       P54
      000000C0H.5 SFRSYM    DATA     BIT       P45
      000000B0H.6 SFRSYM    DATA     BIT       P36
      000000A0H.7 SFRSYM    DATA     BIT       P27
      000000F8H.3 SFRSYM    DATA     BIT       P73
      000000E8H.4 SFRSYM    DATA     BIT       P64
      000000C8H.5 SFRSYM    DATA     BIT       P55
      000000C0H.6 SFRSYM    DATA     BIT       P46
      000000B0H.7 SFRSYM    DATA     BIT       P37
      000000F8H.4 SFRSYM    DATA     BIT       P74
      000000E8H.5 SFRSYM    DATA     BIT       P65
      000000C8H.6 SFRSYM    DATA     BIT       P56
      000000C0H.7 SFRSYM    DATA     BIT       P47
      000000F8H.5 SFRSYM    DATA     BIT       P75
      000000E8H.6 SFRSYM    DATA     BIT       P66
      000000C8H.7 SFRSYM    DATA     BIT       P57
      000000F8H.6 SFRSYM    DATA     BIT       P76
      000000E8H.7 SFRSYM    DATA     BIT       P67
      00000088H.1 SFRSYM    DATA     BIT       IE0
      000000A1H   SFRSYM    DATA     BYTE      BUS_SPEED
      000000F8H.7 SFRSYM    DATA     BIT       P77
      00000088H.3 SFRSYM    DATA     BIT       IE1
      000000AFH   SFRSYM    DATA     BYTE      IE2
      0000008EH   SFRSYM    DATA     BYTE      AUXR
      000000F0H   SFRSYM    DATA     BYTE      B
      000000C7H   SFRSYM    DATA     BYTE      IAP_CONTR
      000000F1H   SFRSYM    DATA     BYTE      PWMCFG
      000000E0H   SFRSYM    DATA     BYTE      ACC
      000000A8H.1 SFRSYM    DATA     BIT       ET0
      00000088H.5 SFRSYM    DATA     BIT       TF0
      000000A8H.3 SFRSYM    DATA     BIT       ET1
      00000088H.7 SFRSYM    DATA     BIT       TF1
      000000B5H   SFRSYM    DATA     BYTE      IP2
      000000FFH   SFRSYM    DATA     BYTE      RSTCFG
      00000098H.2 SFRSYM    DATA     BIT       RB8
      0000008CH   SFRSYM    DATA     BYTE      TH0
      0000008DH   SFRSYM    DATA     BYTE      TH1
      00000088H.0 SFRSYM    DATA     BIT       IT0
      000000A8H.0 SFRSYM    DATA     BIT       EX0
      00000098H.3 SFRSYM    DATA     BIT       TB8
      000000D6H   SFRSYM    DATA     BYTE      TH2
      000000D6H   SFRSYM    DATA     BYTE      T2H
      00000088H.2 SFRSYM    DATA     BIT       IT1
      000000A8H.2 SFRSYM    DATA     BIT       EX1
      000000D4H   SFRSYM    DATA     BYTE      TH3
      000000D4H   SFRSYM    DATA     BYTE      T3H
      000000D0H.0 SFRSYM    DATA     BIT       P
      00000098H.7 SFRSYM    DATA     BIT       SM0
      000000D2H   SFRSYM    DATA     BYTE      TH4
      000000D2H   SFRSYM    DATA     BYTE      T4H
      0000008AH   SFRSYM    DATA     BYTE      TL0
      00000098H.6 SFRSYM    DATA     BIT       SM1
      0000008BH   SFRSYM    DATA     BYTE      TL1
      00000098H.5 SFRSYM    DATA     BIT       SM2
      000000D7H   SFRSYM    DATA     BYTE      TL2
      000000D7H   SFRSYM    DATA     BYTE      T2L
      000000D5H   SFRSYM    DATA     BYTE      TL3
      000000D5H   SFRSYM    DATA     BYTE      T3L
      000000D3H   SFRSYM    DATA     BYTE      TL4
      000000D3H   SFRSYM    DATA     BYTE      T4L
      000000B8H.1 SFRSYM    DATA     BIT       PT0
      000000C7H   SFRSYM    DATA     BYTE      ISP_CONTR
LX51 LINKER/LOCATER V4.66.93.0                                                        04/15/2020  14:21:01  PAGE 20


      000000B8H.3 SFRSYM    DATA     BIT       PT1
      000000D0H.3 SFRSYM    DATA     BIT       RS0
      000000C2H   SFRSYM    DATA     BYTE      IAP_DATA
      00000088H.4 SFRSYM    DATA     BIT       TR0
      000000D0H.4 SFRSYM    DATA     BIT       RS1
      00000088H.6 SFRSYM    DATA     BIT       TR1
      000000C1H   SFRSYM    DATA     BYTE      WDT_CONTR
      000000B8H.0 SFRSYM    DATA     BIT       PX0
      000000B8H.2 SFRSYM    DATA     BIT       PX1
      000000F2H   SFRSYM    DATA     BYTE      PCA_PWM0
      000000F3H   SFRSYM    DATA     BYTE      PCA_PWM1
      000000F4H   SFRSYM    DATA     BYTE      PCA_PWM2
      000000BBH   SFRSYM    DATA     BYTE      VOCTRL
      00000083H   SFRSYM    DATA     BYTE      DPH
      000000F5H   SFRSYM    DATA     BYTE      PCA_PWM3
      000000D1H   SFRSYM    DATA     BYTE      T4T3M
      00000080H.7 SFRSYM    DATA     BIT       LED_BLUE
      000000BEH   SFRSYM    DATA     BYTE      ADC_RESL
      00000082H   SFRSYM    DATA     BYTE      DPL
      000000CDH   SFRSYM    DATA     BYTE      SPSTAT
      000000B7H   SFRSYM    DATA     BYTE      IPH
      0000009BH   SFRSYM    DATA     BYTE      S2BUF
      000000ADH   SFRSYM    DATA     BYTE      S3BUF
      00000085H   SFRSYM    DATA     BYTE      S4BUF
      00000098H.4 SFRSYM    DATA     BIT       REN
      0000009AH   SFRSYM    DATA     BYTE      S2CON
      000000ACH   SFRSYM    DATA     BYTE      S3CON
      000000E3H   SFRSYM    DATA     BYTE      DPS
      000000C2H   SFRSYM    DATA     BYTE      ISP_DATA
      00000084H   SFRSYM    DATA     BYTE      S4CON
      000000EFH   SFRSYM    DATA     BYTE      AUXINTIF
      000000B9H   SFRSYM    DATA     BYTE      SADEN
      000000A9H   SFRSYM    DATA     BYTE      SADDR
      000000C6H   SFRSYM    DATA     BYTE      IAP_TRIG
      00000097H   SFRSYM    DATA     BYTE      AUXR2
      000000D0H.5 SFRSYM    DATA     BIT       F0
      000000D0H   SFRSYM    DATA     BYTE      PSW
      000000D8H.0 SFRSYM    DATA     BIT       CCF0
      000000D8H.1 SFRSYM    DATA     BIT       CCF1
      000000CFH   SFRSYM    DATA     BYTE      SPDAT
      00000094H   SFRSYM    DATA     BYTE      P0M0

      01001BD9H   BLOCK     CODE     ---       LVL=0
      ---         BLOCKEND  ---      ---       LVL=0

      01001861H   BLOCK     CODE     ---       LVL=0
      01001861H   LINE      CODE     ---       #12
      0100187FH   LINE      CODE     ---       #14
      0100189EH   LINE      CODE     ---       #15
      ---         BLOCKEND  ---      ---       LVL=0

      01001C13H   BLOCK     CODE     ---       LVL=0
      01001C13H   LINE      CODE     ---       #28
      01001C13H   LINE      CODE     ---       #30
      01001C16H   LINE      CODE     ---       #31
      01001C1AH   LINE      CODE     ---       #32
      ---         BLOCKEND  ---      ---       LVL=0

      01001767H   BLOCK     CODE     ---       LVL=0
      01001782H   BLOCK     CODE     NEAR LAB  LVL=1
      00000020H.0 SYMBOL    BIT      BIT       isFull
      ---         BLOCKEND  ---      ---       LVL=1
      01001767H   LINE      CODE     ---       #50
      0100177DH   LINE      CODE     ---       #52
      01001782H   LINE      CODE     ---       #53
LX51 LINKER/LOCATER V4.66.93.0                                                        04/15/2020  14:21:01  PAGE 21


      01001782H   LINE      CODE     ---       #54
      01001784H   LINE      CODE     ---       #55
      01001787H   LINE      CODE     ---       #56
      01001790H   LINE      CODE     ---       #57
      01001790H   LINE      CODE     ---       #58
      01001796H   LINE      CODE     ---       #59
      01001798H   LINE      CODE     ---       #60
      0100179AH   LINE      CODE     ---       #61
      010017A2H   LINE      CODE     ---       #62
      010017A6H   LINE      CODE     ---       #64
      010017A8H   LINE      CODE     ---       #65
      010017ABH   LINE      CODE     ---       #66
      010017ABH   LINE      CODE     ---       #67
      010017AFH   LINE      CODE     ---       #69
      010017AFH   LINE      CODE     ---       #70
      010017BEH   LINE      CODE     ---       #71
      010017C7H   LINE      CODE     ---       #72
      010017CFH   LINE      CODE     ---       #74
      010017D7H   LINE      CODE     ---       #75
      010017D9H   LINE      CODE     ---       #77
      010017DEH   LINE      CODE     ---       #78
      ---         BLOCKEND  ---      ---       LVL=0

      ---         MODULE    ---      ---       UART
      0200046DH   PUBLIC    XDATA    ---       uart2_buffer
      0000000AH   PUBLIC    DATA     WORD      uart2_idx2
      00000008H   PUBLIC    DATA     WORD      uart2_idx1
      00000021H.3 PUBLIC    BIT      BIT       uart2_busy
      00000021H.2 PUBLIC    BIT      BIT       uart1_busy
      01001ADCH   PUBLIC    CODE     ---       _uart2_sendstr8
      01001BC3H   PUBLIC    CODE     ---       _uart2_send8
      000000D8H.2 SFRSYM    DATA     BIT       CCF2
      00000092H   SFRSYM    DATA     BYTE      P1M0
      00000093H   SFRSYM    DATA     BYTE      P0M1
      000000D8H.3 SFRSYM    DATA     BIT       CCF3
      00000096H   SFRSYM    DATA     BYTE      P2M0
      00000091H   SFRSYM    DATA     BYTE      P1M1
      00000080H   SFRSYM    DATA     BYTE      P0
      000000B2H   SFRSYM    DATA     BYTE      P3M0
      00000095H   SFRSYM    DATA     BYTE      P2M1
      00000090H   SFRSYM    DATA     BYTE      P1
      000000B4H   SFRSYM    DATA     BYTE      P4M0
      000000B1H   SFRSYM    DATA     BYTE      P3M1
      000000A0H   SFRSYM    DATA     BYTE      P2
      000000ABH   SFRSYM    DATA     BYTE      WKTCH
      000000CAH   SFRSYM    DATA     BYTE      P5M0
      000000B3H   SFRSYM    DATA     BYTE      P4M1
      000000B0H   SFRSYM    DATA     BYTE      P3
      000000CCH   SFRSYM    DATA     BYTE      P6M0
      000000C9H   SFRSYM    DATA     BYTE      P5M1
      000000C0H   SFRSYM    DATA     BYTE      P4
      000000D0H.6 SFRSYM    DATA     BIT       AC
      000000F6H   SFRSYM    DATA     BYTE      PWMIF
      000000C6H   SFRSYM    DATA     BYTE      ISP_TRIG
      000000E2H   SFRSYM    DATA     BYTE      P7M0
      000000CBH   SFRSYM    DATA     BYTE      P6M1
      000000C8H   SFRSYM    DATA     BYTE      P5
      000000A8H.7 SFRSYM    DATA     BIT       EA
      000000E1H   SFRSYM    DATA     BYTE      P7M1
      000000E8H   SFRSYM    DATA     BYTE      P6
      000000AAH   SFRSYM    DATA     BYTE      WKTCL
      000000F8H   SFRSYM    DATA     BYTE      P7
      000000CEH   SFRSYM    DATA     BYTE      SPCTL
      000000D8H.7 SFRSYM    DATA     BIT       CF
      000000FEH   SFRSYM    DATA     BYTE      PWMCR
LX51 LINKER/LOCATER V4.66.93.0                                                        04/15/2020  14:21:01  PAGE 22


      000000F9H   SFRSYM    DATA     BYTE      CH
      000000A2H   SFRSYM    DATA     BYTE      P_SW1
      000000BAH   SFRSYM    DATA     BYTE      P_SW2
      000000A8H.5 SFRSYM    DATA     BIT       EADC
      000000A8H   SFRSYM    DATA     BYTE      IE
      000000E5H   SFRSYM    DATA     BYTE      DPH1
      000000E9H   SFRSYM    DATA     BYTE      CL
      000000C5H   SFRSYM    DATA     BYTE      IAP_CMD
      000000FAH   SFRSYM    DATA     BYTE      CCAP0H
      000000B0H.2 SFRSYM    DATA     BIT       LCD1602_EN
      00000090H.0 SFRSYM    DATA     BIT       LED_RED
      000000FBH   SFRSYM    DATA     BYTE      CCAP1H
      000000E4H   SFRSYM    DATA     BYTE      DPL1
      000000FCH   SFRSYM    DATA     BYTE      CCAP2H
      000000FDH   SFRSYM    DATA     BYTE      CCAP3H
      000000BDH   SFRSYM    DATA     BYTE      ADC_RES
      000000B6H   SFRSYM    DATA     BYTE      IP2H
      000000EAH   SFRSYM    DATA     BYTE      CCAP0L
      000000D8H.6 SFRSYM    DATA     BIT       CR
      000000AEH   SFRSYM    DATA     BYTE      TA
      000000F7H   SFRSYM    DATA     BYTE      PWMFDCR
      000000EBH   SFRSYM    DATA     BYTE      CCAP1L
      000000DAH   SFRSYM    DATA     BYTE      CCAPM0
      000000ECH   SFRSYM    DATA     BYTE      CCAP2L
      000000DBH   SFRSYM    DATA     BYTE      CCAPM1
      0000008FH   SFRSYM    DATA     BYTE      INTCLKO
      000000EDH   SFRSYM    DATA     BYTE      CCAP3L
      000000DCH   SFRSYM    DATA     BYTE      CCAPM2
      000000A8H.4 SFRSYM    DATA     BIT       ES
      000000DDH   SFRSYM    DATA     BYTE      CCAPM3
      000000B8H.5 SFRSYM    DATA     BIT       PADC
      000000B8H   SFRSYM    DATA     BYTE      IP
      000000DEH   SFRSYM    DATA     BYTE      ADCCFG
      000000B0H.6 SFRSYM    DATA     BIT       ESP8266_RST
      00000098H.0 SFRSYM    DATA     BIT       RI
      000000D0H.7 SFRSYM    DATA     BIT       CY
      00000098H.1 SFRSYM    DATA     BIT       TI
      000000C3H   SFRSYM    DATA     BYTE      IAP_ADDRH
      000000C0H.1 SFRSYM    DATA     BIT       DS18B20_DATA
      000000C5H   SFRSYM    DATA     BYTE      ISP_CMD
      000000B8H.4 SFRSYM    DATA     BIT       PS
      00000081H   SFRSYM    DATA     BYTE      SP
      000000A0H.7 SFRSYM    DATA     BIT       LCD1602_Busy
      000000B0H.5 SFRSYM    DATA     BIT       LCD1602_RS
      000000D9H   SFRSYM    DATA     BYTE      CMOD
      000000D8H   SFRSYM    DATA     BYTE      CCON
      000000C4H   SFRSYM    DATA     BYTE      IAP_ADDRL
      000000B8H.7 SFRSYM    DATA     BIT       PPCA
      000000D0H.2 SFRSYM    DATA     BIT       OV
      000000B0H.4 SFRSYM    DATA     BIT       LCD1602_RW
      000000E6H   SFRSYM    DATA     BYTE      CMPCR1
      00000090H.1 SFRSYM    DATA     BIT       LED_GREEN
      000000E7H   SFRSYM    DATA     BYTE      CMPCR2
      000000A8H.6 SFRSYM    DATA     BIT       ELVD
      00000080H.0 SFRSYM    DATA     BIT       P00
      000000BCH   SFRSYM    DATA     BYTE      ADC_CONTR
      00000099H   SFRSYM    DATA     BYTE      SBUF
      00000087H   SFRSYM    DATA     BYTE      PCON
      00000090H.0 SFRSYM    DATA     BIT       P10
      00000080H.1 SFRSYM    DATA     BIT       P01
      000000C3H   SFRSYM    DATA     BYTE      ISP_ADDRH
      000000A0H.0 SFRSYM    DATA     BIT       P20
      00000090H.1 SFRSYM    DATA     BIT       P11
      00000080H.2 SFRSYM    DATA     BIT       P02
      000000B0H.0 SFRSYM    DATA     BIT       P30
LX51 LINKER/LOCATER V4.66.93.0                                                        04/15/2020  14:21:01  PAGE 23


      000000A0H.1 SFRSYM    DATA     BIT       P21
      00000090H.2 SFRSYM    DATA     BIT       P12
      00000080H.3 SFRSYM    DATA     BIT       P03
      00000098H   SFRSYM    DATA     BYTE      SCON
      000000C0H.0 SFRSYM    DATA     BIT       P40
      000000B0H.1 SFRSYM    DATA     BIT       P31
      000000A0H.2 SFRSYM    DATA     BIT       P22
      00000090H.3 SFRSYM    DATA     BIT       P13
      00000080H.4 SFRSYM    DATA     BIT       P04
      00000089H   SFRSYM    DATA     BYTE      TMOD
      00000088H   SFRSYM    DATA     BYTE      TCON
      000000C8H.0 SFRSYM    DATA     BIT       P50
      000000C0H.1 SFRSYM    DATA     BIT       P41
      000000B0H.2 SFRSYM    DATA     BIT       P32
      000000A0H.3 SFRSYM    DATA     BIT       P23
      00000090H.4 SFRSYM    DATA     BIT       P14
      00000080H.5 SFRSYM    DATA     BIT       P05
      000000C4H   SFRSYM    DATA     BYTE      ISP_ADDRL
      000000E8H.0 SFRSYM    DATA     BIT       P60
      000000C8H.1 SFRSYM    DATA     BIT       P51
      000000C0H.2 SFRSYM    DATA     BIT       P42
      000000B0H.3 SFRSYM    DATA     BIT       P33
      000000A0H.4 SFRSYM    DATA     BIT       P24
      00000090H.5 SFRSYM    DATA     BIT       P15
      00000080H.6 SFRSYM    DATA     BIT       P06
      000000B8H.6 SFRSYM    DATA     BIT       PLVD
      000000F8H.0 SFRSYM    DATA     BIT       P70
      000000E8H.1 SFRSYM    DATA     BIT       P61
      000000C8H.2 SFRSYM    DATA     BIT       P52
      000000C0H.3 SFRSYM    DATA     BIT       P43
      000000B0H.4 SFRSYM    DATA     BIT       P34
      000000A0H.5 SFRSYM    DATA     BIT       P25
      00000090H.6 SFRSYM    DATA     BIT       P16
      00000080H.7 SFRSYM    DATA     BIT       P07
      000000F8H.1 SFRSYM    DATA     BIT       P71
      000000E8H.2 SFRSYM    DATA     BIT       P62
      000000C8H.3 SFRSYM    DATA     BIT       P53
      000000C0H.4 SFRSYM    DATA     BIT       P44
      000000B0H.5 SFRSYM    DATA     BIT       P35
      000000A0H.6 SFRSYM    DATA     BIT       P26
      00000090H.7 SFRSYM    DATA     BIT       P17
      000000F8H.2 SFRSYM    DATA     BIT       P72
      000000E8H.3 SFRSYM    DATA     BIT       P63
      000000C8H.4 SFRSYM    DATA     BIT       P54
      000000C0H.5 SFRSYM    DATA     BIT       P45
      000000B0H.6 SFRSYM    DATA     BIT       P36
      000000A0H.7 SFRSYM    DATA     BIT       P27
      000000F8H.3 SFRSYM    DATA     BIT       P73
      000000E8H.4 SFRSYM    DATA     BIT       P64
      000000C8H.5 SFRSYM    DATA     BIT       P55
      000000C0H.6 SFRSYM    DATA     BIT       P46
      000000B0H.7 SFRSYM    DATA     BIT       P37
      000000F8H.4 SFRSYM    DATA     BIT       P74
      000000E8H.5 SFRSYM    DATA     BIT       P65
      000000C8H.6 SFRSYM    DATA     BIT       P56
      000000C0H.7 SFRSYM    DATA     BIT       P47
      000000F8H.5 SFRSYM    DATA     BIT       P75
      000000E8H.6 SFRSYM    DATA     BIT       P66
      000000C8H.7 SFRSYM    DATA     BIT       P57
      000000F8H.6 SFRSYM    DATA     BIT       P76
      000000E8H.7 SFRSYM    DATA     BIT       P67
      00000088H.1 SFRSYM    DATA     BIT       IE0
      000000A1H   SFRSYM    DATA     BYTE      BUS_SPEED
      000000F8H.7 SFRSYM    DATA     BIT       P77
      00000088H.3 SFRSYM    DATA     BIT       IE1
LX51 LINKER/LOCATER V4.66.93.0                                                        04/15/2020  14:21:01  PAGE 24


      000000AFH   SFRSYM    DATA     BYTE      IE2
      0000008EH   SFRSYM    DATA     BYTE      AUXR
      000000F0H   SFRSYM    DATA     BYTE      B
      000000C7H   SFRSYM    DATA     BYTE      IAP_CONTR
      000000F1H   SFRSYM    DATA     BYTE      PWMCFG
      000000E0H   SFRSYM    DATA     BYTE      ACC
      000000A8H.1 SFRSYM    DATA     BIT       ET0
      00000088H.5 SFRSYM    DATA     BIT       TF0
      000000A8H.3 SFRSYM    DATA     BIT       ET1
      00000088H.7 SFRSYM    DATA     BIT       TF1
      000000B5H   SFRSYM    DATA     BYTE      IP2
      000000FFH   SFRSYM    DATA     BYTE      RSTCFG
      00000098H.2 SFRSYM    DATA     BIT       RB8
      0000008CH   SFRSYM    DATA     BYTE      TH0
      0000008DH   SFRSYM    DATA     BYTE      TH1
      00000088H.0 SFRSYM    DATA     BIT       IT0
      000000A8H.0 SFRSYM    DATA     BIT       EX0
      00000098H.3 SFRSYM    DATA     BIT       TB8
      000000D6H   SFRSYM    DATA     BYTE      TH2
      000000D6H   SFRSYM    DATA     BYTE      T2H
      00000088H.2 SFRSYM    DATA     BIT       IT1
      000000A8H.2 SFRSYM    DATA     BIT       EX1
      000000D4H   SFRSYM    DATA     BYTE      TH3
      000000D4H   SFRSYM    DATA     BYTE      T3H
      000000D0H.0 SFRSYM    DATA     BIT       P
      00000098H.7 SFRSYM    DATA     BIT       SM0
      000000D2H   SFRSYM    DATA     BYTE      TH4
      000000D2H   SFRSYM    DATA     BYTE      T4H
      0000008AH   SFRSYM    DATA     BYTE      TL0
      00000098H.6 SFRSYM    DATA     BIT       SM1
      0000008BH   SFRSYM    DATA     BYTE      TL1
      00000098H.5 SFRSYM    DATA     BIT       SM2
      000000D7H   SFRSYM    DATA     BYTE      TL2
      000000D7H   SFRSYM    DATA     BYTE      T2L
      000000D5H   SFRSYM    DATA     BYTE      TL3
      000000D5H   SFRSYM    DATA     BYTE      T3L
      000000D3H   SFRSYM    DATA     BYTE      TL4
      000000D3H   SFRSYM    DATA     BYTE      T4L
      000000B8H.1 SFRSYM    DATA     BIT       PT0
      000000C7H   SFRSYM    DATA     BYTE      ISP_CONTR
      000000B8H.3 SFRSYM    DATA     BIT       PT1
      000000D0H.3 SFRSYM    DATA     BIT       RS0
      000000C2H   SFRSYM    DATA     BYTE      IAP_DATA
      00000088H.4 SFRSYM    DATA     BIT       TR0
      000000D0H.4 SFRSYM    DATA     BIT       RS1
      00000088H.6 SFRSYM    DATA     BIT       TR1
      000000C1H   SFRSYM    DATA     BYTE      WDT_CONTR
      000000B8H.0 SFRSYM    DATA     BIT       PX0
      000000B8H.2 SFRSYM    DATA     BIT       PX1
      000000F2H   SFRSYM    DATA     BYTE      PCA_PWM0
      000000F3H   SFRSYM    DATA     BYTE      PCA_PWM1
      000000F4H   SFRSYM    DATA     BYTE      PCA_PWM2
      000000BBH   SFRSYM    DATA     BYTE      VOCTRL
      00000083H   SFRSYM    DATA     BYTE      DPH
      000000F5H   SFRSYM    DATA     BYTE      PCA_PWM3
      000000D1H   SFRSYM    DATA     BYTE      T4T3M
      00000080H.7 SFRSYM    DATA     BIT       LED_BLUE
      000000BEH   SFRSYM    DATA     BYTE      ADC_RESL
      00000082H   SFRSYM    DATA     BYTE      DPL
      000000CDH   SFRSYM    DATA     BYTE      SPSTAT
      000000B7H   SFRSYM    DATA     BYTE      IPH
      0000009BH   SFRSYM    DATA     BYTE      S2BUF
      000000ADH   SFRSYM    DATA     BYTE      S3BUF
      00000085H   SFRSYM    DATA     BYTE      S4BUF
      00000098H.4 SFRSYM    DATA     BIT       REN
LX51 LINKER/LOCATER V4.66.93.0                                                        04/15/2020  14:21:01  PAGE 25


      0000009AH   SFRSYM    DATA     BYTE      S2CON
      000000ACH   SFRSYM    DATA     BYTE      S3CON
      000000E3H   SFRSYM    DATA     BYTE      DPS
      000000C2H   SFRSYM    DATA     BYTE      ISP_DATA
      00000084H   SFRSYM    DATA     BYTE      S4CON
      000000EFH   SFRSYM    DATA     BYTE      AUXINTIF
      000000B9H   SFRSYM    DATA     BYTE      SADEN
      000000A9H   SFRSYM    DATA     BYTE      SADDR
      000000C6H   SFRSYM    DATA     BYTE      IAP_TRIG
      00000097H   SFRSYM    DATA     BYTE      AUXR2
      000000D0H.5 SFRSYM    DATA     BIT       F0
      000000D0H   SFRSYM    DATA     BYTE      PSW
      000000D8H.0 SFRSYM    DATA     BIT       CCF0
      000000D8H.1 SFRSYM    DATA     BIT       CCF1
      000000CFH   SFRSYM    DATA     BYTE      SPDAT
      00000094H   SFRSYM    DATA     BYTE      P0M0

      01001BC3H   BLOCK     CODE     ---       LVL=0
      00000007H   SYMBOL    DATA     BYTE      dat
      01001BC3H   LINE      CODE     ---       #27
      01001BC3H   LINE      CODE     ---       #28
      01001BC3H   LINE      CODE     ---       #29
      01001BC6H   LINE      CODE     ---       #30
      01001BC6H   LINE      CODE     ---       #31
      01001BC8H   LINE      CODE     ---       #32
      01001BCAH   LINE      CODE     ---       #33
      01001BCDH   LINE      CODE     ---       #34
      01001BCDH   LINE      CODE     ---       #35
      ---         BLOCKEND  ---      ---       LVL=0

      01001ADCH   BLOCK     CODE     ---       LVL=0
      00000025H   SYMBOL    DATA     ---       p
      01001ADCH   LINE      CODE     ---       #36
      01001AE2H   LINE      CODE     ---       #37
      01001AE2H   LINE      CODE     ---       #38
      01001AEDH   LINE      CODE     ---       #39
      01001B00H   LINE      CODE     ---       #40
      ---         BLOCKEND  ---      ---       LVL=0

      ---         MODULE    ---      ---       INIT
      01000026H   PUBLIC    CODE     ---       Init_interrupt
      01001904H   PUBLIC    CODE     ---       _Init_wkt
      01001A27H   PUBLIC    CODE     ---       Init_uart2
      01001B7CH   PUBLIC    CODE     ---       Init_timer0
      01001B26H   PUBLIC    CODE     ---       Init_io
      01001BE3H   PUBLIC    CODE     ---       Init_rst
      01001B01H   PUBLIC    CODE     ---       Init
      000000D8H.2 SFRSYM    DATA     BIT       CCF2
      00000092H   SFRSYM    DATA     BYTE      P1M0
      00000093H   SFRSYM    DATA     BYTE      P0M1
      000000D8H.3 SFRSYM    DATA     BIT       CCF3
      00000096H   SFRSYM    DATA     BYTE      P2M0
      00000091H   SFRSYM    DATA     BYTE      P1M1
      00000080H   SFRSYM    DATA     BYTE      P0
      000000B2H   SFRSYM    DATA     BYTE      P3M0
      00000095H   SFRSYM    DATA     BYTE      P2M1
      00000090H   SFRSYM    DATA     BYTE      P1
      000000B4H   SFRSYM    DATA     BYTE      P4M0
      000000B1H   SFRSYM    DATA     BYTE      P3M1
      000000A0H   SFRSYM    DATA     BYTE      P2
      000000ABH   SFRSYM    DATA     BYTE      WKTCH
      000000CAH   SFRSYM    DATA     BYTE      P5M0
      000000B3H   SFRSYM    DATA     BYTE      P4M1
      000000B0H   SFRSYM    DATA     BYTE      P3
      000000CCH   SFRSYM    DATA     BYTE      P6M0
LX51 LINKER/LOCATER V4.66.93.0                                                        04/15/2020  14:21:01  PAGE 26


      000000C9H   SFRSYM    DATA     BYTE      P5M1
      000000C0H   SFRSYM    DATA     BYTE      P4
      000000D0H.6 SFRSYM    DATA     BIT       AC
      000000F6H   SFRSYM    DATA     BYTE      PWMIF
      000000C6H   SFRSYM    DATA     BYTE      ISP_TRIG
      000000E2H   SFRSYM    DATA     BYTE      P7M0
      000000CBH   SFRSYM    DATA     BYTE      P6M1
      000000C8H   SFRSYM    DATA     BYTE      P5
      000000A8H.7 SFRSYM    DATA     BIT       EA
      000000E1H   SFRSYM    DATA     BYTE      P7M1
      000000E8H   SFRSYM    DATA     BYTE      P6
      000000AAH   SFRSYM    DATA     BYTE      WKTCL
      000000F8H   SFRSYM    DATA     BYTE      P7
      000000CEH   SFRSYM    DATA     BYTE      SPCTL
      000000D8H.7 SFRSYM    DATA     BIT       CF
      000000FEH   SFRSYM    DATA     BYTE      PWMCR
      000000F9H   SFRSYM    DATA     BYTE      CH
      000000A2H   SFRSYM    DATA     BYTE      P_SW1
      000000BAH   SFRSYM    DATA     BYTE      P_SW2
      000000A8H.5 SFRSYM    DATA     BIT       EADC
      000000A8H   SFRSYM    DATA     BYTE      IE
      000000E5H   SFRSYM    DATA     BYTE      DPH1
      000000E9H   SFRSYM    DATA     BYTE      CL
      000000C5H   SFRSYM    DATA     BYTE      IAP_CMD
      000000FAH   SFRSYM    DATA     BYTE      CCAP0H
      000000B0H.2 SFRSYM    DATA     BIT       LCD1602_EN
      00000090H.0 SFRSYM    DATA     BIT       LED_RED
      000000FBH   SFRSYM    DATA     BYTE      CCAP1H
      000000E4H   SFRSYM    DATA     BYTE      DPL1
      000000FCH   SFRSYM    DATA     BYTE      CCAP2H
      000000FDH   SFRSYM    DATA     BYTE      CCAP3H
      000000BDH   SFRSYM    DATA     BYTE      ADC_RES
      000000B6H   SFRSYM    DATA     BYTE      IP2H
      000000EAH   SFRSYM    DATA     BYTE      CCAP0L
      000000D8H.6 SFRSYM    DATA     BIT       CR
      000000AEH   SFRSYM    DATA     BYTE      TA
      000000F7H   SFRSYM    DATA     BYTE      PWMFDCR
      000000EBH   SFRSYM    DATA     BYTE      CCAP1L
      000000DAH   SFRSYM    DATA     BYTE      CCAPM0
      000000ECH   SFRSYM    DATA     BYTE      CCAP2L
      000000DBH   SFRSYM    DATA     BYTE      CCAPM1
      0000008FH   SFRSYM    DATA     BYTE      INTCLKO
      000000EDH   SFRSYM    DATA     BYTE      CCAP3L
      000000DCH   SFRSYM    DATA     BYTE      CCAPM2
      000000A8H.4 SFRSYM    DATA     BIT       ES
      000000DDH   SFRSYM    DATA     BYTE      CCAPM3
      000000B8H.5 SFRSYM    DATA     BIT       PADC
      000000B8H   SFRSYM    DATA     BYTE      IP
      000000DEH   SFRSYM    DATA     BYTE      ADCCFG
      000000B0H.6 SFRSYM    DATA     BIT       ESP8266_RST
      00000098H.0 SFRSYM    DATA     BIT       RI
      000000D0H.7 SFRSYM    DATA     BIT       CY
      00000098H.1 SFRSYM    DATA     BIT       TI
      000000C3H   SFRSYM    DATA     BYTE      IAP_ADDRH
      000000C0H.1 SFRSYM    DATA     BIT       DS18B20_DATA
      000000C5H   SFRSYM    DATA     BYTE      ISP_CMD
      000000B8H.4 SFRSYM    DATA     BIT       PS
      00000081H   SFRSYM    DATA     BYTE      SP
      000000A0H.7 SFRSYM    DATA     BIT       LCD1602_Busy
      000000B0H.5 SFRSYM    DATA     BIT       LCD1602_RS
      000000D9H   SFRSYM    DATA     BYTE      CMOD
      000000D8H   SFRSYM    DATA     BYTE      CCON
      000000C4H   SFRSYM    DATA     BYTE      IAP_ADDRL
      000000B8H.7 SFRSYM    DATA     BIT       PPCA
      000000D0H.2 SFRSYM    DATA     BIT       OV
LX51 LINKER/LOCATER V4.66.93.0                                                        04/15/2020  14:21:01  PAGE 27


      000000B0H.4 SFRSYM    DATA     BIT       LCD1602_RW
      000000E6H   SFRSYM    DATA     BYTE      CMPCR1
      00000090H.1 SFRSYM    DATA     BIT       LED_GREEN
      000000E7H   SFRSYM    DATA     BYTE      CMPCR2
      000000A8H.6 SFRSYM    DATA     BIT       ELVD
      00000080H.0 SFRSYM    DATA     BIT       P00
      000000BCH   SFRSYM    DATA     BYTE      ADC_CONTR
      00000099H   SFRSYM    DATA     BYTE      SBUF
      00000087H   SFRSYM    DATA     BYTE      PCON
      00000090H.0 SFRSYM    DATA     BIT       P10
      00000080H.1 SFRSYM    DATA     BIT       P01
      000000C3H   SFRSYM    DATA     BYTE      ISP_ADDRH
      000000A0H.0 SFRSYM    DATA     BIT       P20
      00000090H.1 SFRSYM    DATA     BIT       P11
      00000080H.2 SFRSYM    DATA     BIT       P02
      000000B0H.0 SFRSYM    DATA     BIT       P30
      000000A0H.1 SFRSYM    DATA     BIT       P21
      00000090H.2 SFRSYM    DATA     BIT       P12
      00000080H.3 SFRSYM    DATA     BIT       P03
      00000098H   SFRSYM    DATA     BYTE      SCON
      000000C0H.0 SFRSYM    DATA     BIT       P40
      000000B0H.1 SFRSYM    DATA     BIT       P31
      000000A0H.2 SFRSYM    DATA     BIT       P22
      00000090H.3 SFRSYM    DATA     BIT       P13
      00000080H.4 SFRSYM    DATA     BIT       P04
      00000089H   SFRSYM    DATA     BYTE      TMOD
      00000088H   SFRSYM    DATA     BYTE      TCON
      000000C8H.0 SFRSYM    DATA     BIT       P50
      000000C0H.1 SFRSYM    DATA     BIT       P41
      000000B0H.2 SFRSYM    DATA     BIT       P32
      000000A0H.3 SFRSYM    DATA     BIT       P23
      00000090H.4 SFRSYM    DATA     BIT       P14
      00000080H.5 SFRSYM    DATA     BIT       P05
      000000C4H   SFRSYM    DATA     BYTE      ISP_ADDRL
      000000E8H.0 SFRSYM    DATA     BIT       P60
      000000C8H.1 SFRSYM    DATA     BIT       P51
      000000C0H.2 SFRSYM    DATA     BIT       P42
      000000B0H.3 SFRSYM    DATA     BIT       P33
      000000A0H.4 SFRSYM    DATA     BIT       P24
      00000090H.5 SFRSYM    DATA     BIT       P15
      00000080H.6 SFRSYM    DATA     BIT       P06
      000000B8H.6 SFRSYM    DATA     BIT       PLVD
      000000F8H.0 SFRSYM    DATA     BIT       P70
      000000E8H.1 SFRSYM    DATA     BIT       P61
      000000C8H.2 SFRSYM    DATA     BIT       P52
      000000C0H.3 SFRSYM    DATA     BIT       P43
      000000B0H.4 SFRSYM    DATA     BIT       P34
      000000A0H.5 SFRSYM    DATA     BIT       P25
      00000090H.6 SFRSYM    DATA     BIT       P16
      00000080H.7 SFRSYM    DATA     BIT       P07
      000000F8H.1 SFRSYM    DATA     BIT       P71
      000000E8H.2 SFRSYM    DATA     BIT       P62
      000000C8H.3 SFRSYM    DATA     BIT       P53
      000000C0H.4 SFRSYM    DATA     BIT       P44
      000000B0H.5 SFRSYM    DATA     BIT       P35
      000000A0H.6 SFRSYM    DATA     BIT       P26
      00000090H.7 SFRSYM    DATA     BIT       P17
      000000F8H.2 SFRSYM    DATA     BIT       P72
      000000E8H.3 SFRSYM    DATA     BIT       P63
      000000C8H.4 SFRSYM    DATA     BIT       P54
      000000C0H.5 SFRSYM    DATA     BIT       P45
      000000B0H.6 SFRSYM    DATA     BIT       P36
      000000A0H.7 SFRSYM    DATA     BIT       P27
      000000F8H.3 SFRSYM    DATA     BIT       P73
      000000E8H.4 SFRSYM    DATA     BIT       P64
LX51 LINKER/LOCATER V4.66.93.0                                                        04/15/2020  14:21:01  PAGE 28


      000000C8H.5 SFRSYM    DATA     BIT       P55
      000000C0H.6 SFRSYM    DATA     BIT       P46
      000000B0H.7 SFRSYM    DATA     BIT       P37
      000000F8H.4 SFRSYM    DATA     BIT       P74
      000000E8H.5 SFRSYM    DATA     BIT       P65
      000000C8H.6 SFRSYM    DATA     BIT       P56
      000000C0H.7 SFRSYM    DATA     BIT       P47
      000000F8H.5 SFRSYM    DATA     BIT       P75
      000000E8H.6 SFRSYM    DATA     BIT       P66
      000000C8H.7 SFRSYM    DATA     BIT       P57
      000000F8H.6 SFRSYM    DATA     BIT       P76
      000000E8H.7 SFRSYM    DATA     BIT       P67
      00000088H.1 SFRSYM    DATA     BIT       IE0
      000000A1H   SFRSYM    DATA     BYTE      BUS_SPEED
      000000F8H.7 SFRSYM    DATA     BIT       P77
      00000088H.3 SFRSYM    DATA     BIT       IE1
      000000AFH   SFRSYM    DATA     BYTE      IE2
      0000008EH   SFRSYM    DATA     BYTE      AUXR
      000000F0H   SFRSYM    DATA     BYTE      B
      000000C7H   SFRSYM    DATA     BYTE      IAP_CONTR
      000000F1H   SFRSYM    DATA     BYTE      PWMCFG
      000000E0H   SFRSYM    DATA     BYTE      ACC
      000000A8H.1 SFRSYM    DATA     BIT       ET0
      00000088H.5 SFRSYM    DATA     BIT       TF0
      000000A8H.3 SFRSYM    DATA     BIT       ET1
      00000088H.7 SFRSYM    DATA     BIT       TF1
      000000B5H   SFRSYM    DATA     BYTE      IP2
      000000FFH   SFRSYM    DATA     BYTE      RSTCFG
      00000098H.2 SFRSYM    DATA     BIT       RB8
      0000008CH   SFRSYM    DATA     BYTE      TH0
      0000008DH   SFRSYM    DATA     BYTE      TH1
      00000088H.0 SFRSYM    DATA     BIT       IT0
      000000A8H.0 SFRSYM    DATA     BIT       EX0
      00000098H.3 SFRSYM    DATA     BIT       TB8
      000000D6H   SFRSYM    DATA     BYTE      TH2
      000000D6H   SFRSYM    DATA     BYTE      T2H
      00000088H.2 SFRSYM    DATA     BIT       IT1
      000000A8H.2 SFRSYM    DATA     BIT       EX1
      000000D4H   SFRSYM    DATA     BYTE      TH3
      000000D4H   SFRSYM    DATA     BYTE      T3H
      000000D0H.0 SFRSYM    DATA     BIT       P
      00000098H.7 SFRSYM    DATA     BIT       SM0
      000000D2H   SFRSYM    DATA     BYTE      TH4
      000000D2H   SFRSYM    DATA     BYTE      T4H
      0000008AH   SFRSYM    DATA     BYTE      TL0
      00000098H.6 SFRSYM    DATA     BIT       SM1
      0000008BH   SFRSYM    DATA     BYTE      TL1
      00000098H.5 SFRSYM    DATA     BIT       SM2
      000000D7H   SFRSYM    DATA     BYTE      TL2
      000000D7H   SFRSYM    DATA     BYTE      T2L
      000000D5H   SFRSYM    DATA     BYTE      TL3
      000000D5H   SFRSYM    DATA     BYTE      T3L
      000000D3H   SFRSYM    DATA     BYTE      TL4
      000000D3H   SFRSYM    DATA     BYTE      T4L
      000000B8H.1 SFRSYM    DATA     BIT       PT0
      000000C7H   SFRSYM    DATA     BYTE      ISP_CONTR
      000000B8H.3 SFRSYM    DATA     BIT       PT1
      000000D0H.3 SFRSYM    DATA     BIT       RS0
      000000C2H   SFRSYM    DATA     BYTE      IAP_DATA
      00000088H.4 SFRSYM    DATA     BIT       TR0
      000000D0H.4 SFRSYM    DATA     BIT       RS1
      00000088H.6 SFRSYM    DATA     BIT       TR1
      000000C1H   SFRSYM    DATA     BYTE      WDT_CONTR
      000000B8H.0 SFRSYM    DATA     BIT       PX0
      000000B8H.2 SFRSYM    DATA     BIT       PX1
LX51 LINKER/LOCATER V4.66.93.0                                                        04/15/2020  14:21:01  PAGE 29


      000000F2H   SFRSYM    DATA     BYTE      PCA_PWM0
      000000F3H   SFRSYM    DATA     BYTE      PCA_PWM1
      000000F4H   SFRSYM    DATA     BYTE      PCA_PWM2
      000000BBH   SFRSYM    DATA     BYTE      VOCTRL
      00000083H   SFRSYM    DATA     BYTE      DPH
      000000F5H   SFRSYM    DATA     BYTE      PCA_PWM3
      000000D1H   SFRSYM    DATA     BYTE      T4T3M
      00000080H.7 SFRSYM    DATA     BIT       LED_BLUE
      000000BEH   SFRSYM    DATA     BYTE      ADC_RESL
      00000082H   SFRSYM    DATA     BYTE      DPL
      000000CDH   SFRSYM    DATA     BYTE      SPSTAT
      000000B7H   SFRSYM    DATA     BYTE      IPH
      0000009BH   SFRSYM    DATA     BYTE      S2BUF
      000000ADH   SFRSYM    DATA     BYTE      S3BUF
      00000085H   SFRSYM    DATA     BYTE      S4BUF
      00000098H.4 SFRSYM    DATA     BIT       REN
      0000009AH   SFRSYM    DATA     BYTE      S2CON
      000000ACH   SFRSYM    DATA     BYTE      S3CON
      000000E3H   SFRSYM    DATA     BYTE      DPS
      000000C2H   SFRSYM    DATA     BYTE      ISP_DATA
      00000084H   SFRSYM    DATA     BYTE      S4CON
      000000EFH   SFRSYM    DATA     BYTE      AUXINTIF
      000000B9H   SFRSYM    DATA     BYTE      SADEN
      000000A9H   SFRSYM    DATA     BYTE      SADDR
      000000C6H   SFRSYM    DATA     BYTE      IAP_TRIG
      00000097H   SFRSYM    DATA     BYTE      AUXR2
      000000D0H.5 SFRSYM    DATA     BIT       F0
      000000D0H   SFRSYM    DATA     BYTE      PSW
      000000D8H.0 SFRSYM    DATA     BIT       CCF0
      000000D8H.1 SFRSYM    DATA     BIT       CCF1
      000000CFH   SFRSYM    DATA     BYTE      SPDAT
      00000094H   SFRSYM    DATA     BYTE      P0M0
      01001B7CH   SYMBOL    CODE     ---       Init_timer0
      01001904H   SYMBOL    CODE     ---       _Init_wkt
      01001B26H   SYMBOL    CODE     ---       Init_io
      01001BE3H   SYMBOL    CODE     ---       Init_rst
      01001A27H   SYMBOL    CODE     ---       Init_uart2
      01000026H   SYMBOL    CODE     ---       Init_interrupt

      01001B01H   BLOCK     CODE     ---       LVL=0
      01001B01H   LINE      CODE     ---       #12
      01001B01H   LINE      CODE     ---       #13
      01001B01H   LINE      CODE     ---       #15
      01001B04H   LINE      CODE     ---       #16
      01001B07H   LINE      CODE     ---       #17
      01001B0AH   LINE      CODE     ---       #21
      01001B0DH   LINE      CODE     ---       #22
      01001B1AH   LINE      CODE     ---       #23
      01001B1DH   LINE      CODE     ---       #29
      01001B20H   LINE      CODE     ---       #30
      01001B23H   LINE      CODE     ---       #31
      ---         BLOCKEND  ---      ---       LVL=0

      01001BE3H   BLOCK     CODE     ---       LVL=0
      01001BE3H   LINE      CODE     ---       #36
      01001BE3H   LINE      CODE     ---       #37
      01001BE3H   LINE      CODE     ---       #39
      01001BE6H   LINE      CODE     ---       #42
      01001BE9H   LINE      CODE     ---       #43
      01001BECH   LINE      CODE     ---       #44
      ---         BLOCKEND  ---      ---       LVL=0

      01001B26H   BLOCK     CODE     ---       LVL=0
      01001B26H   LINE      CODE     ---       #45
      01001B26H   LINE      CODE     ---       #46
LX51 LINKER/LOCATER V4.66.93.0                                                        04/15/2020  14:21:01  PAGE 30


      01001B26H   LINE      CODE     ---       #47
      01001B2CH   LINE      CODE     ---       #48
      01001B32H   LINE      CODE     ---       #50
      01001B38H   LINE      CODE     ---       #51
      01001B3EH   LINE      CODE     ---       #53
      01001B44H   LINE      CODE     ---       #54
      ---         BLOCKEND  ---      ---       LVL=0

      01001B7CH   BLOCK     CODE     ---       LVL=0
      01001B7CH   LINE      CODE     ---       #55
      01001B7CH   LINE      CODE     ---       #56
      01001B7CH   LINE      CODE     ---       #57
      01001B7FH   LINE      CODE     ---       #58
      01001B82H   LINE      CODE     ---       #59
      01001B85H   LINE      CODE     ---       #60
      01001B88H   LINE      CODE     ---       #61
      01001B8AH   LINE      CODE     ---       #62
      01001B8CH   LINE      CODE     ---       #63
      ---         BLOCKEND  ---      ---       LVL=0

      01001A27H   BLOCK     CODE     ---       LVL=0
      01001A27H   BLOCK     CODE     NEAR LAB  LVL=1
      00000022H   SYMBOL    DATA     DWORD     BTL
      ---         BLOCKEND  ---      ---       LVL=1
      01001A27H   LINE      CODE     ---       #74
      01001A27H   LINE      CODE     ---       #75
      01001A27H   LINE      CODE     ---       #77
      01001A32H   LINE      CODE     ---       #78
      01001A35H   LINE      CODE     ---       #79
      01001A3BH   LINE      CODE     ---       #80
      01001A4AH   LINE      CODE     ---       #81
      01001A4DH   LINE      CODE     ---       #83
      01001A4FH   LINE      CODE     ---       #84
      01001A58H   LINE      CODE     ---       #86
      01001A5BH   LINE      CODE     ---       #87
      ---         BLOCKEND  ---      ---       LVL=0

      01001904H   BLOCK     CODE     ---       LVL=0
      00000022H   SYMBOL    DATA     FLOAT     ms
      00000020H.1 SYMBOL    BIT      BIT       en
      0100190CH   BLOCK     CODE     NEAR LAB  LVL=1
      02000000H   SYMBOL    PDATA    WORD      T
      ---         BLOCKEND  ---      ---       LVL=1
      01001904H   LINE      CODE     ---       #88
      0100190CH   LINE      CODE     ---       #89
      0100190CH   LINE      CODE     ---       #91
      0100190FH   LINE      CODE     ---       #93
      01001934H   LINE      CODE     ---       #94
      01001939H   LINE      CODE     ---       #95
      0100193FH   LINE      CODE     ---       #96
      01001944H   LINE      CODE     ---       #97
      01001947H   LINE      CODE     ---       #98
      ---         BLOCKEND  ---      ---       LVL=0

      01000026H   BLOCK     CODE     ---       LVL=0
      01000026H   LINE      CODE     ---       #99
      01000026H   LINE      CODE     ---       #100
      01000026H   LINE      CODE     ---       #101
      01000028H   LINE      CODE     ---       #102
      0100002DH   LINE      CODE     ---       #103
      01000030H   LINE      CODE     ---       #105
      01000035H   LINE      CODE     ---       #106
      0100003AH   LINE      CODE     ---       #107
      01000040H   LINE      CODE     ---       #109
      01000042H   LINE      CODE     ---       #110
LX51 LINKER/LOCATER V4.66.93.0                                                        04/15/2020  14:21:01  PAGE 31


      ---         BLOCKEND  ---      ---       LVL=0

      ---         MODULE    ---      ---       DELAY
      01001BB6H   PUBLIC    CODE     ---       Delay765ms
      01001B8DH   PUBLIC    CODE     ---       Delay385ms
      01001BA9H   PUBLIC    CODE     ---       Delay200ms
      01001B9CH   PUBLIC    CODE     ---       Delay100ms
      01001C0AH   PUBLIC    CODE     ---       Delay1ms
      01001C01H   PUBLIC    CODE     ---       Delay485us
      01001BF7H   PUBLIC    CODE     ---       Delay130us
      01001BCEH   PUBLIC    CODE     ---       Delay60us
      01001BEDH   PUBLIC    CODE     ---       Delay40us
      01001C23H   PUBLIC    CODE     ---       Delay10us
      01001C2AH   PUBLIC    CODE     ---       Delay1us
      000000D8H.2 SFRSYM    DATA     BIT       CCF2
      00000092H   SFRSYM    DATA     BYTE      P1M0
      00000093H   SFRSYM    DATA     BYTE      P0M1
      000000D8H.3 SFRSYM    DATA     BIT       CCF3
      00000096H   SFRSYM    DATA     BYTE      P2M0
      00000091H   SFRSYM    DATA     BYTE      P1M1
      00000080H   SFRSYM    DATA     BYTE      P0
      000000B2H   SFRSYM    DATA     BYTE      P3M0
      00000095H   SFRSYM    DATA     BYTE      P2M1
      00000090H   SFRSYM    DATA     BYTE      P1
      000000B4H   SFRSYM    DATA     BYTE      P4M0
      000000B1H   SFRSYM    DATA     BYTE      P3M1
      000000A0H   SFRSYM    DATA     BYTE      P2
      000000ABH   SFRSYM    DATA     BYTE      WKTCH
      000000CAH   SFRSYM    DATA     BYTE      P5M0
      000000B3H   SFRSYM    DATA     BYTE      P4M1
      000000B0H   SFRSYM    DATA     BYTE      P3
      000000CCH   SFRSYM    DATA     BYTE      P6M0
      000000C9H   SFRSYM    DATA     BYTE      P5M1
      000000C0H   SFRSYM    DATA     BYTE      P4
      000000D0H.6 SFRSYM    DATA     BIT       AC
      000000F6H   SFRSYM    DATA     BYTE      PWMIF
      000000C6H   SFRSYM    DATA     BYTE      ISP_TRIG
      000000E2H   SFRSYM    DATA     BYTE      P7M0
      000000CBH   SFRSYM    DATA     BYTE      P6M1
      000000C8H   SFRSYM    DATA     BYTE      P5
      000000A8H.7 SFRSYM    DATA     BIT       EA
      000000E1H   SFRSYM    DATA     BYTE      P7M1
      000000E8H   SFRSYM    DATA     BYTE      P6
      000000AAH   SFRSYM    DATA     BYTE      WKTCL
      000000F8H   SFRSYM    DATA     BYTE      P7
      000000CEH   SFRSYM    DATA     BYTE      SPCTL
      000000D8H.7 SFRSYM    DATA     BIT       CF
      000000FEH   SFRSYM    DATA     BYTE      PWMCR
      000000F9H   SFRSYM    DATA     BYTE      CH
      000000A2H   SFRSYM    DATA     BYTE      P_SW1
      000000BAH   SFRSYM    DATA     BYTE      P_SW2
      000000A8H.5 SFRSYM    DATA     BIT       EADC
      000000A8H   SFRSYM    DATA     BYTE      IE
      000000E5H   SFRSYM    DATA     BYTE      DPH1
      000000E9H   SFRSYM    DATA     BYTE      CL
      000000C5H   SFRSYM    DATA     BYTE      IAP_CMD
      000000FAH   SFRSYM    DATA     BYTE      CCAP0H
      000000B0H.2 SFRSYM    DATA     BIT       LCD1602_EN
      00000090H.0 SFRSYM    DATA     BIT       LED_RED
      000000FBH   SFRSYM    DATA     BYTE      CCAP1H
      000000E4H   SFRSYM    DATA     BYTE      DPL1
      000000FCH   SFRSYM    DATA     BYTE      CCAP2H
      000000FDH   SFRSYM    DATA     BYTE      CCAP3H
      000000BDH   SFRSYM    DATA     BYTE      ADC_RES
      000000B6H   SFRSYM    DATA     BYTE      IP2H
LX51 LINKER/LOCATER V4.66.93.0                                                        04/15/2020  14:21:01  PAGE 32


      000000EAH   SFRSYM    DATA     BYTE      CCAP0L
      000000D8H.6 SFRSYM    DATA     BIT       CR
      000000AEH   SFRSYM    DATA     BYTE      TA
      000000F7H   SFRSYM    DATA     BYTE      PWMFDCR
      000000EBH   SFRSYM    DATA     BYTE      CCAP1L
      000000DAH   SFRSYM    DATA     BYTE      CCAPM0
      000000ECH   SFRSYM    DATA     BYTE      CCAP2L
      000000DBH   SFRSYM    DATA     BYTE      CCAPM1
      0000008FH   SFRSYM    DATA     BYTE      INTCLKO
      000000EDH   SFRSYM    DATA     BYTE      CCAP3L
      000000DCH   SFRSYM    DATA     BYTE      CCAPM2
      000000A8H.4 SFRSYM    DATA     BIT       ES
      000000DDH   SFRSYM    DATA     BYTE      CCAPM3
      000000B8H.5 SFRSYM    DATA     BIT       PADC
      000000B8H   SFRSYM    DATA     BYTE      IP
      000000DEH   SFRSYM    DATA     BYTE      ADCCFG
      000000B0H.6 SFRSYM    DATA     BIT       ESP8266_RST
      00000098H.0 SFRSYM    DATA     BIT       RI
      000000D0H.7 SFRSYM    DATA     BIT       CY
      00000098H.1 SFRSYM    DATA     BIT       TI
      000000C3H   SFRSYM    DATA     BYTE      IAP_ADDRH
      000000C0H.1 SFRSYM    DATA     BIT       DS18B20_DATA
      000000C5H   SFRSYM    DATA     BYTE      ISP_CMD
      000000B8H.4 SFRSYM    DATA     BIT       PS
      00000081H   SFRSYM    DATA     BYTE      SP
      000000A0H.7 SFRSYM    DATA     BIT       LCD1602_Busy
      000000B0H.5 SFRSYM    DATA     BIT       LCD1602_RS
      000000D9H   SFRSYM    DATA     BYTE      CMOD
      000000D8H   SFRSYM    DATA     BYTE      CCON
      000000C4H   SFRSYM    DATA     BYTE      IAP_ADDRL
      000000B8H.7 SFRSYM    DATA     BIT       PPCA
      000000D0H.2 SFRSYM    DATA     BIT       OV
      000000B0H.4 SFRSYM    DATA     BIT       LCD1602_RW
      000000E6H   SFRSYM    DATA     BYTE      CMPCR1
      00000090H.1 SFRSYM    DATA     BIT       LED_GREEN
      000000E7H   SFRSYM    DATA     BYTE      CMPCR2
      000000A8H.6 SFRSYM    DATA     BIT       ELVD
      00000080H.0 SFRSYM    DATA     BIT       P00
      000000BCH   SFRSYM    DATA     BYTE      ADC_CONTR
      00000099H   SFRSYM    DATA     BYTE      SBUF
      00000087H   SFRSYM    DATA     BYTE      PCON
      00000090H.0 SFRSYM    DATA     BIT       P10
      00000080H.1 SFRSYM    DATA     BIT       P01
      000000C3H   SFRSYM    DATA     BYTE      ISP_ADDRH
      000000A0H.0 SFRSYM    DATA     BIT       P20
      00000090H.1 SFRSYM    DATA     BIT       P11
      00000080H.2 SFRSYM    DATA     BIT       P02
      000000B0H.0 SFRSYM    DATA     BIT       P30
      000000A0H.1 SFRSYM    DATA     BIT       P21
      00000090H.2 SFRSYM    DATA     BIT       P12
      00000080H.3 SFRSYM    DATA     BIT       P03
      00000098H   SFRSYM    DATA     BYTE      SCON
      000000C0H.0 SFRSYM    DATA     BIT       P40
      000000B0H.1 SFRSYM    DATA     BIT       P31
      000000A0H.2 SFRSYM    DATA     BIT       P22
      00000090H.3 SFRSYM    DATA     BIT       P13
      00000080H.4 SFRSYM    DATA     BIT       P04
      00000089H   SFRSYM    DATA     BYTE      TMOD
      00000088H   SFRSYM    DATA     BYTE      TCON
      000000C8H.0 SFRSYM    DATA     BIT       P50
      000000C0H.1 SFRSYM    DATA     BIT       P41
      000000B0H.2 SFRSYM    DATA     BIT       P32
      000000A0H.3 SFRSYM    DATA     BIT       P23
      00000090H.4 SFRSYM    DATA     BIT       P14
      00000080H.5 SFRSYM    DATA     BIT       P05
LX51 LINKER/LOCATER V4.66.93.0                                                        04/15/2020  14:21:01  PAGE 33


      000000C4H   SFRSYM    DATA     BYTE      ISP_ADDRL
      000000E8H.0 SFRSYM    DATA     BIT       P60
      000000C8H.1 SFRSYM    DATA     BIT       P51
      000000C0H.2 SFRSYM    DATA     BIT       P42
      000000B0H.3 SFRSYM    DATA     BIT       P33
      000000A0H.4 SFRSYM    DATA     BIT       P24
      00000090H.5 SFRSYM    DATA     BIT       P15
      00000080H.6 SFRSYM    DATA     BIT       P06
      000000B8H.6 SFRSYM    DATA     BIT       PLVD
      000000F8H.0 SFRSYM    DATA     BIT       P70
      000000E8H.1 SFRSYM    DATA     BIT       P61
      000000C8H.2 SFRSYM    DATA     BIT       P52
      000000C0H.3 SFRSYM    DATA     BIT       P43
      000000B0H.4 SFRSYM    DATA     BIT       P34
      000000A0H.5 SFRSYM    DATA     BIT       P25
      00000090H.6 SFRSYM    DATA     BIT       P16
      00000080H.7 SFRSYM    DATA     BIT       P07
      000000F8H.1 SFRSYM    DATA     BIT       P71
      000000E8H.2 SFRSYM    DATA     BIT       P62
      000000C8H.3 SFRSYM    DATA     BIT       P53
      000000C0H.4 SFRSYM    DATA     BIT       P44
      000000B0H.5 SFRSYM    DATA     BIT       P35
      000000A0H.6 SFRSYM    DATA     BIT       P26
      00000090H.7 SFRSYM    DATA     BIT       P17
      000000F8H.2 SFRSYM    DATA     BIT       P72
      000000E8H.3 SFRSYM    DATA     BIT       P63
      000000C8H.4 SFRSYM    DATA     BIT       P54
      000000C0H.5 SFRSYM    DATA     BIT       P45
      000000B0H.6 SFRSYM    DATA     BIT       P36
      000000A0H.7 SFRSYM    DATA     BIT       P27
      000000F8H.3 SFRSYM    DATA     BIT       P73
      000000E8H.4 SFRSYM    DATA     BIT       P64
      000000C8H.5 SFRSYM    DATA     BIT       P55
      000000C0H.6 SFRSYM    DATA     BIT       P46
      000000B0H.7 SFRSYM    DATA     BIT       P37
      000000F8H.4 SFRSYM    DATA     BIT       P74
      000000E8H.5 SFRSYM    DATA     BIT       P65
      000000C8H.6 SFRSYM    DATA     BIT       P56
      000000C0H.7 SFRSYM    DATA     BIT       P47
      000000F8H.5 SFRSYM    DATA     BIT       P75
      000000E8H.6 SFRSYM    DATA     BIT       P66
      000000C8H.7 SFRSYM    DATA     BIT       P57
      000000F8H.6 SFRSYM    DATA     BIT       P76
      000000E8H.7 SFRSYM    DATA     BIT       P67
      00000088H.1 SFRSYM    DATA     BIT       IE0
      000000A1H   SFRSYM    DATA     BYTE      BUS_SPEED
      000000F8H.7 SFRSYM    DATA     BIT       P77
      00000088H.3 SFRSYM    DATA     BIT       IE1
      000000AFH   SFRSYM    DATA     BYTE      IE2
      0000008EH   SFRSYM    DATA     BYTE      AUXR
      000000F0H   SFRSYM    DATA     BYTE      B
      000000C7H   SFRSYM    DATA     BYTE      IAP_CONTR
      000000F1H   SFRSYM    DATA     BYTE      PWMCFG
      000000E0H   SFRSYM    DATA     BYTE      ACC
      000000A8H.1 SFRSYM    DATA     BIT       ET0
      00000088H.5 SFRSYM    DATA     BIT       TF0
      000000A8H.3 SFRSYM    DATA     BIT       ET1
      00000088H.7 SFRSYM    DATA     BIT       TF1
      000000B5H   SFRSYM    DATA     BYTE      IP2
      000000FFH   SFRSYM    DATA     BYTE      RSTCFG
      00000098H.2 SFRSYM    DATA     BIT       RB8
      0000008CH   SFRSYM    DATA     BYTE      TH0
      0000008DH   SFRSYM    DATA     BYTE      TH1
      00000088H.0 SFRSYM    DATA     BIT       IT0
      000000A8H.0 SFRSYM    DATA     BIT       EX0
LX51 LINKER/LOCATER V4.66.93.0                                                        04/15/2020  14:21:01  PAGE 34


      00000098H.3 SFRSYM    DATA     BIT       TB8
      000000D6H   SFRSYM    DATA     BYTE      TH2
      000000D6H   SFRSYM    DATA     BYTE      T2H
      00000088H.2 SFRSYM    DATA     BIT       IT1
      000000A8H.2 SFRSYM    DATA     BIT       EX1
      000000D4H   SFRSYM    DATA     BYTE      TH3
      000000D4H   SFRSYM    DATA     BYTE      T3H
      000000D0H.0 SFRSYM    DATA     BIT       P
      00000098H.7 SFRSYM    DATA     BIT       SM0
      000000D2H   SFRSYM    DATA     BYTE      TH4
      000000D2H   SFRSYM    DATA     BYTE      T4H
      0000008AH   SFRSYM    DATA     BYTE      TL0
      00000098H.6 SFRSYM    DATA     BIT       SM1
      0000008BH   SFRSYM    DATA     BYTE      TL1
      00000098H.5 SFRSYM    DATA     BIT       SM2
      000000D7H   SFRSYM    DATA     BYTE      TL2
      000000D7H   SFRSYM    DATA     BYTE      T2L
      000000D5H   SFRSYM    DATA     BYTE      TL3
      000000D5H   SFRSYM    DATA     BYTE      T3L
      000000D3H   SFRSYM    DATA     BYTE      TL4
      000000D3H   SFRSYM    DATA     BYTE      T4L
      000000B8H.1 SFRSYM    DATA     BIT       PT0
      000000C7H   SFRSYM    DATA     BYTE      ISP_CONTR
      000000B8H.3 SFRSYM    DATA     BIT       PT1
      000000D0H.3 SFRSYM    DATA     BIT       RS0
      000000C2H   SFRSYM    DATA     BYTE      IAP_DATA
      00000088H.4 SFRSYM    DATA     BIT       TR0
      000000D0H.4 SFRSYM    DATA     BIT       RS1
      00000088H.6 SFRSYM    DATA     BIT       TR1
      000000C1H   SFRSYM    DATA     BYTE      WDT_CONTR
      000000B8H.0 SFRSYM    DATA     BIT       PX0
      000000B8H.2 SFRSYM    DATA     BIT       PX1
      000000F2H   SFRSYM    DATA     BYTE      PCA_PWM0
      000000F3H   SFRSYM    DATA     BYTE      PCA_PWM1
      000000F4H   SFRSYM    DATA     BYTE      PCA_PWM2
      000000BBH   SFRSYM    DATA     BYTE      VOCTRL
      00000083H   SFRSYM    DATA     BYTE      DPH
      000000F5H   SFRSYM    DATA     BYTE      PCA_PWM3
      000000D1H   SFRSYM    DATA     BYTE      T4T3M
      00000080H.7 SFRSYM    DATA     BIT       LED_BLUE
      000000BEH   SFRSYM    DATA     BYTE      ADC_RESL
      00000082H   SFRSYM    DATA     BYTE      DPL
      000000CDH   SFRSYM    DATA     BYTE      SPSTAT
      000000B7H   SFRSYM    DATA     BYTE      IPH
      0000009BH   SFRSYM    DATA     BYTE      S2BUF
      000000ADH   SFRSYM    DATA     BYTE      S3BUF
      00000085H   SFRSYM    DATA     BYTE      S4BUF
      00000098H.4 SFRSYM    DATA     BIT       REN
      0000009AH   SFRSYM    DATA     BYTE      S2CON
      000000ACH   SFRSYM    DATA     BYTE      S3CON
      000000E3H   SFRSYM    DATA     BYTE      DPS
      000000C2H   SFRSYM    DATA     BYTE      ISP_DATA
      00000084H   SFRSYM    DATA     BYTE      S4CON
      000000EFH   SFRSYM    DATA     BYTE      AUXINTIF
      000000B9H   SFRSYM    DATA     BYTE      SADEN
      000000A9H   SFRSYM    DATA     BYTE      SADDR
      000000C6H   SFRSYM    DATA     BYTE      IAP_TRIG
      00000097H   SFRSYM    DATA     BYTE      AUXR2
      000000D0H.5 SFRSYM    DATA     BIT       F0
      000000D0H   SFRSYM    DATA     BYTE      PSW
      000000D8H.0 SFRSYM    DATA     BIT       CCF0
      000000D8H.1 SFRSYM    DATA     BIT       CCF1
      000000CFH   SFRSYM    DATA     BYTE      SPDAT
      00000094H   SFRSYM    DATA     BYTE      P0M0

LX51 LINKER/LOCATER V4.66.93.0                                                        04/15/2020  14:21:01  PAGE 35


      01001C2AH   BLOCK     CODE     ---       LVL=0
      01001C2AH   BLOCK     CODE     NEAR LAB  LVL=1
      00000007H   SYMBOL    DATA     BYTE      i
      ---         BLOCKEND  ---      ---       LVL=1
      01001C2AH   LINE      CODE     ---       #22496
      ---         BLOCKEND  ---      ---       LVL=0

      01001C23H   BLOCK     CODE     ---       LVL=0
      01001C23H   BLOCK     CODE     NEAR LAB  LVL=1
      00000007H   SYMBOL    DATA     BYTE      i
      ---         BLOCKEND  ---      ---       LVL=1
      01001C23H   LINE      CODE     ---       #22523
      ---         BLOCKEND  ---      ---       LVL=0

      01001BEDH   BLOCK     CODE     ---       LVL=0
      01001BEDH   BLOCK     CODE     NEAR LAB  LVL=1
      00000007H   SYMBOL    DATA     BYTE      i
      00000006H   SYMBOL    DATA     BYTE      j
      ---         BLOCKEND  ---      ---       LVL=1
      01001BEDH   LINE      CODE     ---       #22613
      ---         BLOCKEND  ---      ---       LVL=0
      00000007H   SYMBOL    DATA     BYTE      i
      00000006H   SYMBOL    DATA     BYTE      j

      01001BCEH   BLOCK     CODE     ---       LVL=0
      01001BCEH   BLOCK     CODE     NEAR LAB  LVL=1
      00000007H   SYMBOL    DATA     BYTE      i
      00000006H   SYMBOL    DATA     BYTE      j
      ---         BLOCKEND  ---      ---       LVL=1
      01001BCEH   LINE      CODE     ---       #22673
      ---         BLOCKEND  ---      ---       LVL=0

      01001BF7H   BLOCK     CODE     ---       LVL=0
      01001BF7H   BLOCK     CODE     NEAR LAB  LVL=1
      00000007H   SYMBOL    DATA     BYTE      i
      00000006H   SYMBOL    DATA     BYTE      j
      ---         BLOCKEND  ---      ---       LVL=1
      01001BF7H   LINE      CODE     ---       #22883
      ---         BLOCKEND  ---      ---       LVL=0

      01001C01H   BLOCK     CODE     ---       LVL=0
      01001C01H   BLOCK     CODE     NEAR LAB  LVL=1
      00000007H   SYMBOL    DATA     BYTE      i
      00000006H   SYMBOL    DATA     BYTE      j
      ---         BLOCKEND  ---      ---       LVL=1
      01001C01H   LINE      CODE     ---       #23948
      ---         BLOCKEND  ---      ---       LVL=0

      01001C0AH   BLOCK     CODE     ---       LVL=0
      01001C0AH   BLOCK     CODE     NEAR LAB  LVL=1
      00000007H   SYMBOL    DATA     BYTE      i
      00000006H   SYMBOL    DATA     BYTE      j
      ---         BLOCKEND  ---      ---       LVL=1
      01001C0AH   LINE      CODE     ---       #25493
      ---         BLOCKEND  ---      ---       LVL=0

      01001B9CH   BLOCK     CODE     ---       LVL=0
      01001B9CH   BLOCK     CODE     NEAR LAB  LVL=1
      00000007H   SYMBOL    DATA     BYTE      i
      00000006H   SYMBOL    DATA     BYTE      j
      00000005H   SYMBOL    DATA     BYTE      k
      ---         BLOCKEND  ---      ---       LVL=1
      01001B9CH   LINE      CODE     ---       #25790
      ---         BLOCKEND  ---      ---       LVL=0

LX51 LINKER/LOCATER V4.66.93.0                                                        04/15/2020  14:21:01  PAGE 36


      01001BA9H   BLOCK     CODE     ---       LVL=0
      01001BA9H   BLOCK     CODE     NEAR LAB  LVL=1
      00000007H   SYMBOL    DATA     BYTE      i
      00000006H   SYMBOL    DATA     BYTE      j
      00000005H   SYMBOL    DATA     BYTE      k
      ---         BLOCKEND  ---      ---       LVL=1
      01001BA9H   LINE      CODE     ---       #26090
      ---         BLOCKEND  ---      ---       LVL=0

      01001B8DH   BLOCK     CODE     ---       LVL=0
      01001B8DH   BLOCK     CODE     NEAR LAB  LVL=1
      00000007H   SYMBOL    DATA     BYTE      i
      00000006H   SYMBOL    DATA     BYTE      j
      00000005H   SYMBOL    DATA     BYTE      k
      ---         BLOCKEND  ---      ---       LVL=1
      01001B8DH   LINE      CODE     ---       #26645
      ---         BLOCKEND  ---      ---       LVL=0

      01001BB6H   BLOCK     CODE     ---       LVL=0
      01001BB6H   BLOCK     CODE     NEAR LAB  LVL=1
      00000007H   SYMBOL    DATA     BYTE      i
      00000006H   SYMBOL    DATA     BYTE      j
      00000005H   SYMBOL    DATA     BYTE      k
      ---         BLOCKEND  ---      ---       LVL=1
      01001BB6H   LINE      CODE     ---       #27785
      ---         BLOCKEND  ---      ---       LVL=0

      ---         MODULE    ---      ---       DS18B20
      020006C5H   PUBLIC    XDATA    ---       DS18B20ST
      01001FD2H   PUBLIC    CONST    ---       DS18B20ReTransfrom
      01001FCAH   PUBLIC    CONST    ---       DS18B20ConvertTMaxTime
      01001008H   PUBLIC    CODE     ---       DS18B20GetTemperature
      01001B58H   PUBLIC    CODE     ---       DS18B20ConvertTemperature
      01001550H   PUBLIC    CODE     ---       DS18B20STInit
      000000D8H.2 SFRSYM    DATA     BIT       CCF2
      00000092H   SFRSYM    DATA     BYTE      P1M0
      00000093H   SFRSYM    DATA     BYTE      P0M1
      000000D8H.3 SFRSYM    DATA     BIT       CCF3
      00000096H   SFRSYM    DATA     BYTE      P2M0
      00000091H   SFRSYM    DATA     BYTE      P1M1
      00000080H   SFRSYM    DATA     BYTE      P0
      000000B2H   SFRSYM    DATA     BYTE      P3M0
      00000095H   SFRSYM    DATA     BYTE      P2M1
      00000090H   SFRSYM    DATA     BYTE      P1
      000000B4H   SFRSYM    DATA     BYTE      P4M0
      000000B1H   SFRSYM    DATA     BYTE      P3M1
      000000A0H   SFRSYM    DATA     BYTE      P2
      000000ABH   SFRSYM    DATA     BYTE      WKTCH
      000000CAH   SFRSYM    DATA     BYTE      P5M0
      000000B3H   SFRSYM    DATA     BYTE      P4M1
      000000B0H   SFRSYM    DATA     BYTE      P3
      000000CCH   SFRSYM    DATA     BYTE      P6M0
      000000C9H   SFRSYM    DATA     BYTE      P5M1
      000000C0H   SFRSYM    DATA     BYTE      P4
      000000D0H.6 SFRSYM    DATA     BIT       AC
      000000F6H   SFRSYM    DATA     BYTE      PWMIF
      000000C6H   SFRSYM    DATA     BYTE      ISP_TRIG
      000000E2H   SFRSYM    DATA     BYTE      P7M0
      000000CBH   SFRSYM    DATA     BYTE      P6M1
      000000C8H   SFRSYM    DATA     BYTE      P5
      000000A8H.7 SFRSYM    DATA     BIT       EA
      000000E1H   SFRSYM    DATA     BYTE      P7M1
      000000E8H   SFRSYM    DATA     BYTE      P6
      000000AAH   SFRSYM    DATA     BYTE      WKTCL
      000000F8H   SFRSYM    DATA     BYTE      P7
LX51 LINKER/LOCATER V4.66.93.0                                                        04/15/2020  14:21:01  PAGE 37


      000000CEH   SFRSYM    DATA     BYTE      SPCTL
      000000D8H.7 SFRSYM    DATA     BIT       CF
      000000FEH   SFRSYM    DATA     BYTE      PWMCR
      000000F9H   SFRSYM    DATA     BYTE      CH
      000000A2H   SFRSYM    DATA     BYTE      P_SW1
      000000BAH   SFRSYM    DATA     BYTE      P_SW2
      000000A8H.5 SFRSYM    DATA     BIT       EADC
      000000A8H   SFRSYM    DATA     BYTE      IE
      000000E5H   SFRSYM    DATA     BYTE      DPH1
      000000E9H   SFRSYM    DATA     BYTE      CL
      000000C5H   SFRSYM    DATA     BYTE      IAP_CMD
      000000FAH   SFRSYM    DATA     BYTE      CCAP0H
      000000B0H.2 SFRSYM    DATA     BIT       LCD1602_EN
      00000090H.0 SFRSYM    DATA     BIT       LED_RED
      000000FBH   SFRSYM    DATA     BYTE      CCAP1H
      000000E4H   SFRSYM    DATA     BYTE      DPL1
      000000FCH   SFRSYM    DATA     BYTE      CCAP2H
      000000FDH   SFRSYM    DATA     BYTE      CCAP3H
      000000BDH   SFRSYM    DATA     BYTE      ADC_RES
      000000B6H   SFRSYM    DATA     BYTE      IP2H
      000000EAH   SFRSYM    DATA     BYTE      CCAP0L
      000000D8H.6 SFRSYM    DATA     BIT       CR
      000000AEH   SFRSYM    DATA     BYTE      TA
      000000F7H   SFRSYM    DATA     BYTE      PWMFDCR
      000000EBH   SFRSYM    DATA     BYTE      CCAP1L
      000000DAH   SFRSYM    DATA     BYTE      CCAPM0
      000000ECH   SFRSYM    DATA     BYTE      CCAP2L
      000000DBH   SFRSYM    DATA     BYTE      CCAPM1
      0000008FH   SFRSYM    DATA     BYTE      INTCLKO
      000000EDH   SFRSYM    DATA     BYTE      CCAP3L
      000000DCH   SFRSYM    DATA     BYTE      CCAPM2
      000000A8H.4 SFRSYM    DATA     BIT       ES
      000000DDH   SFRSYM    DATA     BYTE      CCAPM3
      000000B8H.5 SFRSYM    DATA     BIT       PADC
      000000B8H   SFRSYM    DATA     BYTE      IP
      000000DEH   SFRSYM    DATA     BYTE      ADCCFG
      000000B0H.6 SFRSYM    DATA     BIT       ESP8266_RST
      00000098H.0 SFRSYM    DATA     BIT       RI
      000000D0H.7 SFRSYM    DATA     BIT       CY
      00000098H.1 SFRSYM    DATA     BIT       TI
      000000C3H   SFRSYM    DATA     BYTE      IAP_ADDRH
      000000C0H.1 SFRSYM    DATA     BIT       DS18B20_DATA
      000000C5H   SFRSYM    DATA     BYTE      ISP_CMD
      000000B8H.4 SFRSYM    DATA     BIT       PS
      00000081H   SFRSYM    DATA     BYTE      SP
      000000A0H.7 SFRSYM    DATA     BIT       LCD1602_Busy
      000000B0H.5 SFRSYM    DATA     BIT       LCD1602_RS
      000000D9H   SFRSYM    DATA     BYTE      CMOD
      000000D8H   SFRSYM    DATA     BYTE      CCON
      000000C4H   SFRSYM    DATA     BYTE      IAP_ADDRL
      000000B8H.7 SFRSYM    DATA     BIT       PPCA
      000000D0H.2 SFRSYM    DATA     BIT       OV
      000000B0H.4 SFRSYM    DATA     BIT       LCD1602_RW
      000000E6H   SFRSYM    DATA     BYTE      CMPCR1
      00000090H.1 SFRSYM    DATA     BIT       LED_GREEN
      000000E7H   SFRSYM    DATA     BYTE      CMPCR2
      000000A8H.6 SFRSYM    DATA     BIT       ELVD
      00000080H.0 SFRSYM    DATA     BIT       P00
      000000BCH   SFRSYM    DATA     BYTE      ADC_CONTR
      00000099H   SFRSYM    DATA     BYTE      SBUF
      00000087H   SFRSYM    DATA     BYTE      PCON
      00000090H.0 SFRSYM    DATA     BIT       P10
      00000080H.1 SFRSYM    DATA     BIT       P01
      000000C3H   SFRSYM    DATA     BYTE      ISP_ADDRH
      000000A0H.0 SFRSYM    DATA     BIT       P20
LX51 LINKER/LOCATER V4.66.93.0                                                        04/15/2020  14:21:01  PAGE 38


      00000090H.1 SFRSYM    DATA     BIT       P11
      00000080H.2 SFRSYM    DATA     BIT       P02
      000000B0H.0 SFRSYM    DATA     BIT       P30
      000000A0H.1 SFRSYM    DATA     BIT       P21
      00000090H.2 SFRSYM    DATA     BIT       P12
      00000080H.3 SFRSYM    DATA     BIT       P03
      00000098H   SFRSYM    DATA     BYTE      SCON
      000000C0H.0 SFRSYM    DATA     BIT       P40
      000000B0H.1 SFRSYM    DATA     BIT       P31
      000000A0H.2 SFRSYM    DATA     BIT       P22
      00000090H.3 SFRSYM    DATA     BIT       P13
      00000080H.4 SFRSYM    DATA     BIT       P04
      00000089H   SFRSYM    DATA     BYTE      TMOD
      00000088H   SFRSYM    DATA     BYTE      TCON
      000000C8H.0 SFRSYM    DATA     BIT       P50
      000000C0H.1 SFRSYM    DATA     BIT       P41
      000000B0H.2 SFRSYM    DATA     BIT       P32
      000000A0H.3 SFRSYM    DATA     BIT       P23
      00000090H.4 SFRSYM    DATA     BIT       P14
      00000080H.5 SFRSYM    DATA     BIT       P05
      000000C4H   SFRSYM    DATA     BYTE      ISP_ADDRL
      000000E8H.0 SFRSYM    DATA     BIT       P60
      000000C8H.1 SFRSYM    DATA     BIT       P51
      000000C0H.2 SFRSYM    DATA     BIT       P42
      000000B0H.3 SFRSYM    DATA     BIT       P33
      000000A0H.4 SFRSYM    DATA     BIT       P24
      00000090H.5 SFRSYM    DATA     BIT       P15
      00000080H.6 SFRSYM    DATA     BIT       P06
      000000B8H.6 SFRSYM    DATA     BIT       PLVD
      000000F8H.0 SFRSYM    DATA     BIT       P70
      000000E8H.1 SFRSYM    DATA     BIT       P61
      000000C8H.2 SFRSYM    DATA     BIT       P52
      000000C0H.3 SFRSYM    DATA     BIT       P43
      000000B0H.4 SFRSYM    DATA     BIT       P34
      000000A0H.5 SFRSYM    DATA     BIT       P25
      00000090H.6 SFRSYM    DATA     BIT       P16
      00000080H.7 SFRSYM    DATA     BIT       P07
      000000F8H.1 SFRSYM    DATA     BIT       P71
      000000E8H.2 SFRSYM    DATA     BIT       P62
      000000C8H.3 SFRSYM    DATA     BIT       P53
      000000C0H.4 SFRSYM    DATA     BIT       P44
      000000B0H.5 SFRSYM    DATA     BIT       P35
      000000A0H.6 SFRSYM    DATA     BIT       P26
      00000090H.7 SFRSYM    DATA     BIT       P17
      000000F8H.2 SFRSYM    DATA     BIT       P72
      000000E8H.3 SFRSYM    DATA     BIT       P63
      000000C8H.4 SFRSYM    DATA     BIT       P54
      000000C0H.5 SFRSYM    DATA     BIT       P45
      000000B0H.6 SFRSYM    DATA     BIT       P36
      000000A0H.7 SFRSYM    DATA     BIT       P27
      000000F8H.3 SFRSYM    DATA     BIT       P73
      000000E8H.4 SFRSYM    DATA     BIT       P64
      000000C8H.5 SFRSYM    DATA     BIT       P55
      000000C0H.6 SFRSYM    DATA     BIT       P46
      000000B0H.7 SFRSYM    DATA     BIT       P37
      000000F8H.4 SFRSYM    DATA     BIT       P74
      000000E8H.5 SFRSYM    DATA     BIT       P65
      000000C8H.6 SFRSYM    DATA     BIT       P56
      000000C0H.7 SFRSYM    DATA     BIT       P47
      000000F8H.5 SFRSYM    DATA     BIT       P75
      000000E8H.6 SFRSYM    DATA     BIT       P66
      000000C8H.7 SFRSYM    DATA     BIT       P57
      000000F8H.6 SFRSYM    DATA     BIT       P76
      000000E8H.7 SFRSYM    DATA     BIT       P67
      00000088H.1 SFRSYM    DATA     BIT       IE0
LX51 LINKER/LOCATER V4.66.93.0                                                        04/15/2020  14:21:01  PAGE 39


      000000A1H   SFRSYM    DATA     BYTE      BUS_SPEED
      000000F8H.7 SFRSYM    DATA     BIT       P77
      00000088H.3 SFRSYM    DATA     BIT       IE1
      000000AFH   SFRSYM    DATA     BYTE      IE2
      0000008EH   SFRSYM    DATA     BYTE      AUXR
      000000F0H   SFRSYM    DATA     BYTE      B
      000000C7H   SFRSYM    DATA     BYTE      IAP_CONTR
      000000F1H   SFRSYM    DATA     BYTE      PWMCFG
      000000E0H   SFRSYM    DATA     BYTE      ACC
      000000A8H.1 SFRSYM    DATA     BIT       ET0
      00000088H.5 SFRSYM    DATA     BIT       TF0
      000000A8H.3 SFRSYM    DATA     BIT       ET1
      00000088H.7 SFRSYM    DATA     BIT       TF1
      000000B5H   SFRSYM    DATA     BYTE      IP2
      000000FFH   SFRSYM    DATA     BYTE      RSTCFG
      00000098H.2 SFRSYM    DATA     BIT       RB8
      0000008CH   SFRSYM    DATA     BYTE      TH0
      0000008DH   SFRSYM    DATA     BYTE      TH1
      00000088H.0 SFRSYM    DATA     BIT       IT0
      000000A8H.0 SFRSYM    DATA     BIT       EX0
      00000098H.3 SFRSYM    DATA     BIT       TB8
      000000D6H   SFRSYM    DATA     BYTE      TH2
      000000D6H   SFRSYM    DATA     BYTE      T2H
      00000088H.2 SFRSYM    DATA     BIT       IT1
      000000A8H.2 SFRSYM    DATA     BIT       EX1
      000000D4H   SFRSYM    DATA     BYTE      TH3
      000000D4H   SFRSYM    DATA     BYTE      T3H
      000000D0H.0 SFRSYM    DATA     BIT       P
      00000098H.7 SFRSYM    DATA     BIT       SM0
      000000D2H   SFRSYM    DATA     BYTE      TH4
      000000D2H   SFRSYM    DATA     BYTE      T4H
      0000008AH   SFRSYM    DATA     BYTE      TL0
      00000098H.6 SFRSYM    DATA     BIT       SM1
      0000008BH   SFRSYM    DATA     BYTE      TL1
      00000098H.5 SFRSYM    DATA     BIT       SM2
      000000D7H   SFRSYM    DATA     BYTE      TL2
      000000D7H   SFRSYM    DATA     BYTE      T2L
      000000D5H   SFRSYM    DATA     BYTE      TL3
      000000D5H   SFRSYM    DATA     BYTE      T3L
      000000D3H   SFRSYM    DATA     BYTE      TL4
      000000D3H   SFRSYM    DATA     BYTE      T4L
      000000B8H.1 SFRSYM    DATA     BIT       PT0
      000000C7H   SFRSYM    DATA     BYTE      ISP_CONTR
      000000B8H.3 SFRSYM    DATA     BIT       PT1
      000000D0H.3 SFRSYM    DATA     BIT       RS0
      000000C2H   SFRSYM    DATA     BYTE      IAP_DATA
      00000088H.4 SFRSYM    DATA     BIT       TR0
      000000D0H.4 SFRSYM    DATA     BIT       RS1
      00000088H.6 SFRSYM    DATA     BIT       TR1
      000000C1H   SFRSYM    DATA     BYTE      WDT_CONTR
      000000B8H.0 SFRSYM    DATA     BIT       PX0
      000000B8H.2 SFRSYM    DATA     BIT       PX1
      000000F2H   SFRSYM    DATA     BYTE      PCA_PWM0
      000000F3H   SFRSYM    DATA     BYTE      PCA_PWM1
      000000F4H   SFRSYM    DATA     BYTE      PCA_PWM2
      000000BBH   SFRSYM    DATA     BYTE      VOCTRL
      00000083H   SFRSYM    DATA     BYTE      DPH
      000000F5H   SFRSYM    DATA     BYTE      PCA_PWM3
      000000D1H   SFRSYM    DATA     BYTE      T4T3M
      00000080H.7 SFRSYM    DATA     BIT       LED_BLUE
      000000BEH   SFRSYM    DATA     BYTE      ADC_RESL
      00000082H   SFRSYM    DATA     BYTE      DPL
      000000CDH   SFRSYM    DATA     BYTE      SPSTAT
      000000B7H   SFRSYM    DATA     BYTE      IPH
      0000009BH   SFRSYM    DATA     BYTE      S2BUF
LX51 LINKER/LOCATER V4.66.93.0                                                        04/15/2020  14:21:01  PAGE 40


      000000ADH   SFRSYM    DATA     BYTE      S3BUF
      00000085H   SFRSYM    DATA     BYTE      S4BUF
      00000098H.4 SFRSYM    DATA     BIT       REN
      0000009AH   SFRSYM    DATA     BYTE      S2CON
      000000ACH   SFRSYM    DATA     BYTE      S3CON
      000000E3H   SFRSYM    DATA     BYTE      DPS
      000000C2H   SFRSYM    DATA     BYTE      ISP_DATA
      00000084H   SFRSYM    DATA     BYTE      S4CON
      000000EFH   SFRSYM    DATA     BYTE      AUXINTIF
      000000B9H   SFRSYM    DATA     BYTE      SADEN
      000000A9H   SFRSYM    DATA     BYTE      SADDR
      000000C6H   SFRSYM    DATA     BYTE      IAP_TRIG
      00000097H   SFRSYM    DATA     BYTE      AUXR2
      000000D0H.5 SFRSYM    DATA     BIT       F0
      000000D0H   SFRSYM    DATA     BYTE      PSW
      000000D8H.0 SFRSYM    DATA     BIT       CCF0
      000000D8H.1 SFRSYM    DATA     BIT       CCF1
      000000CFH   SFRSYM    DATA     BYTE      SPDAT
      00000094H   SFRSYM    DATA     BYTE      P0M0
      01001948H   SYMBOL    CODE     ---       DS18B20ReadByte
      01001A89H   SYMBOL    CODE     ---       DS18B20Init
      01001A5CH   SYMBOL    CODE     ---       _DS18B20WriteByte

      01001982H   BLOCK     CODE     ---       LVL=0
      ---         BLOCKEND  ---      ---       LVL=0

      01001550H   BLOCK     CODE     ---       LVL=0
      01001550H   BLOCK     CODE     NEAR LAB  LVL=1
      00000007H   SYMBOL    DATA     BYTE      Temp
      00000022H   SYMBOL    DATA     BYTE      TH
      00000023H   SYMBOL    DATA     BYTE      TL
      ---         BLOCKEND  ---      ---       LVL=1
      01001550H   LINE      CODE     ---       #11
      01001550H   LINE      CODE     ---       #12
      01001550H   LINE      CODE     ---       #14
      0100155FH   LINE      CODE     ---       #15
      01001567H   LINE      CODE     ---       #16
      01001567H   LINE      CODE     ---       #21
      01001567H   LINE      CODE     ---       #22
      0100156CH   LINE      CODE     ---       #23
      01001571H   LINE      CODE     ---       #24
      01001577H   LINE      CODE     ---       #25
      01001581H   LINE      CODE     ---       #26
      01001584H   LINE      CODE     ---       #27
      01001592H   LINE      CODE     ---       #28
      010015A9H   LINE      CODE     ---       #29
      010015CBH   LINE      CODE     ---       #30
      010015E3H   LINE      CODE     ---       #31
      01001602H   LINE      CODE     ---       #32
      01001605H   LINE      CODE     ---       #33
      01001615H   LINE      CODE     ---       #34
      01001615H   LINE      CODE     ---       #35
      01001615H   LINE      CODE     ---       #36
      01001618H   LINE      CODE     ---       #37
      0100161AH   LINE      CODE     ---       #38
      0100161AH   LINE      CODE     ---       #39
      0100161DH   LINE      CODE     ---       #40
      0100161FH   LINE      CODE     ---       #41
      0100161FH   LINE      CODE     ---       #42
      01001622H   LINE      CODE     ---       #43
      01001624H   LINE      CODE     ---       #44
      01001624H   LINE      CODE     ---       #45
      01001627H   LINE      CODE     ---       #46
      01001627H   LINE      CODE     ---       #47
      01001627H   LINE      CODE     ---       #48
LX51 LINKER/LOCATER V4.66.93.0                                                        04/15/2020  14:21:01  PAGE 41


      0100162AH   LINE      CODE     ---       #58
      ---         BLOCKEND  ---      ---       LVL=0

      01001B58H   BLOCK     CODE     ---       LVL=0
      01001B58H   LINE      CODE     ---       #74
      01001B58H   LINE      CODE     ---       #75
      01001B58H   LINE      CODE     ---       #76
      01001B5DH   LINE      CODE     ---       #77
      01001B5EH   LINE      CODE     ---       #78
      01001B63H   LINE      CODE     ---       #79
      01001B68H   LINE      CODE     ---       #80
      01001B69H   LINE      CODE     ---       #81
      ---         BLOCKEND  ---      ---       LVL=0

      01001008H   BLOCK     CODE     ---       LVL=0
      01001008H   BLOCK     CODE     NEAR LAB  LVL=1
      02000000H   SYMBOL    PDATA    BYTE      H
      02000001H   SYMBOL    PDATA    BYTE      L
      02000002H   SYMBOL    PDATA    WORD      T
      02000004H   SYMBOL    PDATA    WORD      Base
      ---         BLOCKEND  ---      ---       LVL=1
      01001008H   LINE      CODE     ---       #82
      01001008H   LINE      CODE     ---       #83
      01001008H   LINE      CODE     ---       #85
      01001011H   LINE      CODE     ---       #86
      01001034H   LINE      CODE     ---       #87
      01001039H   LINE      CODE     ---       #88
      0100103AH   LINE      CODE     ---       #89
      0100103FH   LINE      CODE     ---       #90
      01001044H   LINE      CODE     ---       #91
      01001052H   LINE      CODE     ---       #92
      0100106CH   LINE      CODE     ---       #93
      01001088H   LINE      CODE     ---       #94
      01001096H   LINE      CODE     ---       #95
      01001096H   LINE      CODE     ---       #96
      010010A9H   LINE      CODE     ---       #97
      010010BBH   LINE      CODE     ---       #98
      010010BDH   LINE      CODE     ---       #100
      010010CDH   LINE      CODE     ---       #101
      010010EBH   LINE      CODE     ---       #102
      010010EBH   LINE      CODE     ---       #103
      010010FCH   LINE      CODE     ---       #104
      01001103H   LINE      CODE     ---       #105
      01001117H   LINE      CODE     ---       #106
      01001120H   LINE      CODE     ---       #107
      01001132H   LINE      CODE     ---       #108
      0100113EH   LINE      CODE     ---       #109
      0100114DH   LINE      CODE     ---       #110
      01001156H   LINE      CODE     ---       #111
      0100116BH   LINE      CODE     ---       #112
      01001174H   LINE      CODE     ---       #113
      01001174H   LINE      CODE     ---       #114
      01001175H   LINE      CODE     ---       #115
      ---         BLOCKEND  ---      ---       LVL=0

      01001A89H   BLOCK     CODE     ---       LVL=0
      01001A89H   BLOCK     CODE     NEAR LAB  LVL=1
      02000006H   SYMBOL    PDATA    BYTE      i
      ---         BLOCKEND  ---      ---       LVL=1
      01001A89H   LINE      CODE     ---       #117
      01001A89H   LINE      CODE     ---       #118
      01001A89H   LINE      CODE     ---       #119
      01001A8EH   LINE      CODE     ---       #120
      01001A95H   LINE      CODE     ---       #121
      01001A9AH   LINE      CODE     ---       #123
LX51 LINKER/LOCATER V4.66.93.0                                                        04/15/2020  14:21:01  PAGE 42


      01001A9AH   LINE      CODE     ---       #124
      01001A9DH   LINE      CODE     ---       #125
      01001AA7H   LINE      CODE     ---       #126
      01001AACH   LINE      CODE     ---       #127
      01001AACH   LINE      CODE     ---       #131
      01001AAEH   LINE      CODE     ---       #132
      01001AAEH   LINE      CODE     ---       #133
      01001AB0H   LINE      CODE     ---       #134
      01001AB3H   LINE      CODE     ---       #135
      01001AB4H   LINE      CODE     ---       #136
      ---         BLOCKEND  ---      ---       LVL=0

      01001A5CH   BLOCK     CODE     ---       LVL=0
      00000024H   SYMBOL    DATA     BYTE      Byte
      01001A5EH   BLOCK     CODE     NEAR LAB  LVL=1
      02000006H   SYMBOL    PDATA    BYTE      i
      ---         BLOCKEND  ---      ---       LVL=1
      01001A5CH   LINE      CODE     ---       #137
      01001A5EH   LINE      CODE     ---       #138
      01001A5EH   LINE      CODE     ---       #140
      01001A69H   LINE      CODE     ---       #141
      01001A69H   LINE      CODE     ---       #142
      01001A6BH   LINE      CODE     ---       #143
      01001A6EH   LINE      CODE     ---       #144
      01001A73H   LINE      CODE     ---       #145
      01001A76H   LINE      CODE     ---       #146
      01001A78H   LINE      CODE     ---       #147
      01001A7BH   LINE      CODE     ---       #148
      01001A88H   LINE      CODE     ---       #149
      ---         BLOCKEND  ---      ---       LVL=0

      01001948H   BLOCK     CODE     ---       LVL=0
      01001948H   BLOCK     CODE     NEAR LAB  LVL=1
      02000006H   SYMBOL    PDATA    BYTE      i
      02000007H   SYMBOL    PDATA    BYTE      re
      ---         BLOCKEND  ---      ---       LVL=1
      01001948H   LINE      CODE     ---       #150
      01001948H   LINE      CODE     ---       #151
      01001948H   LINE      CODE     ---       #153
      0100194AH   LINE      CODE     ---       #154
      0100194DH   LINE      CODE     ---       #155
      0100195AH   LINE      CODE     ---       #156
      0100195AH   LINE      CODE     ---       #157
      01001960H   LINE      CODE     ---       #158
      01001962H   LINE      CODE     ---       #159
      01001965H   LINE      CODE     ---       #160
      01001967H   LINE      CODE     ---       #161
      0100196AH   LINE      CODE     ---       #162
      0100196DH   LINE      CODE     ---       #163
      01001973H   LINE      CODE     ---       #164
      01001976H   LINE      CODE     ---       #165
      0100197DH   LINE      CODE     ---       #166
      01001981H   LINE      CODE     ---       #167
      ---         BLOCKEND  ---      ---       LVL=0

      ---         MODULE    ---      ---       LCD1602
      01001FC2H   PUBLIC    CONST    ---       LCD1602Word_Heart
      01001FBAH   PUBLIC    CONST    ---       LCD1602Word_Temperature
      00000020H.2 PUBLIC    BIT      BIT       ?_LCD1602WriteCmdOrData?BIT
      01001B45H   PUBLIC    CODE     ---       _LCD1602WriteCmdOrData
      01001C1BH   PUBLIC    CODE     ---       _LCD1602SetDDRAM
      00000020H.1 PUBLIC    BIT      BIT       ?_LCD1602WriteLine?BIT
      010019BAH   PUBLIC    CODE     ---       _LCD1602WriteLine
      010018BAH   PUBLIC    CODE     ---       LCD1602Init
      000000D8H.2 SFRSYM    DATA     BIT       CCF2
LX51 LINKER/LOCATER V4.66.93.0                                                        04/15/2020  14:21:01  PAGE 43


      00000092H   SFRSYM    DATA     BYTE      P1M0
      00000093H   SFRSYM    DATA     BYTE      P0M1
      000000D8H.3 SFRSYM    DATA     BIT       CCF3
      00000096H   SFRSYM    DATA     BYTE      P2M0
      00000091H   SFRSYM    DATA     BYTE      P1M1
      00000080H   SFRSYM    DATA     BYTE      P0
      000000B2H   SFRSYM    DATA     BYTE      P3M0
      00000095H   SFRSYM    DATA     BYTE      P2M1
      00000090H   SFRSYM    DATA     BYTE      P1
      000000B4H   SFRSYM    DATA     BYTE      P4M0
      000000B1H   SFRSYM    DATA     BYTE      P3M1
      000000A0H   SFRSYM    DATA     BYTE      P2
      000000ABH   SFRSYM    DATA     BYTE      WKTCH
      000000CAH   SFRSYM    DATA     BYTE      P5M0
      000000B3H   SFRSYM    DATA     BYTE      P4M1
      000000B0H   SFRSYM    DATA     BYTE      P3
      000000CCH   SFRSYM    DATA     BYTE      P6M0
      000000C9H   SFRSYM    DATA     BYTE      P5M1
      000000C0H   SFRSYM    DATA     BYTE      P4
      000000D0H.6 SFRSYM    DATA     BIT       AC
      000000F6H   SFRSYM    DATA     BYTE      PWMIF
      000000C6H   SFRSYM    DATA     BYTE      ISP_TRIG
      000000E2H   SFRSYM    DATA     BYTE      P7M0
      000000CBH   SFRSYM    DATA     BYTE      P6M1
      000000C8H   SFRSYM    DATA     BYTE      P5
      000000A8H.7 SFRSYM    DATA     BIT       EA
      000000E1H   SFRSYM    DATA     BYTE      P7M1
      000000E8H   SFRSYM    DATA     BYTE      P6
      000000AAH   SFRSYM    DATA     BYTE      WKTCL
      000000F8H   SFRSYM    DATA     BYTE      P7
      000000CEH   SFRSYM    DATA     BYTE      SPCTL
      000000D8H.7 SFRSYM    DATA     BIT       CF
      000000FEH   SFRSYM    DATA     BYTE      PWMCR
      000000F9H   SFRSYM    DATA     BYTE      CH
      000000A2H   SFRSYM    DATA     BYTE      P_SW1
      000000BAH   SFRSYM    DATA     BYTE      P_SW2
      000000A8H.5 SFRSYM    DATA     BIT       EADC
      000000A8H   SFRSYM    DATA     BYTE      IE
      000000E5H   SFRSYM    DATA     BYTE      DPH1
      000000E9H   SFRSYM    DATA     BYTE      CL
      000000C5H   SFRSYM    DATA     BYTE      IAP_CMD
      000000FAH   SFRSYM    DATA     BYTE      CCAP0H
      000000B0H.2 SFRSYM    DATA     BIT       LCD1602_EN
      00000090H.0 SFRSYM    DATA     BIT       LED_RED
      000000FBH   SFRSYM    DATA     BYTE      CCAP1H
      000000E4H   SFRSYM    DATA     BYTE      DPL1
      000000FCH   SFRSYM    DATA     BYTE      CCAP2H
      000000FDH   SFRSYM    DATA     BYTE      CCAP3H
      000000BDH   SFRSYM    DATA     BYTE      ADC_RES
      000000B6H   SFRSYM    DATA     BYTE      IP2H
      000000EAH   SFRSYM    DATA     BYTE      CCAP0L
      000000D8H.6 SFRSYM    DATA     BIT       CR
      000000AEH   SFRSYM    DATA     BYTE      TA
      000000F7H   SFRSYM    DATA     BYTE      PWMFDCR
      000000EBH   SFRSYM    DATA     BYTE      CCAP1L
      000000DAH   SFRSYM    DATA     BYTE      CCAPM0
      000000ECH   SFRSYM    DATA     BYTE      CCAP2L
      000000DBH   SFRSYM    DATA     BYTE      CCAPM1
      0000008FH   SFRSYM    DATA     BYTE      INTCLKO
      000000EDH   SFRSYM    DATA     BYTE      CCAP3L
      000000DCH   SFRSYM    DATA     BYTE      CCAPM2
      000000A8H.4 SFRSYM    DATA     BIT       ES
      000000DDH   SFRSYM    DATA     BYTE      CCAPM3
      000000B8H.5 SFRSYM    DATA     BIT       PADC
      000000B8H   SFRSYM    DATA     BYTE      IP
LX51 LINKER/LOCATER V4.66.93.0                                                        04/15/2020  14:21:01  PAGE 44


      000000DEH   SFRSYM    DATA     BYTE      ADCCFG
      000000B0H.6 SFRSYM    DATA     BIT       ESP8266_RST
      00000098H.0 SFRSYM    DATA     BIT       RI
      000000D0H.7 SFRSYM    DATA     BIT       CY
      00000098H.1 SFRSYM    DATA     BIT       TI
      000000C3H   SFRSYM    DATA     BYTE      IAP_ADDRH
      000000C0H.1 SFRSYM    DATA     BIT       DS18B20_DATA
      000000C5H   SFRSYM    DATA     BYTE      ISP_CMD
      000000B8H.4 SFRSYM    DATA     BIT       PS
      00000081H   SFRSYM    DATA     BYTE      SP
      000000A0H.7 SFRSYM    DATA     BIT       LCD1602_Busy
      000000B0H.5 SFRSYM    DATA     BIT       LCD1602_RS
      000000D9H   SFRSYM    DATA     BYTE      CMOD
      000000D8H   SFRSYM    DATA     BYTE      CCON
      000000C4H   SFRSYM    DATA     BYTE      IAP_ADDRL
      000000B8H.7 SFRSYM    DATA     BIT       PPCA
      000000D0H.2 SFRSYM    DATA     BIT       OV
      000000B0H.4 SFRSYM    DATA     BIT       LCD1602_RW
      000000E6H   SFRSYM    DATA     BYTE      CMPCR1
      00000090H.1 SFRSYM    DATA     BIT       LED_GREEN
      000000E7H   SFRSYM    DATA     BYTE      CMPCR2
      000000A8H.6 SFRSYM    DATA     BIT       ELVD
      00000080H.0 SFRSYM    DATA     BIT       P00
      000000BCH   SFRSYM    DATA     BYTE      ADC_CONTR
      00000099H   SFRSYM    DATA     BYTE      SBUF
      00000087H   SFRSYM    DATA     BYTE      PCON
      00000090H.0 SFRSYM    DATA     BIT       P10
      00000080H.1 SFRSYM    DATA     BIT       P01
      000000C3H   SFRSYM    DATA     BYTE      ISP_ADDRH
      000000A0H.0 SFRSYM    DATA     BIT       P20
      00000090H.1 SFRSYM    DATA     BIT       P11
      00000080H.2 SFRSYM    DATA     BIT       P02
      000000B0H.0 SFRSYM    DATA     BIT       P30
      000000A0H.1 SFRSYM    DATA     BIT       P21
      00000090H.2 SFRSYM    DATA     BIT       P12
      00000080H.3 SFRSYM    DATA     BIT       P03
      00000098H   SFRSYM    DATA     BYTE      SCON
      000000C0H.0 SFRSYM    DATA     BIT       P40
      000000B0H.1 SFRSYM    DATA     BIT       P31
      000000A0H.2 SFRSYM    DATA     BIT       P22
      00000090H.3 SFRSYM    DATA     BIT       P13
      00000080H.4 SFRSYM    DATA     BIT       P04
      00000089H   SFRSYM    DATA     BYTE      TMOD
      00000088H   SFRSYM    DATA     BYTE      TCON
      000000C8H.0 SFRSYM    DATA     BIT       P50
      000000C0H.1 SFRSYM    DATA     BIT       P41
      000000B0H.2 SFRSYM    DATA     BIT       P32
      000000A0H.3 SFRSYM    DATA     BIT       P23
      00000090H.4 SFRSYM    DATA     BIT       P14
      00000080H.5 SFRSYM    DATA     BIT       P05
      000000C4H   SFRSYM    DATA     BYTE      ISP_ADDRL
      000000E8H.0 SFRSYM    DATA     BIT       P60
      000000C8H.1 SFRSYM    DATA     BIT       P51
      000000C0H.2 SFRSYM    DATA     BIT       P42
      000000B0H.3 SFRSYM    DATA     BIT       P33
      000000A0H.4 SFRSYM    DATA     BIT       P24
      00000090H.5 SFRSYM    DATA     BIT       P15
      00000080H.6 SFRSYM    DATA     BIT       P06
      000000B8H.6 SFRSYM    DATA     BIT       PLVD
      000000F8H.0 SFRSYM    DATA     BIT       P70
      000000E8H.1 SFRSYM    DATA     BIT       P61
      000000C8H.2 SFRSYM    DATA     BIT       P52
      000000C0H.3 SFRSYM    DATA     BIT       P43
      000000B0H.4 SFRSYM    DATA     BIT       P34
      000000A0H.5 SFRSYM    DATA     BIT       P25
LX51 LINKER/LOCATER V4.66.93.0                                                        04/15/2020  14:21:01  PAGE 45


      00000090H.6 SFRSYM    DATA     BIT       P16
      00000080H.7 SFRSYM    DATA     BIT       P07
      000000F8H.1 SFRSYM    DATA     BIT       P71
      000000E8H.2 SFRSYM    DATA     BIT       P62
      000000C8H.3 SFRSYM    DATA     BIT       P53
      000000C0H.4 SFRSYM    DATA     BIT       P44
      000000B0H.5 SFRSYM    DATA     BIT       P35
      000000A0H.6 SFRSYM    DATA     BIT       P26
      00000090H.7 SFRSYM    DATA     BIT       P17
      000000F8H.2 SFRSYM    DATA     BIT       P72
      000000E8H.3 SFRSYM    DATA     BIT       P63
      000000C8H.4 SFRSYM    DATA     BIT       P54
      000000C0H.5 SFRSYM    DATA     BIT       P45
      000000B0H.6 SFRSYM    DATA     BIT       P36
      000000A0H.7 SFRSYM    DATA     BIT       P27
      000000F8H.3 SFRSYM    DATA     BIT       P73
      000000E8H.4 SFRSYM    DATA     BIT       P64
      000000C8H.5 SFRSYM    DATA     BIT       P55
      000000C0H.6 SFRSYM    DATA     BIT       P46
      000000B0H.7 SFRSYM    DATA     BIT       P37
      000000F8H.4 SFRSYM    DATA     BIT       P74
      000000E8H.5 SFRSYM    DATA     BIT       P65
      000000C8H.6 SFRSYM    DATA     BIT       P56
      000000C0H.7 SFRSYM    DATA     BIT       P47
      000000F8H.5 SFRSYM    DATA     BIT       P75
      000000E8H.6 SFRSYM    DATA     BIT       P66
      000000C8H.7 SFRSYM    DATA     BIT       P57
      000000F8H.6 SFRSYM    DATA     BIT       P76
      000000E8H.7 SFRSYM    DATA     BIT       P67
      00000088H.1 SFRSYM    DATA     BIT       IE0
      000000A1H   SFRSYM    DATA     BYTE      BUS_SPEED
      000000F8H.7 SFRSYM    DATA     BIT       P77
      00000088H.3 SFRSYM    DATA     BIT       IE1
      000000AFH   SFRSYM    DATA     BYTE      IE2
      0000008EH   SFRSYM    DATA     BYTE      AUXR
      000000F0H   SFRSYM    DATA     BYTE      B
      000000C7H   SFRSYM    DATA     BYTE      IAP_CONTR
      000000F1H   SFRSYM    DATA     BYTE      PWMCFG
      000000E0H   SFRSYM    DATA     BYTE      ACC
      000000A8H.1 SFRSYM    DATA     BIT       ET0
      00000088H.5 SFRSYM    DATA     BIT       TF0
      000000A8H.3 SFRSYM    DATA     BIT       ET1
      00000088H.7 SFRSYM    DATA     BIT       TF1
      000000B5H   SFRSYM    DATA     BYTE      IP2
      000000FFH   SFRSYM    DATA     BYTE      RSTCFG
      00000098H.2 SFRSYM    DATA     BIT       RB8
      0000008CH   SFRSYM    DATA     BYTE      TH0
      0000008DH   SFRSYM    DATA     BYTE      TH1
      00000088H.0 SFRSYM    DATA     BIT       IT0
      000000A8H.0 SFRSYM    DATA     BIT       EX0
      00000098H.3 SFRSYM    DATA     BIT       TB8
      000000D6H   SFRSYM    DATA     BYTE      TH2
      000000D6H   SFRSYM    DATA     BYTE      T2H
      00000088H.2 SFRSYM    DATA     BIT       IT1
      000000A8H.2 SFRSYM    DATA     BIT       EX1
      000000D4H   SFRSYM    DATA     BYTE      TH3
      000000D4H   SFRSYM    DATA     BYTE      T3H
      000000D0H.0 SFRSYM    DATA     BIT       P
      00000098H.7 SFRSYM    DATA     BIT       SM0
      000000D2H   SFRSYM    DATA     BYTE      TH4
      000000D2H   SFRSYM    DATA     BYTE      T4H
      0000008AH   SFRSYM    DATA     BYTE      TL0
      00000098H.6 SFRSYM    DATA     BIT       SM1
      0000008BH   SFRSYM    DATA     BYTE      TL1
      00000098H.5 SFRSYM    DATA     BIT       SM2
LX51 LINKER/LOCATER V4.66.93.0                                                        04/15/2020  14:21:01  PAGE 46


      000000D7H   SFRSYM    DATA     BYTE      TL2
      000000D7H   SFRSYM    DATA     BYTE      T2L
      000000D5H   SFRSYM    DATA     BYTE      TL3
      000000D5H   SFRSYM    DATA     BYTE      T3L
      000000D3H   SFRSYM    DATA     BYTE      TL4
      000000D3H   SFRSYM    DATA     BYTE      T4L
      000000B8H.1 SFRSYM    DATA     BIT       PT0
      000000C7H   SFRSYM    DATA     BYTE      ISP_CONTR
      000000B8H.3 SFRSYM    DATA     BIT       PT1
      000000D0H.3 SFRSYM    DATA     BIT       RS0
      000000C2H   SFRSYM    DATA     BYTE      IAP_DATA
      00000088H.4 SFRSYM    DATA     BIT       TR0
      000000D0H.4 SFRSYM    DATA     BIT       RS1
      00000088H.6 SFRSYM    DATA     BIT       TR1
      000000C1H   SFRSYM    DATA     BYTE      WDT_CONTR
      000000B8H.0 SFRSYM    DATA     BIT       PX0
      000000B8H.2 SFRSYM    DATA     BIT       PX1
      000000F2H   SFRSYM    DATA     BYTE      PCA_PWM0
      000000F3H   SFRSYM    DATA     BYTE      PCA_PWM1
      000000F4H   SFRSYM    DATA     BYTE      PCA_PWM2
      000000BBH   SFRSYM    DATA     BYTE      VOCTRL
      00000083H   SFRSYM    DATA     BYTE      DPH
      000000F5H   SFRSYM    DATA     BYTE      PCA_PWM3
      000000D1H   SFRSYM    DATA     BYTE      T4T3M
      00000080H.7 SFRSYM    DATA     BIT       LED_BLUE
      000000BEH   SFRSYM    DATA     BYTE      ADC_RESL
      00000082H   SFRSYM    DATA     BYTE      DPL
      000000CDH   SFRSYM    DATA     BYTE      SPSTAT
      000000B7H   SFRSYM    DATA     BYTE      IPH
      0000009BH   SFRSYM    DATA     BYTE      S2BUF
      000000ADH   SFRSYM    DATA     BYTE      S3BUF
      00000085H   SFRSYM    DATA     BYTE      S4BUF
      00000098H.4 SFRSYM    DATA     BIT       REN
      0000009AH   SFRSYM    DATA     BYTE      S2CON
      000000ACH   SFRSYM    DATA     BYTE      S3CON
      000000E3H   SFRSYM    DATA     BYTE      DPS
      000000C2H   SFRSYM    DATA     BYTE      ISP_DATA
      00000084H   SFRSYM    DATA     BYTE      S4CON
      000000EFH   SFRSYM    DATA     BYTE      AUXINTIF
      000000B9H   SFRSYM    DATA     BYTE      SADEN
      000000A9H   SFRSYM    DATA     BYTE      SADDR
      000000C6H   SFRSYM    DATA     BYTE      IAP_TRIG
      00000097H   SFRSYM    DATA     BYTE      AUXR2
      000000D0H.5 SFRSYM    DATA     BIT       F0
      000000D0H   SFRSYM    DATA     BYTE      PSW
      000000D8H.0 SFRSYM    DATA     BIT       CCF0
      000000D8H.1 SFRSYM    DATA     BIT       CCF1
      000000CFH   SFRSYM    DATA     BYTE      SPDAT
      00000094H   SFRSYM    DATA     BYTE      P0M0
      0100000EH   SYMBOL    CODE     ---       LCD1602Wait
      01001B6AH   SYMBOL    CODE     ---       _LCD1602SetCGRAM
      010019F1H   SYMBOL    CODE     ---       _LCD1602LoadWord

      010018BAH   BLOCK     CODE     ---       LVL=0
      010018BAH   LINE      CODE     ---       #11
      010018BAH   LINE      CODE     ---       #12
      010018BAH   LINE      CODE     ---       #13
      010018BCH   LINE      CODE     ---       #14
      010018C3H   LINE      CODE     ---       #15
      010018CAH   LINE      CODE     ---       #16
      010018D1H   LINE      CODE     ---       #17
      010018D8H   LINE      CODE     ---       #19
      010018E3H   LINE      CODE     ---       #20
      010018EEH   LINE      CODE     ---       #21
      010018F9H   LINE      CODE     ---       #22
LX51 LINKER/LOCATER V4.66.93.0                                                        04/15/2020  14:21:01  PAGE 47


      ---         BLOCKEND  ---      ---       LVL=0

      010019BAH   BLOCK     CODE     ---       LVL=0
      00000022H   SYMBOL    DATA     ---       Str
      00000020H.1 SYMBOL    BIT      BIT       isLine2
      010019C0H   BLOCK     CODE     NEAR LAB  LVL=1
      00000025H   SYMBOL    DATA     BYTE      i
      ---         BLOCKEND  ---      ---       LVL=1
      010019BAH   LINE      CODE     ---       #27
      010019C0H   LINE      CODE     ---       #28
      010019C0H   LINE      CODE     ---       #30
      010019CCH   LINE      CODE     ---       #31
      010019E7H   LINE      CODE     ---       #32
      010019F0H   LINE      CODE     ---       #33
      ---         BLOCKEND  ---      ---       LVL=0
      00000007H   SYMBOL    DATA     BYTE      Idx
      00000007H   SYMBOL    DATA     BYTE      Data

      01001C1BH   BLOCK     CODE     ---       LVL=0
      00000007H   SYMBOL    DATA     BYTE      idx
      01001C1BH   LINE      CODE     ---       #60
      01001C1BH   LINE      CODE     ---       #61
      01001C1BH   LINE      CODE     ---       #62
      01001C1EH   LINE      CODE     ---       #63
      ---         BLOCKEND  ---      ---       LVL=0

      01001B45H   BLOCK     CODE     ---       LVL=0
      00000027H   SYMBOL    DATA     BYTE      CmdOrData
      00000020H.2 SYMBOL    BIT      BIT       isData
      01001B45H   LINE      CODE     ---       #65
      01001B47H   LINE      CODE     ---       #66
      01001B47H   LINE      CODE     ---       #67
      01001B4AH   LINE      CODE     ---       #68
      01001B4EH   LINE      CODE     ---       #69
      01001B50H   LINE      CODE     ---       #70
      01001B53H   LINE      CODE     ---       #71
      01001B55H   LINE      CODE     ---       #72
      01001B57H   LINE      CODE     ---       #73
      ---         BLOCKEND  ---      ---       LVL=0

      010019F1H   BLOCK     CODE     ---       LVL=0
      00000022H   SYMBOL    DATA     BYTE      Idx
      00000023H   SYMBOL    DATA     ---       Word
      010019F9H   BLOCK     CODE     NEAR LAB  LVL=1
      00000026H   SYMBOL    DATA     BYTE      i
      ---         BLOCKEND  ---      ---       LVL=1
      010019F1H   LINE      CODE     ---       #75
      010019F9H   LINE      CODE     ---       #76
      010019F9H   LINE      CODE     ---       #78
      010019FCH   LINE      CODE     ---       #79
      01001A01H   LINE      CODE     ---       #80
      01001A04H   LINE      CODE     ---       #81
      01001A0DH   LINE      CODE     ---       #82
      01001A26H   LINE      CODE     ---       #83
      ---         BLOCKEND  ---      ---       LVL=0

      01001B6AH   BLOCK     CODE     ---       LVL=0
      00000007H   SYMBOL    DATA     BYTE      idx
      01001B6AH   LINE      CODE     ---       #84
      01001B6AH   LINE      CODE     ---       #85
      01001B6AH   LINE      CODE     ---       #86
      01001B77H   LINE      CODE     ---       #87
      ---         BLOCKEND  ---      ---       LVL=0

      0100000EH   BLOCK     CODE     ---       LVL=0
LX51 LINKER/LOCATER V4.66.93.0                                                        04/15/2020  14:21:01  PAGE 48


      0100000EH   BLOCK     CODE     NEAR LAB  LVL=1
      00000020H.3 SYMBOL    BIT      BIT       isBusy
      ---         BLOCKEND  ---      ---       LVL=1
      0100000EH   LINE      CODE     ---       #89
      0100000EH   LINE      CODE     ---       #90
      0100000EH   LINE      CODE     ---       #92
      01000010H   LINE      CODE     ---       #93
      01000012H   LINE      CODE     ---       #95
      01000012H   LINE      CODE     ---       #96
      01000014H   LINE      CODE     ---       #97
      01000016H   LINE      CODE     ---       #98
      01000019H   LINE      CODE     ---       #99
      0100001DH   LINE      CODE     ---       #100
      0100001FH   LINE      CODE     ---       #101
      01000022H   LINE      CODE     ---       #102
      ---         BLOCKEND  ---      ---       LVL=0

      ---         MODULE    ---      ---       CLOUDHANDLE
      0200006CH   PUBLIC    XDATA    ---       CloudAct
      01000E76H   PUBLIC    CODE     ---       CloudInit
      01001473H   PUBLIC    CODE     ---       CloudLoop
      000000D8H.2 SFRSYM    DATA     BIT       CCF2
      00000092H   SFRSYM    DATA     BYTE      P1M0
      00000093H   SFRSYM    DATA     BYTE      P0M1
      000000D8H.3 SFRSYM    DATA     BIT       CCF3
      00000096H   SFRSYM    DATA     BYTE      P2M0
      00000091H   SFRSYM    DATA     BYTE      P1M1
      00000080H   SFRSYM    DATA     BYTE      P0
      000000B2H   SFRSYM    DATA     BYTE      P3M0
      00000095H   SFRSYM    DATA     BYTE      P2M1
      00000090H   SFRSYM    DATA     BYTE      P1
      000000B4H   SFRSYM    DATA     BYTE      P4M0
      000000B1H   SFRSYM    DATA     BYTE      P3M1
      000000A0H   SFRSYM    DATA     BYTE      P2
      000000ABH   SFRSYM    DATA     BYTE      WKTCH
      000000CAH   SFRSYM    DATA     BYTE      P5M0
      000000B3H   SFRSYM    DATA     BYTE      P4M1
      000000B0H   SFRSYM    DATA     BYTE      P3
      000000CCH   SFRSYM    DATA     BYTE      P6M0
      000000C9H   SFRSYM    DATA     BYTE      P5M1
      000000C0H   SFRSYM    DATA     BYTE      P4
      000000D0H.6 SFRSYM    DATA     BIT       AC
      000000F6H   SFRSYM    DATA     BYTE      PWMIF
      000000C6H   SFRSYM    DATA     BYTE      ISP_TRIG
      000000E2H   SFRSYM    DATA     BYTE      P7M0
      000000CBH   SFRSYM    DATA     BYTE      P6M1
      000000C8H   SFRSYM    DATA     BYTE      P5
      000000A8H.7 SFRSYM    DATA     BIT       EA
      000000E1H   SFRSYM    DATA     BYTE      P7M1
      000000E8H   SFRSYM    DATA     BYTE      P6
      000000AAH   SFRSYM    DATA     BYTE      WKTCL
      000000F8H   SFRSYM    DATA     BYTE      P7
      000000CEH   SFRSYM    DATA     BYTE      SPCTL
      000000D8H.7 SFRSYM    DATA     BIT       CF
      000000FEH   SFRSYM    DATA     BYTE      PWMCR
      000000F9H   SFRSYM    DATA     BYTE      CH
      000000A2H   SFRSYM    DATA     BYTE      P_SW1
      000000BAH   SFRSYM    DATA     BYTE      P_SW2
      000000A8H.5 SFRSYM    DATA     BIT       EADC
      000000A8H   SFRSYM    DATA     BYTE      IE
      000000E5H   SFRSYM    DATA     BYTE      DPH1
      000000E9H   SFRSYM    DATA     BYTE      CL
      000000C5H   SFRSYM    DATA     BYTE      IAP_CMD
      000000FAH   SFRSYM    DATA     BYTE      CCAP0H
      000000B0H.2 SFRSYM    DATA     BIT       LCD1602_EN
LX51 LINKER/LOCATER V4.66.93.0                                                        04/15/2020  14:21:01  PAGE 49


      00000090H.0 SFRSYM    DATA     BIT       LED_RED
      000000FBH   SFRSYM    DATA     BYTE      CCAP1H
      000000E4H   SFRSYM    DATA     BYTE      DPL1
      000000FCH   SFRSYM    DATA     BYTE      CCAP2H
      000000FDH   SFRSYM    DATA     BYTE      CCAP3H
      000000BDH   SFRSYM    DATA     BYTE      ADC_RES
      000000B6H   SFRSYM    DATA     BYTE      IP2H
      000000EAH   SFRSYM    DATA     BYTE      CCAP0L
      000000D8H.6 SFRSYM    DATA     BIT       CR
      000000AEH   SFRSYM    DATA     BYTE      TA
      000000F7H   SFRSYM    DATA     BYTE      PWMFDCR
      000000EBH   SFRSYM    DATA     BYTE      CCAP1L
      000000DAH   SFRSYM    DATA     BYTE      CCAPM0
      000000ECH   SFRSYM    DATA     BYTE      CCAP2L
      000000DBH   SFRSYM    DATA     BYTE      CCAPM1
      0000008FH   SFRSYM    DATA     BYTE      INTCLKO
      000000EDH   SFRSYM    DATA     BYTE      CCAP3L
      000000DCH   SFRSYM    DATA     BYTE      CCAPM2
      000000A8H.4 SFRSYM    DATA     BIT       ES
      000000DDH   SFRSYM    DATA     BYTE      CCAPM3
      000000B8H.5 SFRSYM    DATA     BIT       PADC
      000000B8H   SFRSYM    DATA     BYTE      IP
      000000DEH   SFRSYM    DATA     BYTE      ADCCFG
      000000B0H.6 SFRSYM    DATA     BIT       ESP8266_RST
      00000098H.0 SFRSYM    DATA     BIT       RI
      000000D0H.7 SFRSYM    DATA     BIT       CY
      00000098H.1 SFRSYM    DATA     BIT       TI
      000000C3H   SFRSYM    DATA     BYTE      IAP_ADDRH
      000000C0H.1 SFRSYM    DATA     BIT       DS18B20_DATA
      000000C5H   SFRSYM    DATA     BYTE      ISP_CMD
      000000B8H.4 SFRSYM    DATA     BIT       PS
      00000081H   SFRSYM    DATA     BYTE      SP
      000000A0H.7 SFRSYM    DATA     BIT       LCD1602_Busy
      000000B0H.5 SFRSYM    DATA     BIT       LCD1602_RS
      000000D9H   SFRSYM    DATA     BYTE      CMOD
      000000D8H   SFRSYM    DATA     BYTE      CCON
      000000C4H   SFRSYM    DATA     BYTE      IAP_ADDRL
      000000B8H.7 SFRSYM    DATA     BIT       PPCA
      000000D0H.2 SFRSYM    DATA     BIT       OV
      000000B0H.4 SFRSYM    DATA     BIT       LCD1602_RW
      000000E6H   SFRSYM    DATA     BYTE      CMPCR1
      00000090H.1 SFRSYM    DATA     BIT       LED_GREEN
      000000E7H   SFRSYM    DATA     BYTE      CMPCR2
      000000A8H.6 SFRSYM    DATA     BIT       ELVD
      00000080H.0 SFRSYM    DATA     BIT       P00
      000000BCH   SFRSYM    DATA     BYTE      ADC_CONTR
      00000099H   SFRSYM    DATA     BYTE      SBUF
      00000087H   SFRSYM    DATA     BYTE      PCON
      00000090H.0 SFRSYM    DATA     BIT       P10
      00000080H.1 SFRSYM    DATA     BIT       P01
      000000C3H   SFRSYM    DATA     BYTE      ISP_ADDRH
      000000A0H.0 SFRSYM    DATA     BIT       P20
      00000090H.1 SFRSYM    DATA     BIT       P11
      00000080H.2 SFRSYM    DATA     BIT       P02
      000000B0H.0 SFRSYM    DATA     BIT       P30
      000000A0H.1 SFRSYM    DATA     BIT       P21
      00000090H.2 SFRSYM    DATA     BIT       P12
      00000080H.3 SFRSYM    DATA     BIT       P03
      00000098H   SFRSYM    DATA     BYTE      SCON
      000000C0H.0 SFRSYM    DATA     BIT       P40
      000000B0H.1 SFRSYM    DATA     BIT       P31
      000000A0H.2 SFRSYM    DATA     BIT       P22
      00000090H.3 SFRSYM    DATA     BIT       P13
      00000080H.4 SFRSYM    DATA     BIT       P04
      00000089H   SFRSYM    DATA     BYTE      TMOD
LX51 LINKER/LOCATER V4.66.93.0                                                        04/15/2020  14:21:01  PAGE 50


      00000088H   SFRSYM    DATA     BYTE      TCON
      000000C8H.0 SFRSYM    DATA     BIT       P50
      000000C0H.1 SFRSYM    DATA     BIT       P41
      000000B0H.2 SFRSYM    DATA     BIT       P32
      000000A0H.3 SFRSYM    DATA     BIT       P23
      00000090H.4 SFRSYM    DATA     BIT       P14
      00000080H.5 SFRSYM    DATA     BIT       P05
      000000C4H   SFRSYM    DATA     BYTE      ISP_ADDRL
      000000E8H.0 SFRSYM    DATA     BIT       P60
      000000C8H.1 SFRSYM    DATA     BIT       P51
      000000C0H.2 SFRSYM    DATA     BIT       P42
      000000B0H.3 SFRSYM    DATA     BIT       P33
      000000A0H.4 SFRSYM    DATA     BIT       P24
      00000090H.5 SFRSYM    DATA     BIT       P15
      00000080H.6 SFRSYM    DATA     BIT       P06
      000000B8H.6 SFRSYM    DATA     BIT       PLVD
      000000F8H.0 SFRSYM    DATA     BIT       P70
      000000E8H.1 SFRSYM    DATA     BIT       P61
      000000C8H.2 SFRSYM    DATA     BIT       P52
      000000C0H.3 SFRSYM    DATA     BIT       P43
      000000B0H.4 SFRSYM    DATA     BIT       P34
      000000A0H.5 SFRSYM    DATA     BIT       P25
      00000090H.6 SFRSYM    DATA     BIT       P16
      00000080H.7 SFRSYM    DATA     BIT       P07
      000000F8H.1 SFRSYM    DATA     BIT       P71
      000000E8H.2 SFRSYM    DATA     BIT       P62
      000000C8H.3 SFRSYM    DATA     BIT       P53
      000000C0H.4 SFRSYM    DATA     BIT       P44
      000000B0H.5 SFRSYM    DATA     BIT       P35
      000000A0H.6 SFRSYM    DATA     BIT       P26
      00000090H.7 SFRSYM    DATA     BIT       P17
      000000F8H.2 SFRSYM    DATA     BIT       P72
      000000E8H.3 SFRSYM    DATA     BIT       P63
      000000C8H.4 SFRSYM    DATA     BIT       P54
      000000C0H.5 SFRSYM    DATA     BIT       P45
      000000B0H.6 SFRSYM    DATA     BIT       P36
      000000A0H.7 SFRSYM    DATA     BIT       P27
      000000F8H.3 SFRSYM    DATA     BIT       P73
      000000E8H.4 SFRSYM    DATA     BIT       P64
      000000C8H.5 SFRSYM    DATA     BIT       P55
      000000C0H.6 SFRSYM    DATA     BIT       P46
      000000B0H.7 SFRSYM    DATA     BIT       P37
      000000F8H.4 SFRSYM    DATA     BIT       P74
      000000E8H.5 SFRSYM    DATA     BIT       P65
      000000C8H.6 SFRSYM    DATA     BIT       P56
      000000C0H.7 SFRSYM    DATA     BIT       P47
      000000F8H.5 SFRSYM    DATA     BIT       P75
      000000E8H.6 SFRSYM    DATA     BIT       P66
      000000C8H.7 SFRSYM    DATA     BIT       P57
      000000F8H.6 SFRSYM    DATA     BIT       P76
      000000E8H.7 SFRSYM    DATA     BIT       P67
      00000088H.1 SFRSYM    DATA     BIT       IE0
      000000A1H   SFRSYM    DATA     BYTE      BUS_SPEED
      000000F8H.7 SFRSYM    DATA     BIT       P77
      00000088H.3 SFRSYM    DATA     BIT       IE1
      000000AFH   SFRSYM    DATA     BYTE      IE2
      0000008EH   SFRSYM    DATA     BYTE      AUXR
      000000F0H   SFRSYM    DATA     BYTE      B
      000000C7H   SFRSYM    DATA     BYTE      IAP_CONTR
      000000F1H   SFRSYM    DATA     BYTE      PWMCFG
      000000E0H   SFRSYM    DATA     BYTE      ACC
      000000A8H.1 SFRSYM    DATA     BIT       ET0
      00000088H.5 SFRSYM    DATA     BIT       TF0
      000000A8H.3 SFRSYM    DATA     BIT       ET1
      00000088H.7 SFRSYM    DATA     BIT       TF1
LX51 LINKER/LOCATER V4.66.93.0                                                        04/15/2020  14:21:01  PAGE 51


      000000B5H   SFRSYM    DATA     BYTE      IP2
      000000FFH   SFRSYM    DATA     BYTE      RSTCFG
      00000098H.2 SFRSYM    DATA     BIT       RB8
      0000008CH   SFRSYM    DATA     BYTE      TH0
      0000008DH   SFRSYM    DATA     BYTE      TH1
      00000088H.0 SFRSYM    DATA     BIT       IT0
      000000A8H.0 SFRSYM    DATA     BIT       EX0
      00000098H.3 SFRSYM    DATA     BIT       TB8
      000000D6H   SFRSYM    DATA     BYTE      TH2
      000000D6H   SFRSYM    DATA     BYTE      T2H
      00000088H.2 SFRSYM    DATA     BIT       IT1
      000000A8H.2 SFRSYM    DATA     BIT       EX1
      000000D4H   SFRSYM    DATA     BYTE      TH3
      000000D4H   SFRSYM    DATA     BYTE      T3H
      000000D0H.0 SFRSYM    DATA     BIT       P
      00000098H.7 SFRSYM    DATA     BIT       SM0
      000000D2H   SFRSYM    DATA     BYTE      TH4
      000000D2H   SFRSYM    DATA     BYTE      T4H
      0000008AH   SFRSYM    DATA     BYTE      TL0
      00000098H.6 SFRSYM    DATA     BIT       SM1
      0000008BH   SFRSYM    DATA     BYTE      TL1
      00000098H.5 SFRSYM    DATA     BIT       SM2
      000000D7H   SFRSYM    DATA     BYTE      TL2
      000000D7H   SFRSYM    DATA     BYTE      T2L
      000000D5H   SFRSYM    DATA     BYTE      TL3
      000000D5H   SFRSYM    DATA     BYTE      T3L
      000000D3H   SFRSYM    DATA     BYTE      TL4
      000000D3H   SFRSYM    DATA     BYTE      T4L
      000000B8H.1 SFRSYM    DATA     BIT       PT0
      000000C7H   SFRSYM    DATA     BYTE      ISP_CONTR
      000000B8H.3 SFRSYM    DATA     BIT       PT1
      000000D0H.3 SFRSYM    DATA     BIT       RS0
      000000C2H   SFRSYM    DATA     BYTE      IAP_DATA
      00000088H.4 SFRSYM    DATA     BIT       TR0
      000000D0H.4 SFRSYM    DATA     BIT       RS1
      00000088H.6 SFRSYM    DATA     BIT       TR1
      000000C1H   SFRSYM    DATA     BYTE      WDT_CONTR
      000000B8H.0 SFRSYM    DATA     BIT       PX0
      000000B8H.2 SFRSYM    DATA     BIT       PX1
      000000F2H   SFRSYM    DATA     BYTE      PCA_PWM0
      000000F3H   SFRSYM    DATA     BYTE      PCA_PWM1
      000000F4H   SFRSYM    DATA     BYTE      PCA_PWM2
      000000BBH   SFRSYM    DATA     BYTE      VOCTRL
      00000083H   SFRSYM    DATA     BYTE      DPH
      000000F5H   SFRSYM    DATA     BYTE      PCA_PWM3
      000000D1H   SFRSYM    DATA     BYTE      T4T3M
      00000080H.7 SFRSYM    DATA     BIT       LED_BLUE
      000000BEH   SFRSYM    DATA     BYTE      ADC_RESL
      00000082H   SFRSYM    DATA     BYTE      DPL
      000000CDH   SFRSYM    DATA     BYTE      SPSTAT
      000000B7H   SFRSYM    DATA     BYTE      IPH
      0000009BH   SFRSYM    DATA     BYTE      S2BUF
      000000ADH   SFRSYM    DATA     BYTE      S3BUF
      00000085H   SFRSYM    DATA     BYTE      S4BUF
      00000098H.4 SFRSYM    DATA     BIT       REN
      0000009AH   SFRSYM    DATA     BYTE      S2CON
      000000ACH   SFRSYM    DATA     BYTE      S3CON
      000000E3H   SFRSYM    DATA     BYTE      DPS
      000000C2H   SFRSYM    DATA     BYTE      ISP_DATA
      00000084H   SFRSYM    DATA     BYTE      S4CON
      000000EFH   SFRSYM    DATA     BYTE      AUXINTIF
      000000B9H   SFRSYM    DATA     BYTE      SADEN
      000000A9H   SFRSYM    DATA     BYTE      SADDR
      000000C6H   SFRSYM    DATA     BYTE      IAP_TRIG
      00000097H   SFRSYM    DATA     BYTE      AUXR2
LX51 LINKER/LOCATER V4.66.93.0                                                        04/15/2020  14:21:01  PAGE 52


      000000D0H.5 SFRSYM    DATA     BIT       F0
      000000D0H   SFRSYM    DATA     BYTE      PSW
      000000D8H.0 SFRSYM    DATA     BIT       CCF0
      000000D8H.1 SFRSYM    DATA     BIT       CCF1
      000000CFH   SFRSYM    DATA     BYTE      SPDAT
      00000094H   SFRSYM    DATA     BYTE      P0M0
      02000008H   SYMBOL    XDATA    ---       CloudSendData
      01000AD2H   SYMBOL    CODE     ---       _CloudSend
      01000CC9H   SYMBOL    CODE     ---       CloudHandleReceive
      0200007FH   SYMBOL    XDATA    ---       CloudReceiveBuffer
      02000273H   SYMBOL    XDATA    WORD      CloudSendDataIdx
      02000275H   SYMBOL    XDATA    WORD      CloudSendIdx
      01001394H   SYMBOL    CODE     ---       _CloudReSend
      0100162BH   SYMBOL    CODE     ---       CloudReceive
      0000000CH   SYMBOL    DATA     BYTE      CloudReceiveState
      02000277H   SYMBOL    XDATA    ---       CloudSendBuffer
      0200046BH   SYMBOL    XDATA    WORD      CloudReceiveIdx
      0100129DH   SYMBOL    CODE     ---       _CloudReport

      01001176H   BLOCK     CODE     ---       LVL=0
      ---         BLOCKEND  ---      ---       LVL=0

      01001473H   BLOCK     CODE     ---       LVL=0
      01001473H   LINE      CODE     ---       #21
      01001473H   LINE      CODE     ---       #22
      01001473H   LINE      CODE     ---       #24
      0100147DH   LINE      CODE     ---       #25
      0100147DH   LINE      CODE     ---       #26
      01001480H   LINE      CODE     ---       #27
      01001485H   LINE      CODE     ---       #29
      01001496H   LINE      CODE     ---       #30
      0100149DH   LINE      CODE     ---       #31
      010014AFH   LINE      CODE     ---       #32
      010014B6H   LINE      CODE     ---       #34
      010014C5H   LINE      CODE     ---       #35
      010014CCH   LINE      CODE     ---       #36
      010014CCH   LINE      CODE     ---       #39
      01001504H   LINE      CODE     ---       #40
      01001515H   LINE      CODE     ---       #41
      0100153EH   LINE      CODE     ---       #42
      0100154FH   LINE      CODE     ---       #43
      ---         BLOCKEND  ---      ---       LVL=0

      01000E76H   BLOCK     CODE     ---       LVL=0
      01000E76H   LINE      CODE     ---       #44
      01000E76H   LINE      CODE     ---       #45
      01000E76H   LINE      CODE     ---       #46
      01000E85H   LINE      CODE     ---       #47
      01000E98H   LINE      CODE     ---       #49
      01000E9AH   LINE      CODE     ---       #50
      01000E9DH   LINE      CODE     ---       #51
      01000EA2H   LINE      CODE     ---       #52
      01000EA2H   LINE      CODE     ---       #53
      01000EA5H   LINE      CODE     ---       #54
      01000EA7H   LINE      CODE     ---       #55
      01000EACH   LINE      CODE     ---       #56
      01000EACH   LINE      CODE     ---       #57
      01000EAFH   LINE      CODE     ---       #62
      01000EAFH   LINE      CODE     ---       #63
      01000EAFH   LINE      CODE     ---       #68
      01000EB1H   LINE      CODE     ---       #69
      01000EB4H   LINE      CODE     ---       #70
      01000EB9H   LINE      CODE     ---       #71
      01000EB9H   LINE      CODE     ---       #72
      01000EBCH   LINE      CODE     ---       #73
LX51 LINKER/LOCATER V4.66.93.0                                                        04/15/2020  14:21:01  PAGE 53


      01000EBEH   LINE      CODE     ---       #74
      01000EC3H   LINE      CODE     ---       #75
      01000EC3H   LINE      CODE     ---       #76
      01000EC6H   LINE      CODE     ---       #81
      01000EC6H   LINE      CODE     ---       #82
      01000EC6H   LINE      CODE     ---       #87
      01000EC8H   LINE      CODE     ---       #88
      01000ECBH   LINE      CODE     ---       #89
      01000ED0H   LINE      CODE     ---       #90
      01000ED0H   LINE      CODE     ---       #91
      01000ED3H   LINE      CODE     ---       #92
      01000ED5H   LINE      CODE     ---       #93
      01000EDAH   LINE      CODE     ---       #94
      01000EDAH   LINE      CODE     ---       #95
      01000EDDH   LINE      CODE     ---       #100
      01000EDDH   LINE      CODE     ---       #101
      01000EDDH   LINE      CODE     ---       #106
      01000EE2H   LINE      CODE     ---       #107
      01000EE6H   LINE      CODE     ---       #108
      01000EEBH   LINE      CODE     ---       #109
      01000EEBH   LINE      CODE     ---       #110
      01000EEBH   LINE      CODE     ---       #111
      01000EEBH   LINE      CODE     ---       #112
      01000EF0H   LINE      CODE     ---       #113
      01000EF0H   LINE      CODE     ---       #114
      01000EF3H   LINE      CODE     ---       #119
      01000EF3H   LINE      CODE     ---       #120
      01000EF3H   LINE      CODE     ---       #125
      01000EF5H   LINE      CODE     ---       #126
      01000EF8H   LINE      CODE     ---       #127
      01000EFDH   LINE      CODE     ---       #128
      01000EFDH   LINE      CODE     ---       #129
      01000EFDH   LINE      CODE     ---       #130
      01000EFDH   LINE      CODE     ---       #131
      01000F02H   LINE      CODE     ---       #132
      01000F02H   LINE      CODE     ---       #133
      01000F05H   LINE      CODE     ---       #138
      01000F05H   LINE      CODE     ---       #139
      01000F05H   LINE      CODE     ---       #144
      01000F07H   LINE      CODE     ---       #145
      01000F0AH   LINE      CODE     ---       #146
      01000F0FH   LINE      CODE     ---       #147
      01000F0FH   LINE      CODE     ---       #148
      01000F0FH   LINE      CODE     ---       #149
      01000F0FH   LINE      CODE     ---       #150
      01000F14H   LINE      CODE     ---       #151
      01000F14H   LINE      CODE     ---       #152
      01000F16H   LINE      CODE     ---       #157
      01000F16H   LINE      CODE     ---       #158
      01000F16H   LINE      CODE     ---       #163
      01000F18H   LINE      CODE     ---       #164
      01000F1BH   LINE      CODE     ---       #165
      01000F20H   LINE      CODE     ---       #166
      01000F20H   LINE      CODE     ---       #167
      01000F20H   LINE      CODE     ---       #168
      01000F20H   LINE      CODE     ---       #169
      01000F25H   LINE      CODE     ---       #170
      01000F25H   LINE      CODE     ---       #171
      01000F27H   LINE      CODE     ---       #176
      01000F27H   LINE      CODE     ---       #177
      01000F27H   LINE      CODE     ---       #182
      01000F29H   LINE      CODE     ---       #183
      01000F2FH   LINE      CODE     ---       #184
      01000F34H   LINE      CODE     ---       #185
      01000F34H   LINE      CODE     ---       #186
LX51 LINKER/LOCATER V4.66.93.0                                                        04/15/2020  14:21:01  PAGE 54


      01000F34H   LINE      CODE     ---       #187
      01000F34H   LINE      CODE     ---       #188
      01000F39H   LINE      CODE     ---       #189
      01000F39H   LINE      CODE     ---       #190
      01000F3BH   LINE      CODE     ---       #195
      01000F3BH   LINE      CODE     ---       #196
      01000F3BH   LINE      CODE     ---       #201
      01000F3DH   LINE      CODE     ---       #202
      01000F43H   LINE      CODE     ---       #203
      01000F48H   LINE      CODE     ---       #204
      01000F48H   LINE      CODE     ---       #205
      01000F48H   LINE      CODE     ---       #206
      01000F48H   LINE      CODE     ---       #207
      01000F4DH   LINE      CODE     ---       #208
      01000F4DH   LINE      CODE     ---       #209
      01000F4FH   LINE      CODE     ---       #214
      01000F4FH   LINE      CODE     ---       #215
      01000F4FH   LINE      CODE     ---       #220
      01000F55H   LINE      CODE     ---       #221
      01000F5AH   LINE      CODE     ---       #222
      01000F5FH   LINE      CODE     ---       #223
      01000F5FH   LINE      CODE     ---       #224
      01000F62H   LINE      CODE     ---       #225
      01000F64H   LINE      CODE     ---       #226
      01000F69H   LINE      CODE     ---       #227
      01000F69H   LINE      CODE     ---       #228
      01000F6BH   LINE      CODE     ---       #233
      01000F6BH   LINE      CODE     ---       #234
      01000F6BH   LINE      CODE     ---       #239
      01000F6BH   LINE      CODE     ---       #240
      01000F6BH   LINE      CODE     ---       #241
      01000F71H   LINE      CODE     ---       #242
      01000F76H   LINE      CODE     ---       #243
      01000F76H   LINE      CODE     ---       #244
      01000F79H   LINE      CODE     ---       #245
      01000F7EH   LINE      CODE     ---       #246
      01000F8BH   LINE      CODE     ---       #247
      01000F8BH   LINE      CODE     ---       #248
      01000F8FH   LINE      CODE     ---       #253
      01000F8FH   LINE      CODE     ---       #254
      01000F8FH   LINE      CODE     ---       #259
      ---         BLOCKEND  ---      ---       LVL=0

      0100162BH   BLOCK     CODE     ---       LVL=0
      0100162BH   BLOCK     CODE     NEAR LAB  LVL=1
      00000025H   SYMBOL    DATA     WORD      idx1
      00000027H   SYMBOL    DATA     WORD      idx2
      ---         BLOCKEND  ---      ---       LVL=1
      0100162BH   LINE      CODE     ---       #261
      0100162BH   LINE      CODE     ---       #262
      0100162BH   LINE      CODE     ---       #263
      01001637H   LINE      CODE     ---       #264
      01001646H   LINE      CODE     ---       #265
      01001646H   LINE      CODE     ---       #266
      0100164EH   LINE      CODE     ---       #267
      0100164EH   LINE      CODE     ---       #268
      0100164EH   LINE      CODE     ---       #269
      01001655H   LINE      CODE     ---       #270
      01001658H   LINE      CODE     ---       #271
      0100165AH   LINE      CODE     ---       #272
      0100165AH   LINE      CODE     ---       #273
      01001661H   LINE      CODE     ---       #274
      01001661H   LINE      CODE     ---       #275
      01001670H   LINE      CODE     ---       #276
      01001670H   LINE      CODE     ---       #277
LX51 LINKER/LOCATER V4.66.93.0                                                        04/15/2020  14:21:01  PAGE 55


      01001685H   LINE      CODE     ---       #278
      01001688H   LINE      CODE     ---       #279
      01001688H   LINE      CODE     ---       #280
      0100168BH   LINE      CODE     ---       #281
      01001691H   LINE      CODE     ---       #282
      01001695H   LINE      CODE     ---       #283
      01001697H   LINE      CODE     ---       #285
      010016B3H   LINE      CODE     ---       #286
      010016B3H   LINE      CODE     ---       #287
      010016B3H   LINE      CODE     ---       #288
      010016C2H   LINE      CODE     ---       #289
      010016C9H   LINE      CODE     ---       #291
      010016D1H   LINE      CODE     ---       #292
      010016D7H   LINE      CODE     ---       #293
      010016DAH   LINE      CODE     ---       #294
      ---         BLOCKEND  ---      ---       LVL=0

      01000AD2H   BLOCK     CODE     ---       LVL=0
      00000023H   SYMBOL    DATA     BYTE      op
      01000AD4H   BLOCK     CODE     NEAR LAB  LVL=1
      02000001H   SYMBOL    PDATA    BYTE      i
      ---         BLOCKEND  ---      ---       LVL=1
      01000AD2H   LINE      CODE     ---       #295
      01000AD4H   LINE      CODE     ---       #296
      01000AD4H   LINE      CODE     ---       #297
      01000AD8H   LINE      CODE     ---       #298
      01000ADFH   LINE      CODE     ---       #299
      01000AE1H   LINE      CODE     ---       #300
      01000B1AH   LINE      CODE     ---       #301
      01000B35H   LINE      CODE     ---       #302
      01000B35H   LINE      CODE     ---       #303
      01000B35H   LINE      CODE     ---       #304
      01000B5BH   LINE      CODE     ---       #305
      01000B5BH   LINE      CODE     ---       #306
      01000B5BH   LINE      CODE     ---       #307
      01000B70H   LINE      CODE     ---       #308
      01000B73H   LINE      CODE     ---       #309
      01000B73H   LINE      CODE     ---       #310
      01000B88H   LINE      CODE     ---       #311
      01000B8BH   LINE      CODE     ---       #312
      01000B8BH   LINE      CODE     ---       #313
      01000B97H   LINE      CODE     ---       #314
      01000B9AH   LINE      CODE     ---       #315
      01000B9AH   LINE      CODE     ---       #316
      01000BA6H   LINE      CODE     ---       #317
      01000BA9H   LINE      CODE     ---       #318
      01000BA9H   LINE      CODE     ---       #319
      01000BB5H   LINE      CODE     ---       #320
      01000BB8H   LINE      CODE     ---       #321
      01000BB8H   LINE      CODE     ---       #322
      01000BC4H   LINE      CODE     ---       #323
      01000BC7H   LINE      CODE     ---       #324
      01000BC7H   LINE      CODE     ---       #325
      01000BC7H   LINE      CODE     ---       #326
      01000BC7H   LINE      CODE     ---       #327
      01000BDCH   LINE      CODE     ---       #328
      01000BDCH   LINE      CODE     ---       #329
      01000BDCH   LINE      CODE     ---       #330
      01000BEBH   LINE      CODE     ---       #331
      01000BEEH   LINE      CODE     ---       #332
      01000BEEH   LINE      CODE     ---       #333
      01000BF7H   LINE      CODE     ---       #334
      01000BFAH   LINE      CODE     ---       #335
      01000BFAH   LINE      CODE     ---       #336
      01000C03H   LINE      CODE     ---       #337
LX51 LINKER/LOCATER V4.66.93.0                                                        04/15/2020  14:21:01  PAGE 56


      01000C06H   LINE      CODE     ---       #338
      01000C06H   LINE      CODE     ---       #339
      01000C1EH   LINE      CODE     ---       #340
      01000C20H   LINE      CODE     ---       #341
      01000C20H   LINE      CODE     ---       #342
      01000C20H   LINE      CODE     ---       #343
      01000C20H   LINE      CODE     ---       #344
      01000C2EH   LINE      CODE     ---       #345
      01000C2EH   LINE      CODE     ---       #346
      01000C2EH   LINE      CODE     ---       #347
      01000C4DH   LINE      CODE     ---       #349
      01000C4FH   LINE      CODE     ---       #350
      01000C4FH   LINE      CODE     ---       #351
      01000C60H   LINE      CODE     ---       #353
      01000C62H   LINE      CODE     ---       #354
      01000C62H   LINE      CODE     ---       #355
      01000C78H   LINE      CODE     ---       #357
      01000C78H   LINE      CODE     ---       #358
      01000C78H   LINE      CODE     ---       #359
      01000C7EH   LINE      CODE     ---       #360
      01000C80H   LINE      CODE     ---       #361
      01000C80H   LINE      CODE     ---       #362
      01000C98H   LINE      CODE     ---       #363
      01000C9AH   LINE      CODE     ---       #364
      01000C9AH   LINE      CODE     ---       #365
      01000C9AH   LINE      CODE     ---       #366
      01000C9AH   LINE      CODE     ---       #367
      01000C9AH   LINE      CODE     ---       #368
      01000C9AH   LINE      CODE     ---       #369
      01000CA0H   LINE      CODE     ---       #370
      01000CA0H   LINE      CODE     ---       #371
      01000CA6H   LINE      CODE     ---       #372
      01000CA6H   LINE      CODE     ---       #373
      01000CACH   LINE      CODE     ---       #374
      01000CB1H   LINE      CODE     ---       #375
      01000CB1H   LINE      CODE     ---       #376
      01000CB1H   LINE      CODE     ---       #380
      01000CB7H   LINE      CODE     ---       #381
      01000CBEH   LINE      CODE     ---       #382
      01000CC1H   LINE      CODE     ---       #383
      01000CC7H   LINE      CODE     ---       #384
      01000CC8H   LINE      CODE     ---       #385
      ---         BLOCKEND  ---      ---       LVL=0

      01001394H   BLOCK     CODE     ---       LVL=0
      00000007H   SYMBOL    DATA     BYTE      Time
      01001394H   BLOCK     CODE     NEAR LAB  LVL=1
      020006D0H   SYMBOL    XDATA    WORD      Timex
      010013FAH   BLOCK     CODE     NEAR LAB  LVL=2
      00000023H   SYMBOL    DATA     WORD      TempT
      ---         BLOCKEND  ---      ---       LVL=2
      ---         BLOCKEND  ---      ---       LVL=1
      01001394H   LINE      CODE     ---       #386
      01001394H   LINE      CODE     ---       #387
      01001394H   LINE      CODE     ---       #388
      010013A3H   LINE      CODE     ---       #389
      010013AEH   LINE      CODE     ---       #391
      010013C7H   LINE      CODE     ---       #392
      010013C7H   LINE      CODE     ---       #393
      010013D4H   LINE      CODE     ---       #394
      010013D4H   LINE      CODE     ---       #398
      010013D7H   LINE      CODE     ---       #399
      010013F0H   LINE      CODE     ---       #400
      010013FAH   LINE      CODE     ---       #401
      010013FAH   LINE      CODE     ---       #406
LX51 LINKER/LOCATER V4.66.93.0                                                        04/15/2020  14:21:01  PAGE 57


      01001400H   LINE      CODE     ---       #407
      01001408H   LINE      CODE     ---       #408
      01001415H   LINE      CODE     ---       #409
      0100141CH   LINE      CODE     ---       #410
      01001421H   LINE      CODE     ---       #411
      01001421H   LINE      CODE     ---       #412
      01001424H   LINE      CODE     ---       #413
      0100144AH   LINE      CODE     ---       #414
      0100144AH   LINE      CODE     ---       #418
      01001451H   LINE      CODE     ---       #419
      01001455H   LINE      CODE     ---       #421
      01001455H   LINE      CODE     ---       #422
      01001455H   LINE      CODE     ---       #426
      0100145BH   LINE      CODE     ---       #427
      0100145BH   LINE      CODE     ---       #428
      0100145CH   LINE      CODE     ---       #430
      0100145CH   LINE      CODE     ---       #434
      01001462H   LINE      CODE     ---       #435
      01001465H   LINE      CODE     ---       #436
      01001472H   LINE      CODE     ---       #437
      01001472H   LINE      CODE     ---       #438
      01001472H   LINE      CODE     ---       #439
      ---         BLOCKEND  ---      ---       LVL=0

      0100129DH   BLOCK     CODE     ---       LVL=0
      00000022H   SYMBOL    DATA     BYTE      Code
      01001317H   BLOCK     CODE     NEAR LAB  LVL=1
      02000000H   SYMBOL    PDATA    BYTE      TempFailCount
      ---         BLOCKEND  ---      ---       LVL=1
      0100129DH   LINE      CODE     ---       #440
      0100129FH   LINE      CODE     ---       #441
      0100129FH   LINE      CODE     ---       #442
      010012B2H   LINE      CODE     ---       #443
      010012B4H   LINE      CODE     ---       #444
      010012B8H   LINE      CODE     ---       #445
      010012B8H   LINE      CODE     ---       #446
      010012BEH   LINE      CODE     ---       #447
      010012BEH   LINE      CODE     ---       #448
      010012C2H   LINE      CODE     ---       #449
      010012C2H   LINE      CODE     ---       #450
      010012C2H   LINE      CODE     ---       #451
      010012C2H   LINE      CODE     ---       #452
      010012C8H   LINE      CODE     ---       #453
      010012C8H   LINE      CODE     ---       #454
      010012CAH   LINE      CODE     ---       #455
      010012CAH   LINE      CODE     ---       #457
      0100130DH   LINE      CODE     ---       #458
      0100130FH   LINE      CODE     ---       #460
      0100130FH   LINE      CODE     ---       #461
      01001317H   LINE      CODE     ---       #462
      01001317H   LINE      CODE     ---       #463
      01001322H   LINE      CODE     ---       #464
      01001328H   LINE      CODE     ---       #465
      0100132EH   LINE      CODE     ---       #466
      01001333H   LINE      CODE     ---       #467
      01001338H   LINE      CODE     ---       #468
      01001338H   LINE      CODE     ---       #469
      0100133BH   LINE      CODE     ---       #470
      01001340H   LINE      CODE     ---       #471
      0100135AH   LINE      CODE     ---       #472
      0100135CH   LINE      CODE     ---       #473
      0100135CH   LINE      CODE     ---       #474
      0100135CH   LINE      CODE     ---       #475
      01001365H   LINE      CODE     ---       #476
      01001365H   LINE      CODE     ---       #477
LX51 LINKER/LOCATER V4.66.93.0                                                        04/15/2020  14:21:01  PAGE 58


      01001365H   LINE      CODE     ---       #478
      0100136DH   LINE      CODE     ---       #479
      0100136FH   LINE      CODE     ---       #480
      0100136FH   LINE      CODE     ---       #481
      01001387H   LINE      CODE     ---       #482
      01001387H   LINE      CODE     ---       #483
      01001387H   LINE      CODE     ---       #484
      01001387H   LINE      CODE     ---       #485
      0100138DH   LINE      CODE     ---       #486
      01001392H   LINE      CODE     ---       #487
      01001393H   LINE      CODE     ---       #488
      ---         BLOCKEND  ---      ---       LVL=0

      01000CC9H   BLOCK     CODE     ---       LVL=0
      01000CC9H   LINE      CODE     ---       #489
      01000CC9H   LINE      CODE     ---       #490
      01000CC9H   LINE      CODE     ---       #494
      01000CE0H   LINE      CODE     ---       #495
      01000CE0H   LINE      CODE     ---       #497
      01000CE0H   LINE      CODE     ---       #498
      01000CF4H   LINE      CODE     ---       #499
      01000CF4H   LINE      CODE     ---       #500
      01000D18H   LINE      CODE     ---       #501
      01000D18H   LINE      CODE     ---       #502
      01000D1BH   LINE      CODE     ---       #503
      01000D26H   LINE      CODE     ---       #504
      01000D2EH   LINE      CODE     ---       #505
      01000D2EH   LINE      CODE     ---       #506
      01000D2FH   LINE      CODE     ---       #507
      01000D3AH   LINE      CODE     ---       #508
      01000D3AH   LINE      CODE     ---       #509
      01000D4DH   LINE      CODE     ---       #510
      01000D4DH   LINE      CODE     ---       #511
      01000D4EH   LINE      CODE     ---       #512
      01000D4EH   LINE      CODE     ---       #513
      01000D4EH   LINE      CODE     ---       #514
      01000D4EH   LINE      CODE     ---       #515
      01000D4EH   LINE      CODE     ---       #516
      01000D4EH   LINE      CODE     ---       #517
      01000D4EH   LINE      CODE     ---       #518
      01000D4EH   LINE      CODE     ---       #519
      01000D4EH   LINE      CODE     ---       #520
      01000D4EH   LINE      CODE     ---       #521
      01000D4EH   LINE      CODE     ---       #522
      01000D4EH   LINE      CODE     ---       #523
      01000D62H   LINE      CODE     ---       #524
      01000D62H   LINE      CODE     ---       #525
      01000D78H   LINE      CODE     ---       #526
      01000D7DH   LINE      CODE     ---       #527
      01000D80H   LINE      CODE     ---       #528
      01000D9FH   LINE      CODE     ---       #529
      01000DB6H   LINE      CODE     ---       #530
      01000DB9H   LINE      CODE     ---       #531
      01000DCFH   LINE      CODE     ---       #532
      01000DD4H   LINE      CODE     ---       #533
      01000DD4H   LINE      CODE     ---       #534
      01000DD6H   LINE      CODE     ---       #535
      01000DEEH   LINE      CODE     ---       #536
      01000DEEH   LINE      CODE     ---       #537
      01000E0DH   LINE      CODE     ---       #538
      01000E10H   LINE      CODE     ---       #539
      01000E10H   LINE      CODE     ---       #540
      01000E10H   LINE      CODE     ---       #542
      01000E10H   LINE      CODE     ---       #544
      01000E10H   LINE      CODE     ---       #545
LX51 LINKER/LOCATER V4.66.93.0                                                        04/15/2020  14:21:01  PAGE 59


      ---         BLOCKEND  ---      ---       LVL=0

      ---         MODULE    ---      ---       CLOUDCODEARRAY
      01001DD6H   PUBLIC    CONST    ---       ATCmd
      01001DD0H   PUBLIC    CONST    ---       ATCmd15
      01001DC9H   PUBLIC    CONST    ---       ATCmd14
      01001DC4H   PUBLIC    CONST    ---       ATCmd13
      01001DBAH   PUBLIC    CONST    ---       ATCmd12
      01001DAFH   PUBLIC    CONST    ---       ATCmd11
      01001DA5H   PUBLIC    CONST    ---       ATCmd10
      01001D9CH   PUBLIC    CONST    ---       ATCmd9
      01001D94H   PUBLIC    CONST    ---       ATCmd8
      01001D8CH   PUBLIC    CONST    ---       ATCmd7
      01001D82H   PUBLIC    CONST    ---       ATCmd6
      01001D74H   PUBLIC    CONST    ---       ATCmd5
      01001D69H   PUBLIC    CONST    ---       ATCmd4
      01001D5BH   PUBLIC    CONST    ---       ATCmd3
      01001D53H   PUBLIC    CONST    ---       ATCmd2
      01001D4AH   PUBLIC    CONST    ---       ATCmd1
      01001D41H   PUBLIC    CONST    ---       ATCmd0
      01001D40H   PUBLIC    CONST    BYTE      Service_1_Len
      01001D3FH   PUBLIC    CONST    ---       Service_1
      01001D3EH   PUBLIC    CONST    BYTE      Event_2_Len
      01001D3DH   PUBLIC    CONST    BYTE      Event_1_Len
      01001D28H   PUBLIC    CONST    ---       Event_2
      01001D14H   PUBLIC    CONST    ---       Event_1
      01001D10H   PUBLIC    CONST    ---       MQTTAutoStart
      01001D0DH   PUBLIC    CONST    ---       MQTTAutoReConect
      01001D0AH   PUBLIC    CONST    ---       MQTTHeartBeat
      01001CD1H   PUBLIC    CONST    ---       MQTTClientID
      01001CCCH   PUBLIC    CONST    ---       MQTTPort
      01001C9BH   PUBLIC    CONST    ---       MQTTHost
      01001C72H   PUBLIC    CONST    ---       MQTTPassword
      01001C5EH   PUBLIC    CONST    ---       MQTTUser
      01001C55H   PUBLIC    CONST    ---       WiFiPassword
      01001C48H   PUBLIC    CONST    ---       WiFiSSID
      01001C3CH   PUBLIC    CONST    ---       ProductKey
      01001C34H   PUBLIC    CONST    ---       DeviceName
      000000D8H.2 SFRSYM    DATA     BIT       CCF2
      00000092H   SFRSYM    DATA     BYTE      P1M0
      00000093H   SFRSYM    DATA     BYTE      P0M1
      000000D8H.3 SFRSYM    DATA     BIT       CCF3
      00000096H   SFRSYM    DATA     BYTE      P2M0
      00000091H   SFRSYM    DATA     BYTE      P1M1
      00000080H   SFRSYM    DATA     BYTE      P0
      000000B2H   SFRSYM    DATA     BYTE      P3M0
      00000095H   SFRSYM    DATA     BYTE      P2M1
      00000090H   SFRSYM    DATA     BYTE      P1
      000000B4H   SFRSYM    DATA     BYTE      P4M0
      000000B1H   SFRSYM    DATA     BYTE      P3M1
      000000A0H   SFRSYM    DATA     BYTE      P2
      000000ABH   SFRSYM    DATA     BYTE      WKTCH
      000000CAH   SFRSYM    DATA     BYTE      P5M0
      000000B3H   SFRSYM    DATA     BYTE      P4M1
      000000B0H   SFRSYM    DATA     BYTE      P3
      000000CCH   SFRSYM    DATA     BYTE      P6M0
      000000C9H   SFRSYM    DATA     BYTE      P5M1
      000000C0H   SFRSYM    DATA     BYTE      P4
      000000D0H.6 SFRSYM    DATA     BIT       AC
      000000F6H   SFRSYM    DATA     BYTE      PWMIF
      000000C6H   SFRSYM    DATA     BYTE      ISP_TRIG
      000000E2H   SFRSYM    DATA     BYTE      P7M0
      000000CBH   SFRSYM    DATA     BYTE      P6M1
      000000C8H   SFRSYM    DATA     BYTE      P5
      000000A8H.7 SFRSYM    DATA     BIT       EA
LX51 LINKER/LOCATER V4.66.93.0                                                        04/15/2020  14:21:01  PAGE 60


      000000E1H   SFRSYM    DATA     BYTE      P7M1
      000000E8H   SFRSYM    DATA     BYTE      P6
      000000AAH   SFRSYM    DATA     BYTE      WKTCL
      000000F8H   SFRSYM    DATA     BYTE      P7
      000000CEH   SFRSYM    DATA     BYTE      SPCTL
      000000D8H.7 SFRSYM    DATA     BIT       CF
      000000FEH   SFRSYM    DATA     BYTE      PWMCR
      000000F9H   SFRSYM    DATA     BYTE      CH
      000000A2H   SFRSYM    DATA     BYTE      P_SW1
      000000BAH   SFRSYM    DATA     BYTE      P_SW2
      000000A8H.5 SFRSYM    DATA     BIT       EADC
      000000A8H   SFRSYM    DATA     BYTE      IE
      000000E5H   SFRSYM    DATA     BYTE      DPH1
      000000E9H   SFRSYM    DATA     BYTE      CL
      000000C5H   SFRSYM    DATA     BYTE      IAP_CMD
      000000FAH   SFRSYM    DATA     BYTE      CCAP0H
      000000B0H.2 SFRSYM    DATA     BIT       LCD1602_EN
      00000090H.0 SFRSYM    DATA     BIT       LED_RED
      000000FBH   SFRSYM    DATA     BYTE      CCAP1H
      000000E4H   SFRSYM    DATA     BYTE      DPL1
      000000FCH   SFRSYM    DATA     BYTE      CCAP2H
      000000FDH   SFRSYM    DATA     BYTE      CCAP3H
      000000BDH   SFRSYM    DATA     BYTE      ADC_RES
      000000B6H   SFRSYM    DATA     BYTE      IP2H
      000000EAH   SFRSYM    DATA     BYTE      CCAP0L
      000000D8H.6 SFRSYM    DATA     BIT       CR
      000000AEH   SFRSYM    DATA     BYTE      TA
      000000F7H   SFRSYM    DATA     BYTE      PWMFDCR
      000000EBH   SFRSYM    DATA     BYTE      CCAP1L
      000000DAH   SFRSYM    DATA     BYTE      CCAPM0
      000000ECH   SFRSYM    DATA     BYTE      CCAP2L
      000000DBH   SFRSYM    DATA     BYTE      CCAPM1
      0000008FH   SFRSYM    DATA     BYTE      INTCLKO
      000000EDH   SFRSYM    DATA     BYTE      CCAP3L
      000000DCH   SFRSYM    DATA     BYTE      CCAPM2
      000000A8H.4 SFRSYM    DATA     BIT       ES
      000000DDH   SFRSYM    DATA     BYTE      CCAPM3
      000000B8H.5 SFRSYM    DATA     BIT       PADC
      000000B8H   SFRSYM    DATA     BYTE      IP
      000000DEH   SFRSYM    DATA     BYTE      ADCCFG
      000000B0H.6 SFRSYM    DATA     BIT       ESP8266_RST
      00000098H.0 SFRSYM    DATA     BIT       RI
      000000D0H.7 SFRSYM    DATA     BIT       CY
      00000098H.1 SFRSYM    DATA     BIT       TI
      000000C3H   SFRSYM    DATA     BYTE      IAP_ADDRH
      000000C0H.1 SFRSYM    DATA     BIT       DS18B20_DATA
      000000C5H   SFRSYM    DATA     BYTE      ISP_CMD
      000000B8H.4 SFRSYM    DATA     BIT       PS
      00000081H   SFRSYM    DATA     BYTE      SP
      000000A0H.7 SFRSYM    DATA     BIT       LCD1602_Busy
      000000B0H.5 SFRSYM    DATA     BIT       LCD1602_RS
      000000D9H   SFRSYM    DATA     BYTE      CMOD
      000000D8H   SFRSYM    DATA     BYTE      CCON
      000000C4H   SFRSYM    DATA     BYTE      IAP_ADDRL
      000000B8H.7 SFRSYM    DATA     BIT       PPCA
      000000D0H.2 SFRSYM    DATA     BIT       OV
      000000B0H.4 SFRSYM    DATA     BIT       LCD1602_RW
      000000E6H   SFRSYM    DATA     BYTE      CMPCR1
      00000090H.1 SFRSYM    DATA     BIT       LED_GREEN
      000000E7H   SFRSYM    DATA     BYTE      CMPCR2
      000000A8H.6 SFRSYM    DATA     BIT       ELVD
      00000080H.0 SFRSYM    DATA     BIT       P00
      000000BCH   SFRSYM    DATA     BYTE      ADC_CONTR
      00000099H   SFRSYM    DATA     BYTE      SBUF
      00000087H   SFRSYM    DATA     BYTE      PCON
LX51 LINKER/LOCATER V4.66.93.0                                                        04/15/2020  14:21:01  PAGE 61


      00000090H.0 SFRSYM    DATA     BIT       P10
      00000080H.1 SFRSYM    DATA     BIT       P01
      000000C3H   SFRSYM    DATA     BYTE      ISP_ADDRH
      000000A0H.0 SFRSYM    DATA     BIT       P20
      00000090H.1 SFRSYM    DATA     BIT       P11
      00000080H.2 SFRSYM    DATA     BIT       P02
      000000B0H.0 SFRSYM    DATA     BIT       P30
      000000A0H.1 SFRSYM    DATA     BIT       P21
      00000090H.2 SFRSYM    DATA     BIT       P12
      00000080H.3 SFRSYM    DATA     BIT       P03
      00000098H   SFRSYM    DATA     BYTE      SCON
      000000C0H.0 SFRSYM    DATA     BIT       P40
      000000B0H.1 SFRSYM    DATA     BIT       P31
      000000A0H.2 SFRSYM    DATA     BIT       P22
      00000090H.3 SFRSYM    DATA     BIT       P13
      00000080H.4 SFRSYM    DATA     BIT       P04
      00000089H   SFRSYM    DATA     BYTE      TMOD
      00000088H   SFRSYM    DATA     BYTE      TCON
      000000C8H.0 SFRSYM    DATA     BIT       P50
      000000C0H.1 SFRSYM    DATA     BIT       P41
      000000B0H.2 SFRSYM    DATA     BIT       P32
      000000A0H.3 SFRSYM    DATA     BIT       P23
      00000090H.4 SFRSYM    DATA     BIT       P14
      00000080H.5 SFRSYM    DATA     BIT       P05
      000000C4H   SFRSYM    DATA     BYTE      ISP_ADDRL
      000000E8H.0 SFRSYM    DATA     BIT       P60
      000000C8H.1 SFRSYM    DATA     BIT       P51
      000000C0H.2 SFRSYM    DATA     BIT       P42
      000000B0H.3 SFRSYM    DATA     BIT       P33
      000000A0H.4 SFRSYM    DATA     BIT       P24
      00000090H.5 SFRSYM    DATA     BIT       P15
      00000080H.6 SFRSYM    DATA     BIT       P06
      000000B8H.6 SFRSYM    DATA     BIT       PLVD
      000000F8H.0 SFRSYM    DATA     BIT       P70
      000000E8H.1 SFRSYM    DATA     BIT       P61
      000000C8H.2 SFRSYM    DATA     BIT       P52
      000000C0H.3 SFRSYM    DATA     BIT       P43
      000000B0H.4 SFRSYM    DATA     BIT       P34
      000000A0H.5 SFRSYM    DATA     BIT       P25
      00000090H.6 SFRSYM    DATA     BIT       P16
      00000080H.7 SFRSYM    DATA     BIT       P07
      000000F8H.1 SFRSYM    DATA     BIT       P71
      000000E8H.2 SFRSYM    DATA     BIT       P62
      000000C8H.3 SFRSYM    DATA     BIT       P53
      000000C0H.4 SFRSYM    DATA     BIT       P44
      000000B0H.5 SFRSYM    DATA     BIT       P35
      000000A0H.6 SFRSYM    DATA     BIT       P26
      00000090H.7 SFRSYM    DATA     BIT       P17
      000000F8H.2 SFRSYM    DATA     BIT       P72
      000000E8H.3 SFRSYM    DATA     BIT       P63
      000000C8H.4 SFRSYM    DATA     BIT       P54
      000000C0H.5 SFRSYM    DATA     BIT       P45
      000000B0H.6 SFRSYM    DATA     BIT       P36
      000000A0H.7 SFRSYM    DATA     BIT       P27
      000000F8H.3 SFRSYM    DATA     BIT       P73
      000000E8H.4 SFRSYM    DATA     BIT       P64
      000000C8H.5 SFRSYM    DATA     BIT       P55
      000000C0H.6 SFRSYM    DATA     BIT       P46
      000000B0H.7 SFRSYM    DATA     BIT       P37
      000000F8H.4 SFRSYM    DATA     BIT       P74
      000000E8H.5 SFRSYM    DATA     BIT       P65
      000000C8H.6 SFRSYM    DATA     BIT       P56
      000000C0H.7 SFRSYM    DATA     BIT       P47
      000000F8H.5 SFRSYM    DATA     BIT       P75
      000000E8H.6 SFRSYM    DATA     BIT       P66
LX51 LINKER/LOCATER V4.66.93.0                                                        04/15/2020  14:21:01  PAGE 62


      000000C8H.7 SFRSYM    DATA     BIT       P57
      000000F8H.6 SFRSYM    DATA     BIT       P76
      000000E8H.7 SFRSYM    DATA     BIT       P67
      00000088H.1 SFRSYM    DATA     BIT       IE0
      000000A1H   SFRSYM    DATA     BYTE      BUS_SPEED
      000000F8H.7 SFRSYM    DATA     BIT       P77
      00000088H.3 SFRSYM    DATA     BIT       IE1
      000000AFH   SFRSYM    DATA     BYTE      IE2
      0000008EH   SFRSYM    DATA     BYTE      AUXR
      000000F0H   SFRSYM    DATA     BYTE      B
      000000C7H   SFRSYM    DATA     BYTE      IAP_CONTR
      000000F1H   SFRSYM    DATA     BYTE      PWMCFG
      000000E0H   SFRSYM    DATA     BYTE      ACC
      000000A8H.1 SFRSYM    DATA     BIT       ET0
      00000088H.5 SFRSYM    DATA     BIT       TF0
      000000A8H.3 SFRSYM    DATA     BIT       ET1
      00000088H.7 SFRSYM    DATA     BIT       TF1
      000000B5H   SFRSYM    DATA     BYTE      IP2
      000000FFH   SFRSYM    DATA     BYTE      RSTCFG
      00000098H.2 SFRSYM    DATA     BIT       RB8
      0000008CH   SFRSYM    DATA     BYTE      TH0
      0000008DH   SFRSYM    DATA     BYTE      TH1
      00000088H.0 SFRSYM    DATA     BIT       IT0
      000000A8H.0 SFRSYM    DATA     BIT       EX0
      00000098H.3 SFRSYM    DATA     BIT       TB8
      000000D6H   SFRSYM    DATA     BYTE      TH2
      000000D6H   SFRSYM    DATA     BYTE      T2H
      00000088H.2 SFRSYM    DATA     BIT       IT1
      000000A8H.2 SFRSYM    DATA     BIT       EX1
      000000D4H   SFRSYM    DATA     BYTE      TH3
      000000D4H   SFRSYM    DATA     BYTE      T3H
      000000D0H.0 SFRSYM    DATA     BIT       P
      00000098H.7 SFRSYM    DATA     BIT       SM0
      000000D2H   SFRSYM    DATA     BYTE      TH4
      000000D2H   SFRSYM    DATA     BYTE      T4H
      0000008AH   SFRSYM    DATA     BYTE      TL0
      00000098H.6 SFRSYM    DATA     BIT       SM1
      0000008BH   SFRSYM    DATA     BYTE      TL1
      00000098H.5 SFRSYM    DATA     BIT       SM2
      000000D7H   SFRSYM    DATA     BYTE      TL2
      000000D7H   SFRSYM    DATA     BYTE      T2L
      000000D5H   SFRSYM    DATA     BYTE      TL3
      000000D5H   SFRSYM    DATA     BYTE      T3L
      000000D3H   SFRSYM    DATA     BYTE      TL4
      000000D3H   SFRSYM    DATA     BYTE      T4L
      000000B8H.1 SFRSYM    DATA     BIT       PT0
      000000C7H   SFRSYM    DATA     BYTE      ISP_CONTR
      000000B8H.3 SFRSYM    DATA     BIT       PT1
      000000D0H.3 SFRSYM    DATA     BIT       RS0
      000000C2H   SFRSYM    DATA     BYTE      IAP_DATA
      00000088H.4 SFRSYM    DATA     BIT       TR0
      000000D0H.4 SFRSYM    DATA     BIT       RS1
      00000088H.6 SFRSYM    DATA     BIT       TR1
      000000C1H   SFRSYM    DATA     BYTE      WDT_CONTR
      000000B8H.0 SFRSYM    DATA     BIT       PX0
      000000B8H.2 SFRSYM    DATA     BIT       PX1
      000000F2H   SFRSYM    DATA     BYTE      PCA_PWM0
      000000F3H   SFRSYM    DATA     BYTE      PCA_PWM1
      000000F4H   SFRSYM    DATA     BYTE      PCA_PWM2
      000000BBH   SFRSYM    DATA     BYTE      VOCTRL
      00000083H   SFRSYM    DATA     BYTE      DPH
      000000F5H   SFRSYM    DATA     BYTE      PCA_PWM3
      000000D1H   SFRSYM    DATA     BYTE      T4T3M
      00000080H.7 SFRSYM    DATA     BIT       LED_BLUE
      000000BEH   SFRSYM    DATA     BYTE      ADC_RESL
LX51 LINKER/LOCATER V4.66.93.0                                                        04/15/2020  14:21:01  PAGE 63


      00000082H   SFRSYM    DATA     BYTE      DPL
      000000CDH   SFRSYM    DATA     BYTE      SPSTAT
      000000B7H   SFRSYM    DATA     BYTE      IPH
      0000009BH   SFRSYM    DATA     BYTE      S2BUF
      000000ADH   SFRSYM    DATA     BYTE      S3BUF
      00000085H   SFRSYM    DATA     BYTE      S4BUF
      00000098H.4 SFRSYM    DATA     BIT       REN
      0000009AH   SFRSYM    DATA     BYTE      S2CON
      000000ACH   SFRSYM    DATA     BYTE      S3CON
      000000E3H   SFRSYM    DATA     BYTE      DPS
      000000C2H   SFRSYM    DATA     BYTE      ISP_DATA
      00000084H   SFRSYM    DATA     BYTE      S4CON
      000000EFH   SFRSYM    DATA     BYTE      AUXINTIF
      000000B9H   SFRSYM    DATA     BYTE      SADEN
      000000A9H   SFRSYM    DATA     BYTE      SADDR
      000000C6H   SFRSYM    DATA     BYTE      IAP_TRIG
      00000097H   SFRSYM    DATA     BYTE      AUXR2
      000000D0H.5 SFRSYM    DATA     BIT       F0
      000000D0H   SFRSYM    DATA     BYTE      PSW
      000000D8H.0 SFRSYM    DATA     BIT       CCF0
      000000D8H.1 SFRSYM    DATA     BIT       CCF1
      000000CFH   SFRSYM    DATA     BYTE      SPDAT
      00000094H   SFRSYM    DATA     BYTE      P0M0

      ---         MODULE    ---      ---       ?C?FPADD
      0100004DH   PUBLIC    CODE     ---       ?C?FPADD
      01000049H   PUBLIC    CODE     ---       ?C?FPSUB

      ---         MODULE    ---      ---       ?C?FPMUL
      0100013EH   PUBLIC    CODE     ---       ?C?FPMUL

      ---         MODULE    ---      ---       ?C?FCAST
      0100024EH   PUBLIC    CODE     ---       ?C?FCASTC
      01000249H   PUBLIC    CODE     ---       ?C?FCASTI
      01000244H   PUBLIC    CODE     ---       ?C?FCASTL

      ---         MODULE    ---      ---       ?C?CASTF
      01000282H   PUBLIC    CODE     ---       ?C?CASTF

      ---         MODULE    ---      ---       PRINTF
      00000024H   PUBLIC    DATA     ---       ?_PRINTF?BYTE
      00000024H   PUBLIC    DATA     ---       ?_SPRINTF?BYTE
      010006C5H   PUBLIC    CODE     ---       _PRINTF
      010006BFH   PUBLIC    CODE     ---       _SPRINTF

      ---         MODULE    ---      ---       ?C?FPGETOPN
      010002B9H   PUBLIC    CODE     ---       ?C?FPGETOPN2
      010002EEH   PUBLIC    CODE     ---       ?C?FPNANRESULT
      010002F8H   PUBLIC    CODE     ---       ?C?FPOVERFLOW
      010002D0H   PUBLIC    CODE     ---       ?C?FPRESULT
      010002E4H   PUBLIC    CODE     ---       ?C?FPRESULT2
      010002F5H   PUBLIC    CODE     ---       ?C?FPUNDERFLOW

      ---         MODULE    ---      ---       ?C?FPROUND
      01000303H   PUBLIC    CODE     ---       ?C?FPROUND

      ---         MODULE    ---      ---       ?C?FPCONVERT
      01000332H   PUBLIC    CODE     ---       ?C?FPCONVERT

      ---         MODULE    ---      ---       ?C?FPDIV
      01000438H   PUBLIC    CODE     ---       ?C?FPDIV

      ---         MODULE    ---      ---       ?C?FTNPWR
      01000505H   PUBLIC    CODE     ---       ?C?FTNPWR

LX51 LINKER/LOCATER V4.66.93.0                                                        04/15/2020  14:21:01  PAGE 64


      ---         MODULE    ---      ---       ?C_STARTUP
      01000000H   PUBLIC    CODE     ---       ?C_STARTUP

      ---         MODULE    ---      ---       ?C?CLDPTR
      01000545H   PUBLIC    CODE     ---       ?C?CLDPTR

      ---         MODULE    ---      ---       ?C?CLDOPTR
      0100055EH   PUBLIC    CODE     ---       ?C?CLDOPTR

      ---         MODULE    ---      ---       ?C?CSTPTR
      0100058BH   PUBLIC    CODE     ---       ?C?CSTPTR

      ---         MODULE    ---      ---       ?C?ILDIX
      0100059DH   PUBLIC    CODE     ---       ?C?ILDIX

      ---         MODULE    ---      ---       ?C?LNEG
      010005B3H   PUBLIC    CODE     ---       ?C?LNEG

      ---         MODULE    ---      ---       ?C?ULCMP
      010005C1H   PUBLIC    CODE     ---       ?C?ULCMP

      ---         MODULE    ---      ---       ?C?ULSHR
      010005D2H   PUBLIC    CODE     ---       ?C?ULSHR

      ---         MODULE    ---      ---       ?C?LLDCODE0
      010005E5H   PUBLIC    CODE     ---       ?C?LLDCODE0

      ---         MODULE    ---      ---       ?C?LSTXDATA
      010005F5H   PUBLIC    CODE     ---       ?C?LSTXDATA

      ---         MODULE    ---      ---       ?C?PLDIIDATA
      01000601H   PUBLIC    CODE     ---       ?C?PLDIIDATA

      ---         MODULE    ---      ---       ?C?CCASE
      01000611H   PUBLIC    CODE     ---       ?C?CCASE

      ---         MODULE    ---      ---       PUTCHAR
      01001AB5H   PUBLIC    CODE     ---       _PUTCHAR

      ---         MODULE    ---      ---       STRNCMP
      00000029H   PUBLIC    DATA     ---       ?_STRNCMP?BYTE
      010017F2H   PUBLIC    CODE     ---       _STRNCMP

      ---         MODULE    ---      ---       ?C?MEMSET
      01000637H   PUBLIC    CODE     ---       ?C?MEMSET

      ---         MODULE    ---      ---       ?C_INIT
      01001722H   PUBLIC    CODE     ---       ?C_START

Program Size: data=45.4 xdata=1746 const=942 code=7220
LX51 RUN COMPLETE.  0 WARNING(S),  0 ERROR(S)
